
sd_lis3dh_f446_2.elf:     file format elf32-littlearm

Sections:
Idx Name          Size      VMA       LMA       File off  Algn
  0 .isr_vector   000001c4  08000000  08000000  00010000  2**0
                  CONTENTS, ALLOC, LOAD, READONLY, DATA
  1 .text         0000a338  080001d0  080001d0  000101d0  2**4
                  CONTENTS, ALLOC, LOAD, READONLY, CODE
  2 .rodata       00000490  0800a508  0800a508  0001a508  2**3
                  CONTENTS, ALLOC, LOAD, READONLY, DATA
  3 .ARM.extab    00000000  0800a998  0800a998  000201f4  2**0
                  CONTENTS
  4 .ARM          00000008  0800a998  0800a998  0001a998  2**2
                  CONTENTS, ALLOC, LOAD, READONLY, DATA
  5 .preinit_array 00000000  0800a9a0  0800a9a0  000201f4  2**0
                  CONTENTS, ALLOC, LOAD, DATA
  6 .init_array   00000004  0800a9a0  0800a9a0  0001a9a0  2**2
                  CONTENTS, ALLOC, LOAD, DATA
  7 .fini_array   00000004  0800a9a4  0800a9a4  0001a9a4  2**2
                  CONTENTS, ALLOC, LOAD, DATA
  8 .data         000001f4  20000000  0800a9a8  00020000  2**2
                  CONTENTS, ALLOC, LOAD, DATA
  9 .bss          00000fb0  200001f4  0800ab9c  000201f4  2**2
                  ALLOC
 10 ._user_heap_stack 00000604  200011a4  0800ab9c  000211a4  2**0
                  ALLOC
 11 .ARM.attributes 00000030  00000000  00000000  000201f4  2**0
                  CONTENTS, READONLY
 12 .debug_info   00018cf3  00000000  00000000  00020224  2**0
                  CONTENTS, READONLY, DEBUGGING
 13 .debug_abbrev 00002f5c  00000000  00000000  00038f17  2**0
                  CONTENTS, READONLY, DEBUGGING
 14 .debug_aranges 000013d8  00000000  00000000  0003be78  2**3
                  CONTENTS, READONLY, DEBUGGING
 15 .debug_ranges 00001298  00000000  00000000  0003d250  2**3
                  CONTENTS, READONLY, DEBUGGING
 16 .debug_macro  000244e7  00000000  00000000  0003e4e8  2**0
                  CONTENTS, READONLY, DEBUGGING
 17 .debug_line   0000fe1d  00000000  00000000  000629cf  2**0
                  CONTENTS, READONLY, DEBUGGING
 18 .debug_str    000d0ba2  00000000  00000000  000727ec  2**0
                  CONTENTS, READONLY, DEBUGGING
 19 .comment      0000007b  00000000  00000000  0014338e  2**0
                  CONTENTS, READONLY
 20 .debug_frame  00005d9c  00000000  00000000  0014340c  2**2
                  CONTENTS, READONLY, DEBUGGING

Disassembly of section .text:

080001d0 <__do_global_dtors_aux>:
 80001d0:	b510      	push	{r4, lr}
 80001d2:	4c05      	ldr	r4, [pc, #20]	; (80001e8 <__do_global_dtors_aux+0x18>)
 80001d4:	7823      	ldrb	r3, [r4, #0]
 80001d6:	b933      	cbnz	r3, 80001e6 <__do_global_dtors_aux+0x16>
 80001d8:	4b04      	ldr	r3, [pc, #16]	; (80001ec <__do_global_dtors_aux+0x1c>)
 80001da:	b113      	cbz	r3, 80001e2 <__do_global_dtors_aux+0x12>
 80001dc:	4804      	ldr	r0, [pc, #16]	; (80001f0 <__do_global_dtors_aux+0x20>)
 80001de:	f3af 8000 	nop.w
 80001e2:	2301      	movs	r3, #1
 80001e4:	7023      	strb	r3, [r4, #0]
 80001e6:	bd10      	pop	{r4, pc}
 80001e8:	200001f4 	.word	0x200001f4
 80001ec:	00000000 	.word	0x00000000
 80001f0:	0800a4f0 	.word	0x0800a4f0

080001f4 <frame_dummy>:
 80001f4:	b508      	push	{r3, lr}
 80001f6:	4b03      	ldr	r3, [pc, #12]	; (8000204 <frame_dummy+0x10>)
 80001f8:	b11b      	cbz	r3, 8000202 <frame_dummy+0xe>
 80001fa:	4903      	ldr	r1, [pc, #12]	; (8000208 <frame_dummy+0x14>)
 80001fc:	4803      	ldr	r0, [pc, #12]	; (800020c <frame_dummy+0x18>)
 80001fe:	f3af 8000 	nop.w
 8000202:	bd08      	pop	{r3, pc}
 8000204:	00000000 	.word	0x00000000
 8000208:	200001f8 	.word	0x200001f8
 800020c:	0800a4f0 	.word	0x0800a4f0

08000210 <strlen>:
 8000210:	4603      	mov	r3, r0
 8000212:	f813 2b01 	ldrb.w	r2, [r3], #1
 8000216:	2a00      	cmp	r2, #0
 8000218:	d1fb      	bne.n	8000212 <strlen+0x2>
 800021a:	1a18      	subs	r0, r3, r0
 800021c:	3801      	subs	r0, #1
 800021e:	4770      	bx	lr

08000220 <memchr>:
 8000220:	f001 01ff 	and.w	r1, r1, #255	; 0xff
 8000224:	2a10      	cmp	r2, #16
 8000226:	db2b      	blt.n	8000280 <memchr+0x60>
 8000228:	f010 0f07 	tst.w	r0, #7
 800022c:	d008      	beq.n	8000240 <memchr+0x20>
 800022e:	f810 3b01 	ldrb.w	r3, [r0], #1
 8000232:	3a01      	subs	r2, #1
 8000234:	428b      	cmp	r3, r1
 8000236:	d02d      	beq.n	8000294 <memchr+0x74>
 8000238:	f010 0f07 	tst.w	r0, #7
 800023c:	b342      	cbz	r2, 8000290 <memchr+0x70>
 800023e:	d1f6      	bne.n	800022e <memchr+0xe>
 8000240:	b4f0      	push	{r4, r5, r6, r7}
 8000242:	ea41 2101 	orr.w	r1, r1, r1, lsl #8
 8000246:	ea41 4101 	orr.w	r1, r1, r1, lsl #16
 800024a:	f022 0407 	bic.w	r4, r2, #7
 800024e:	f07f 0700 	mvns.w	r7, #0
 8000252:	2300      	movs	r3, #0
 8000254:	e8f0 5602 	ldrd	r5, r6, [r0], #8
 8000258:	3c08      	subs	r4, #8
 800025a:	ea85 0501 	eor.w	r5, r5, r1
 800025e:	ea86 0601 	eor.w	r6, r6, r1
 8000262:	fa85 f547 	uadd8	r5, r5, r7
 8000266:	faa3 f587 	sel	r5, r3, r7
 800026a:	fa86 f647 	uadd8	r6, r6, r7
 800026e:	faa5 f687 	sel	r6, r5, r7
 8000272:	b98e      	cbnz	r6, 8000298 <memchr+0x78>
 8000274:	d1ee      	bne.n	8000254 <memchr+0x34>
 8000276:	bcf0      	pop	{r4, r5, r6, r7}
 8000278:	f001 01ff 	and.w	r1, r1, #255	; 0xff
 800027c:	f002 0207 	and.w	r2, r2, #7
 8000280:	b132      	cbz	r2, 8000290 <memchr+0x70>
 8000282:	f810 3b01 	ldrb.w	r3, [r0], #1
 8000286:	3a01      	subs	r2, #1
 8000288:	ea83 0301 	eor.w	r3, r3, r1
 800028c:	b113      	cbz	r3, 8000294 <memchr+0x74>
 800028e:	d1f8      	bne.n	8000282 <memchr+0x62>
 8000290:	2000      	movs	r0, #0
 8000292:	4770      	bx	lr
 8000294:	3801      	subs	r0, #1
 8000296:	4770      	bx	lr
 8000298:	2d00      	cmp	r5, #0
 800029a:	bf06      	itte	eq
 800029c:	4635      	moveq	r5, r6
 800029e:	3803      	subeq	r0, #3
 80002a0:	3807      	subne	r0, #7
 80002a2:	f015 0f01 	tst.w	r5, #1
 80002a6:	d107      	bne.n	80002b8 <memchr+0x98>
 80002a8:	3001      	adds	r0, #1
 80002aa:	f415 7f80 	tst.w	r5, #256	; 0x100
 80002ae:	bf02      	ittt	eq
 80002b0:	3001      	addeq	r0, #1
 80002b2:	f415 3fc0 	tsteq.w	r5, #98304	; 0x18000
 80002b6:	3001      	addeq	r0, #1
 80002b8:	bcf0      	pop	{r4, r5, r6, r7}
 80002ba:	3801      	subs	r0, #1
 80002bc:	4770      	bx	lr
 80002be:	bf00      	nop

080002c0 <__aeabi_drsub>:
 80002c0:	f081 4100 	eor.w	r1, r1, #2147483648	; 0x80000000
 80002c4:	e002      	b.n	80002cc <__adddf3>
 80002c6:	bf00      	nop

080002c8 <__aeabi_dsub>:
 80002c8:	f083 4300 	eor.w	r3, r3, #2147483648	; 0x80000000

080002cc <__adddf3>:
 80002cc:	b530      	push	{r4, r5, lr}
 80002ce:	ea4f 0441 	mov.w	r4, r1, lsl #1
 80002d2:	ea4f 0543 	mov.w	r5, r3, lsl #1
 80002d6:	ea94 0f05 	teq	r4, r5
 80002da:	bf08      	it	eq
 80002dc:	ea90 0f02 	teqeq	r0, r2
 80002e0:	bf1f      	itttt	ne
 80002e2:	ea54 0c00 	orrsne.w	ip, r4, r0
 80002e6:	ea55 0c02 	orrsne.w	ip, r5, r2
 80002ea:	ea7f 5c64 	mvnsne.w	ip, r4, asr #21
 80002ee:	ea7f 5c65 	mvnsne.w	ip, r5, asr #21
 80002f2:	f000 80e2 	beq.w	80004ba <__adddf3+0x1ee>
 80002f6:	ea4f 5454 	mov.w	r4, r4, lsr #21
 80002fa:	ebd4 5555 	rsbs	r5, r4, r5, lsr #21
 80002fe:	bfb8      	it	lt
 8000300:	426d      	neglt	r5, r5
 8000302:	dd0c      	ble.n	800031e <__adddf3+0x52>
 8000304:	442c      	add	r4, r5
 8000306:	ea80 0202 	eor.w	r2, r0, r2
 800030a:	ea81 0303 	eor.w	r3, r1, r3
 800030e:	ea82 0000 	eor.w	r0, r2, r0
 8000312:	ea83 0101 	eor.w	r1, r3, r1
 8000316:	ea80 0202 	eor.w	r2, r0, r2
 800031a:	ea81 0303 	eor.w	r3, r1, r3
 800031e:	2d36      	cmp	r5, #54	; 0x36
 8000320:	bf88      	it	hi
 8000322:	bd30      	pophi	{r4, r5, pc}
 8000324:	f011 4f00 	tst.w	r1, #2147483648	; 0x80000000
 8000328:	ea4f 3101 	mov.w	r1, r1, lsl #12
 800032c:	f44f 1c80 	mov.w	ip, #1048576	; 0x100000
 8000330:	ea4c 3111 	orr.w	r1, ip, r1, lsr #12
 8000334:	d002      	beq.n	800033c <__adddf3+0x70>
 8000336:	4240      	negs	r0, r0
 8000338:	eb61 0141 	sbc.w	r1, r1, r1, lsl #1
 800033c:	f013 4f00 	tst.w	r3, #2147483648	; 0x80000000
 8000340:	ea4f 3303 	mov.w	r3, r3, lsl #12
 8000344:	ea4c 3313 	orr.w	r3, ip, r3, lsr #12
 8000348:	d002      	beq.n	8000350 <__adddf3+0x84>
 800034a:	4252      	negs	r2, r2
 800034c:	eb63 0343 	sbc.w	r3, r3, r3, lsl #1
 8000350:	ea94 0f05 	teq	r4, r5
 8000354:	f000 80a7 	beq.w	80004a6 <__adddf3+0x1da>
 8000358:	f1a4 0401 	sub.w	r4, r4, #1
 800035c:	f1d5 0e20 	rsbs	lr, r5, #32
 8000360:	db0d      	blt.n	800037e <__adddf3+0xb2>
 8000362:	fa02 fc0e 	lsl.w	ip, r2, lr
 8000366:	fa22 f205 	lsr.w	r2, r2, r5
 800036a:	1880      	adds	r0, r0, r2
 800036c:	f141 0100 	adc.w	r1, r1, #0
 8000370:	fa03 f20e 	lsl.w	r2, r3, lr
 8000374:	1880      	adds	r0, r0, r2
 8000376:	fa43 f305 	asr.w	r3, r3, r5
 800037a:	4159      	adcs	r1, r3
 800037c:	e00e      	b.n	800039c <__adddf3+0xd0>
 800037e:	f1a5 0520 	sub.w	r5, r5, #32
 8000382:	f10e 0e20 	add.w	lr, lr, #32
 8000386:	2a01      	cmp	r2, #1
 8000388:	fa03 fc0e 	lsl.w	ip, r3, lr
 800038c:	bf28      	it	cs
 800038e:	f04c 0c02 	orrcs.w	ip, ip, #2
 8000392:	fa43 f305 	asr.w	r3, r3, r5
 8000396:	18c0      	adds	r0, r0, r3
 8000398:	eb51 71e3 	adcs.w	r1, r1, r3, asr #31
 800039c:	f001 4500 	and.w	r5, r1, #2147483648	; 0x80000000
 80003a0:	d507      	bpl.n	80003b2 <__adddf3+0xe6>
 80003a2:	f04f 0e00 	mov.w	lr, #0
 80003a6:	f1dc 0c00 	rsbs	ip, ip, #0
 80003aa:	eb7e 0000 	sbcs.w	r0, lr, r0
 80003ae:	eb6e 0101 	sbc.w	r1, lr, r1
 80003b2:	f5b1 1f80 	cmp.w	r1, #1048576	; 0x100000
 80003b6:	d31b      	bcc.n	80003f0 <__adddf3+0x124>
 80003b8:	f5b1 1f00 	cmp.w	r1, #2097152	; 0x200000
 80003bc:	d30c      	bcc.n	80003d8 <__adddf3+0x10c>
 80003be:	0849      	lsrs	r1, r1, #1
 80003c0:	ea5f 0030 	movs.w	r0, r0, rrx
 80003c4:	ea4f 0c3c 	mov.w	ip, ip, rrx
 80003c8:	f104 0401 	add.w	r4, r4, #1
 80003cc:	ea4f 5244 	mov.w	r2, r4, lsl #21
 80003d0:	f512 0f80 	cmn.w	r2, #4194304	; 0x400000
 80003d4:	f080 809a 	bcs.w	800050c <__adddf3+0x240>
 80003d8:	f1bc 4f00 	cmp.w	ip, #2147483648	; 0x80000000
 80003dc:	bf08      	it	eq
 80003de:	ea5f 0c50 	movseq.w	ip, r0, lsr #1
 80003e2:	f150 0000 	adcs.w	r0, r0, #0
 80003e6:	eb41 5104 	adc.w	r1, r1, r4, lsl #20
 80003ea:	ea41 0105 	orr.w	r1, r1, r5
 80003ee:	bd30      	pop	{r4, r5, pc}
 80003f0:	ea5f 0c4c 	movs.w	ip, ip, lsl #1
 80003f4:	4140      	adcs	r0, r0
 80003f6:	eb41 0101 	adc.w	r1, r1, r1
 80003fa:	f411 1f80 	tst.w	r1, #1048576	; 0x100000
 80003fe:	f1a4 0401 	sub.w	r4, r4, #1
 8000402:	d1e9      	bne.n	80003d8 <__adddf3+0x10c>
 8000404:	f091 0f00 	teq	r1, #0
 8000408:	bf04      	itt	eq
 800040a:	4601      	moveq	r1, r0
 800040c:	2000      	moveq	r0, #0
 800040e:	fab1 f381 	clz	r3, r1
 8000412:	bf08      	it	eq
 8000414:	3320      	addeq	r3, #32
 8000416:	f1a3 030b 	sub.w	r3, r3, #11
 800041a:	f1b3 0220 	subs.w	r2, r3, #32
 800041e:	da0c      	bge.n	800043a <__adddf3+0x16e>
 8000420:	320c      	adds	r2, #12
 8000422:	dd08      	ble.n	8000436 <__adddf3+0x16a>
 8000424:	f102 0c14 	add.w	ip, r2, #20
 8000428:	f1c2 020c 	rsb	r2, r2, #12
 800042c:	fa01 f00c 	lsl.w	r0, r1, ip
 8000430:	fa21 f102 	lsr.w	r1, r1, r2
 8000434:	e00c      	b.n	8000450 <__adddf3+0x184>
 8000436:	f102 0214 	add.w	r2, r2, #20
 800043a:	bfd8      	it	le
 800043c:	f1c2 0c20 	rsble	ip, r2, #32
 8000440:	fa01 f102 	lsl.w	r1, r1, r2
 8000444:	fa20 fc0c 	lsr.w	ip, r0, ip
 8000448:	bfdc      	itt	le
 800044a:	ea41 010c 	orrle.w	r1, r1, ip
 800044e:	4090      	lslle	r0, r2
 8000450:	1ae4      	subs	r4, r4, r3
 8000452:	bfa2      	ittt	ge
 8000454:	eb01 5104 	addge.w	r1, r1, r4, lsl #20
 8000458:	4329      	orrge	r1, r5
 800045a:	bd30      	popge	{r4, r5, pc}
 800045c:	ea6f 0404 	mvn.w	r4, r4
 8000460:	3c1f      	subs	r4, #31
 8000462:	da1c      	bge.n	800049e <__adddf3+0x1d2>
 8000464:	340c      	adds	r4, #12
 8000466:	dc0e      	bgt.n	8000486 <__adddf3+0x1ba>
 8000468:	f104 0414 	add.w	r4, r4, #20
 800046c:	f1c4 0220 	rsb	r2, r4, #32
 8000470:	fa20 f004 	lsr.w	r0, r0, r4
 8000474:	fa01 f302 	lsl.w	r3, r1, r2
 8000478:	ea40 0003 	orr.w	r0, r0, r3
 800047c:	fa21 f304 	lsr.w	r3, r1, r4
 8000480:	ea45 0103 	orr.w	r1, r5, r3
 8000484:	bd30      	pop	{r4, r5, pc}
 8000486:	f1c4 040c 	rsb	r4, r4, #12
 800048a:	f1c4 0220 	rsb	r2, r4, #32
 800048e:	fa20 f002 	lsr.w	r0, r0, r2
 8000492:	fa01 f304 	lsl.w	r3, r1, r4
 8000496:	ea40 0003 	orr.w	r0, r0, r3
 800049a:	4629      	mov	r1, r5
 800049c:	bd30      	pop	{r4, r5, pc}
 800049e:	fa21 f004 	lsr.w	r0, r1, r4
 80004a2:	4629      	mov	r1, r5
 80004a4:	bd30      	pop	{r4, r5, pc}
 80004a6:	f094 0f00 	teq	r4, #0
 80004aa:	f483 1380 	eor.w	r3, r3, #1048576	; 0x100000
 80004ae:	bf06      	itte	eq
 80004b0:	f481 1180 	eoreq.w	r1, r1, #1048576	; 0x100000
 80004b4:	3401      	addeq	r4, #1
 80004b6:	3d01      	subne	r5, #1
 80004b8:	e74e      	b.n	8000358 <__adddf3+0x8c>
 80004ba:	ea7f 5c64 	mvns.w	ip, r4, asr #21
 80004be:	bf18      	it	ne
 80004c0:	ea7f 5c65 	mvnsne.w	ip, r5, asr #21
 80004c4:	d029      	beq.n	800051a <__adddf3+0x24e>
 80004c6:	ea94 0f05 	teq	r4, r5
 80004ca:	bf08      	it	eq
 80004cc:	ea90 0f02 	teqeq	r0, r2
 80004d0:	d005      	beq.n	80004de <__adddf3+0x212>
 80004d2:	ea54 0c00 	orrs.w	ip, r4, r0
 80004d6:	bf04      	itt	eq
 80004d8:	4619      	moveq	r1, r3
 80004da:	4610      	moveq	r0, r2
 80004dc:	bd30      	pop	{r4, r5, pc}
 80004de:	ea91 0f03 	teq	r1, r3
 80004e2:	bf1e      	ittt	ne
 80004e4:	2100      	movne	r1, #0
 80004e6:	2000      	movne	r0, #0
 80004e8:	bd30      	popne	{r4, r5, pc}
 80004ea:	ea5f 5c54 	movs.w	ip, r4, lsr #21
 80004ee:	d105      	bne.n	80004fc <__adddf3+0x230>
 80004f0:	0040      	lsls	r0, r0, #1
 80004f2:	4149      	adcs	r1, r1
 80004f4:	bf28      	it	cs
 80004f6:	f041 4100 	orrcs.w	r1, r1, #2147483648	; 0x80000000
 80004fa:	bd30      	pop	{r4, r5, pc}
 80004fc:	f514 0480 	adds.w	r4, r4, #4194304	; 0x400000
 8000500:	bf3c      	itt	cc
 8000502:	f501 1180 	addcc.w	r1, r1, #1048576	; 0x100000
 8000506:	bd30      	popcc	{r4, r5, pc}
 8000508:	f001 4500 	and.w	r5, r1, #2147483648	; 0x80000000
 800050c:	f045 41fe 	orr.w	r1, r5, #2130706432	; 0x7f000000
 8000510:	f441 0170 	orr.w	r1, r1, #15728640	; 0xf00000
 8000514:	f04f 0000 	mov.w	r0, #0
 8000518:	bd30      	pop	{r4, r5, pc}
 800051a:	ea7f 5c64 	mvns.w	ip, r4, asr #21
 800051e:	bf1a      	itte	ne
 8000520:	4619      	movne	r1, r3
 8000522:	4610      	movne	r0, r2
 8000524:	ea7f 5c65 	mvnseq.w	ip, r5, asr #21
 8000528:	bf1c      	itt	ne
 800052a:	460b      	movne	r3, r1
 800052c:	4602      	movne	r2, r0
 800052e:	ea50 3401 	orrs.w	r4, r0, r1, lsl #12
 8000532:	bf06      	itte	eq
 8000534:	ea52 3503 	orrseq.w	r5, r2, r3, lsl #12
 8000538:	ea91 0f03 	teqeq	r1, r3
 800053c:	f441 2100 	orrne.w	r1, r1, #524288	; 0x80000
 8000540:	bd30      	pop	{r4, r5, pc}
 8000542:	bf00      	nop

08000544 <__aeabi_ui2d>:
 8000544:	f090 0f00 	teq	r0, #0
 8000548:	bf04      	itt	eq
 800054a:	2100      	moveq	r1, #0
 800054c:	4770      	bxeq	lr
 800054e:	b530      	push	{r4, r5, lr}
 8000550:	f44f 6480 	mov.w	r4, #1024	; 0x400
 8000554:	f104 0432 	add.w	r4, r4, #50	; 0x32
 8000558:	f04f 0500 	mov.w	r5, #0
 800055c:	f04f 0100 	mov.w	r1, #0
 8000560:	e750      	b.n	8000404 <__adddf3+0x138>
 8000562:	bf00      	nop

08000564 <__aeabi_i2d>:
 8000564:	f090 0f00 	teq	r0, #0
 8000568:	bf04      	itt	eq
 800056a:	2100      	moveq	r1, #0
 800056c:	4770      	bxeq	lr
 800056e:	b530      	push	{r4, r5, lr}
 8000570:	f44f 6480 	mov.w	r4, #1024	; 0x400
 8000574:	f104 0432 	add.w	r4, r4, #50	; 0x32
 8000578:	f010 4500 	ands.w	r5, r0, #2147483648	; 0x80000000
 800057c:	bf48      	it	mi
 800057e:	4240      	negmi	r0, r0
 8000580:	f04f 0100 	mov.w	r1, #0
 8000584:	e73e      	b.n	8000404 <__adddf3+0x138>
 8000586:	bf00      	nop

08000588 <__aeabi_f2d>:
 8000588:	0042      	lsls	r2, r0, #1
 800058a:	ea4f 01e2 	mov.w	r1, r2, asr #3
 800058e:	ea4f 0131 	mov.w	r1, r1, rrx
 8000592:	ea4f 7002 	mov.w	r0, r2, lsl #28
 8000596:	bf1f      	itttt	ne
 8000598:	f012 437f 	andsne.w	r3, r2, #4278190080	; 0xff000000
 800059c:	f093 4f7f 	teqne	r3, #4278190080	; 0xff000000
 80005a0:	f081 5160 	eorne.w	r1, r1, #939524096	; 0x38000000
 80005a4:	4770      	bxne	lr
 80005a6:	f032 427f 	bics.w	r2, r2, #4278190080	; 0xff000000
 80005aa:	bf08      	it	eq
 80005ac:	4770      	bxeq	lr
 80005ae:	f093 4f7f 	teq	r3, #4278190080	; 0xff000000
 80005b2:	bf04      	itt	eq
 80005b4:	f441 2100 	orreq.w	r1, r1, #524288	; 0x80000
 80005b8:	4770      	bxeq	lr
 80005ba:	b530      	push	{r4, r5, lr}
 80005bc:	f44f 7460 	mov.w	r4, #896	; 0x380
 80005c0:	f001 4500 	and.w	r5, r1, #2147483648	; 0x80000000
 80005c4:	f021 4100 	bic.w	r1, r1, #2147483648	; 0x80000000
 80005c8:	e71c      	b.n	8000404 <__adddf3+0x138>
 80005ca:	bf00      	nop

080005cc <__aeabi_ul2d>:
 80005cc:	ea50 0201 	orrs.w	r2, r0, r1
 80005d0:	bf08      	it	eq
 80005d2:	4770      	bxeq	lr
 80005d4:	b530      	push	{r4, r5, lr}
 80005d6:	f04f 0500 	mov.w	r5, #0
 80005da:	e00a      	b.n	80005f2 <__aeabi_l2d+0x16>

080005dc <__aeabi_l2d>:
 80005dc:	ea50 0201 	orrs.w	r2, r0, r1
 80005e0:	bf08      	it	eq
 80005e2:	4770      	bxeq	lr
 80005e4:	b530      	push	{r4, r5, lr}
 80005e6:	f011 4500 	ands.w	r5, r1, #2147483648	; 0x80000000
 80005ea:	d502      	bpl.n	80005f2 <__aeabi_l2d+0x16>
 80005ec:	4240      	negs	r0, r0
 80005ee:	eb61 0141 	sbc.w	r1, r1, r1, lsl #1
 80005f2:	f44f 6480 	mov.w	r4, #1024	; 0x400
 80005f6:	f104 0432 	add.w	r4, r4, #50	; 0x32
 80005fa:	ea5f 5c91 	movs.w	ip, r1, lsr #22
 80005fe:	f43f aed8 	beq.w	80003b2 <__adddf3+0xe6>
 8000602:	f04f 0203 	mov.w	r2, #3
 8000606:	ea5f 0cdc 	movs.w	ip, ip, lsr #3
 800060a:	bf18      	it	ne
 800060c:	3203      	addne	r2, #3
 800060e:	ea5f 0cdc 	movs.w	ip, ip, lsr #3
 8000612:	bf18      	it	ne
 8000614:	3203      	addne	r2, #3
 8000616:	eb02 02dc 	add.w	r2, r2, ip, lsr #3
 800061a:	f1c2 0320 	rsb	r3, r2, #32
 800061e:	fa00 fc03 	lsl.w	ip, r0, r3
 8000622:	fa20 f002 	lsr.w	r0, r0, r2
 8000626:	fa01 fe03 	lsl.w	lr, r1, r3
 800062a:	ea40 000e 	orr.w	r0, r0, lr
 800062e:	fa21 f102 	lsr.w	r1, r1, r2
 8000632:	4414      	add	r4, r2
 8000634:	e6bd      	b.n	80003b2 <__adddf3+0xe6>
 8000636:	bf00      	nop

08000638 <__aeabi_dmul>:
 8000638:	b570      	push	{r4, r5, r6, lr}
 800063a:	f04f 0cff 	mov.w	ip, #255	; 0xff
 800063e:	f44c 6ce0 	orr.w	ip, ip, #1792	; 0x700
 8000642:	ea1c 5411 	ands.w	r4, ip, r1, lsr #20
 8000646:	bf1d      	ittte	ne
 8000648:	ea1c 5513 	andsne.w	r5, ip, r3, lsr #20
 800064c:	ea94 0f0c 	teqne	r4, ip
 8000650:	ea95 0f0c 	teqne	r5, ip
 8000654:	f000 f8de 	bleq	8000814 <__aeabi_dmul+0x1dc>
 8000658:	442c      	add	r4, r5
 800065a:	ea81 0603 	eor.w	r6, r1, r3
 800065e:	ea21 514c 	bic.w	r1, r1, ip, lsl #21
 8000662:	ea23 534c 	bic.w	r3, r3, ip, lsl #21
 8000666:	ea50 3501 	orrs.w	r5, r0, r1, lsl #12
 800066a:	bf18      	it	ne
 800066c:	ea52 3503 	orrsne.w	r5, r2, r3, lsl #12
 8000670:	f441 1180 	orr.w	r1, r1, #1048576	; 0x100000
 8000674:	f443 1380 	orr.w	r3, r3, #1048576	; 0x100000
 8000678:	d038      	beq.n	80006ec <__aeabi_dmul+0xb4>
 800067a:	fba0 ce02 	umull	ip, lr, r0, r2
 800067e:	f04f 0500 	mov.w	r5, #0
 8000682:	fbe1 e502 	umlal	lr, r5, r1, r2
 8000686:	f006 4200 	and.w	r2, r6, #2147483648	; 0x80000000
 800068a:	fbe0 e503 	umlal	lr, r5, r0, r3
 800068e:	f04f 0600 	mov.w	r6, #0
 8000692:	fbe1 5603 	umlal	r5, r6, r1, r3
 8000696:	f09c 0f00 	teq	ip, #0
 800069a:	bf18      	it	ne
 800069c:	f04e 0e01 	orrne.w	lr, lr, #1
 80006a0:	f1a4 04ff 	sub.w	r4, r4, #255	; 0xff
 80006a4:	f5b6 7f00 	cmp.w	r6, #512	; 0x200
 80006a8:	f564 7440 	sbc.w	r4, r4, #768	; 0x300
 80006ac:	d204      	bcs.n	80006b8 <__aeabi_dmul+0x80>
 80006ae:	ea5f 0e4e 	movs.w	lr, lr, lsl #1
 80006b2:	416d      	adcs	r5, r5
 80006b4:	eb46 0606 	adc.w	r6, r6, r6
 80006b8:	ea42 21c6 	orr.w	r1, r2, r6, lsl #11
 80006bc:	ea41 5155 	orr.w	r1, r1, r5, lsr #21
 80006c0:	ea4f 20c5 	mov.w	r0, r5, lsl #11
 80006c4:	ea40 505e 	orr.w	r0, r0, lr, lsr #21
 80006c8:	ea4f 2ece 	mov.w	lr, lr, lsl #11
 80006cc:	f1b4 0cfd 	subs.w	ip, r4, #253	; 0xfd
 80006d0:	bf88      	it	hi
 80006d2:	f5bc 6fe0 	cmphi.w	ip, #1792	; 0x700
 80006d6:	d81e      	bhi.n	8000716 <__aeabi_dmul+0xde>
 80006d8:	f1be 4f00 	cmp.w	lr, #2147483648	; 0x80000000
 80006dc:	bf08      	it	eq
 80006de:	ea5f 0e50 	movseq.w	lr, r0, lsr #1
 80006e2:	f150 0000 	adcs.w	r0, r0, #0
 80006e6:	eb41 5104 	adc.w	r1, r1, r4, lsl #20
 80006ea:	bd70      	pop	{r4, r5, r6, pc}
 80006ec:	f006 4600 	and.w	r6, r6, #2147483648	; 0x80000000
 80006f0:	ea46 0101 	orr.w	r1, r6, r1
 80006f4:	ea40 0002 	orr.w	r0, r0, r2
 80006f8:	ea81 0103 	eor.w	r1, r1, r3
 80006fc:	ebb4 045c 	subs.w	r4, r4, ip, lsr #1
 8000700:	bfc2      	ittt	gt
 8000702:	ebd4 050c 	rsbsgt	r5, r4, ip
 8000706:	ea41 5104 	orrgt.w	r1, r1, r4, lsl #20
 800070a:	bd70      	popgt	{r4, r5, r6, pc}
 800070c:	f441 1180 	orr.w	r1, r1, #1048576	; 0x100000
 8000710:	f04f 0e00 	mov.w	lr, #0
 8000714:	3c01      	subs	r4, #1
 8000716:	f300 80ab 	bgt.w	8000870 <__aeabi_dmul+0x238>
 800071a:	f114 0f36 	cmn.w	r4, #54	; 0x36
 800071e:	bfde      	ittt	le
 8000720:	2000      	movle	r0, #0
 8000722:	f001 4100 	andle.w	r1, r1, #2147483648	; 0x80000000
 8000726:	bd70      	pople	{r4, r5, r6, pc}
 8000728:	f1c4 0400 	rsb	r4, r4, #0
 800072c:	3c20      	subs	r4, #32
 800072e:	da35      	bge.n	800079c <__aeabi_dmul+0x164>
 8000730:	340c      	adds	r4, #12
 8000732:	dc1b      	bgt.n	800076c <__aeabi_dmul+0x134>
 8000734:	f104 0414 	add.w	r4, r4, #20
 8000738:	f1c4 0520 	rsb	r5, r4, #32
 800073c:	fa00 f305 	lsl.w	r3, r0, r5
 8000740:	fa20 f004 	lsr.w	r0, r0, r4
 8000744:	fa01 f205 	lsl.w	r2, r1, r5
 8000748:	ea40 0002 	orr.w	r0, r0, r2
 800074c:	f001 4200 	and.w	r2, r1, #2147483648	; 0x80000000
 8000750:	f021 4100 	bic.w	r1, r1, #2147483648	; 0x80000000
 8000754:	eb10 70d3 	adds.w	r0, r0, r3, lsr #31
 8000758:	fa21 f604 	lsr.w	r6, r1, r4
 800075c:	eb42 0106 	adc.w	r1, r2, r6
 8000760:	ea5e 0e43 	orrs.w	lr, lr, r3, lsl #1
 8000764:	bf08      	it	eq
 8000766:	ea20 70d3 	biceq.w	r0, r0, r3, lsr #31
 800076a:	bd70      	pop	{r4, r5, r6, pc}
 800076c:	f1c4 040c 	rsb	r4, r4, #12
 8000770:	f1c4 0520 	rsb	r5, r4, #32
 8000774:	fa00 f304 	lsl.w	r3, r0, r4
 8000778:	fa20 f005 	lsr.w	r0, r0, r5
 800077c:	fa01 f204 	lsl.w	r2, r1, r4
 8000780:	ea40 0002 	orr.w	r0, r0, r2
 8000784:	f001 4100 	and.w	r1, r1, #2147483648	; 0x80000000
 8000788:	eb10 70d3 	adds.w	r0, r0, r3, lsr #31
 800078c:	f141 0100 	adc.w	r1, r1, #0
 8000790:	ea5e 0e43 	orrs.w	lr, lr, r3, lsl #1
 8000794:	bf08      	it	eq
 8000796:	ea20 70d3 	biceq.w	r0, r0, r3, lsr #31
 800079a:	bd70      	pop	{r4, r5, r6, pc}
 800079c:	f1c4 0520 	rsb	r5, r4, #32
 80007a0:	fa00 f205 	lsl.w	r2, r0, r5
 80007a4:	ea4e 0e02 	orr.w	lr, lr, r2
 80007a8:	fa20 f304 	lsr.w	r3, r0, r4
 80007ac:	fa01 f205 	lsl.w	r2, r1, r5
 80007b0:	ea43 0302 	orr.w	r3, r3, r2
 80007b4:	fa21 f004 	lsr.w	r0, r1, r4
 80007b8:	f001 4100 	and.w	r1, r1, #2147483648	; 0x80000000
 80007bc:	fa21 f204 	lsr.w	r2, r1, r4
 80007c0:	ea20 0002 	bic.w	r0, r0, r2
 80007c4:	eb00 70d3 	add.w	r0, r0, r3, lsr #31
 80007c8:	ea5e 0e43 	orrs.w	lr, lr, r3, lsl #1
 80007cc:	bf08      	it	eq
 80007ce:	ea20 70d3 	biceq.w	r0, r0, r3, lsr #31
 80007d2:	bd70      	pop	{r4, r5, r6, pc}
 80007d4:	f094 0f00 	teq	r4, #0
 80007d8:	d10f      	bne.n	80007fa <__aeabi_dmul+0x1c2>
 80007da:	f001 4600 	and.w	r6, r1, #2147483648	; 0x80000000
 80007de:	0040      	lsls	r0, r0, #1
 80007e0:	eb41 0101 	adc.w	r1, r1, r1
 80007e4:	f411 1f80 	tst.w	r1, #1048576	; 0x100000
 80007e8:	bf08      	it	eq
 80007ea:	3c01      	subeq	r4, #1
 80007ec:	d0f7      	beq.n	80007de <__aeabi_dmul+0x1a6>
 80007ee:	ea41 0106 	orr.w	r1, r1, r6
 80007f2:	f095 0f00 	teq	r5, #0
 80007f6:	bf18      	it	ne
 80007f8:	4770      	bxne	lr
 80007fa:	f003 4600 	and.w	r6, r3, #2147483648	; 0x80000000
 80007fe:	0052      	lsls	r2, r2, #1
 8000800:	eb43 0303 	adc.w	r3, r3, r3
 8000804:	f413 1f80 	tst.w	r3, #1048576	; 0x100000
 8000808:	bf08      	it	eq
 800080a:	3d01      	subeq	r5, #1
 800080c:	d0f7      	beq.n	80007fe <__aeabi_dmul+0x1c6>
 800080e:	ea43 0306 	orr.w	r3, r3, r6
 8000812:	4770      	bx	lr
 8000814:	ea94 0f0c 	teq	r4, ip
 8000818:	ea0c 5513 	and.w	r5, ip, r3, lsr #20
 800081c:	bf18      	it	ne
 800081e:	ea95 0f0c 	teqne	r5, ip
 8000822:	d00c      	beq.n	800083e <__aeabi_dmul+0x206>
 8000824:	ea50 0641 	orrs.w	r6, r0, r1, lsl #1
 8000828:	bf18      	it	ne
 800082a:	ea52 0643 	orrsne.w	r6, r2, r3, lsl #1
 800082e:	d1d1      	bne.n	80007d4 <__aeabi_dmul+0x19c>
 8000830:	ea81 0103 	eor.w	r1, r1, r3
 8000834:	f001 4100 	and.w	r1, r1, #2147483648	; 0x80000000
 8000838:	f04f 0000 	mov.w	r0, #0
 800083c:	bd70      	pop	{r4, r5, r6, pc}
 800083e:	ea50 0641 	orrs.w	r6, r0, r1, lsl #1
 8000842:	bf06      	itte	eq
 8000844:	4610      	moveq	r0, r2
 8000846:	4619      	moveq	r1, r3
 8000848:	ea52 0643 	orrsne.w	r6, r2, r3, lsl #1
 800084c:	d019      	beq.n	8000882 <__aeabi_dmul+0x24a>
 800084e:	ea94 0f0c 	teq	r4, ip
 8000852:	d102      	bne.n	800085a <__aeabi_dmul+0x222>
 8000854:	ea50 3601 	orrs.w	r6, r0, r1, lsl #12
 8000858:	d113      	bne.n	8000882 <__aeabi_dmul+0x24a>
 800085a:	ea95 0f0c 	teq	r5, ip
 800085e:	d105      	bne.n	800086c <__aeabi_dmul+0x234>
 8000860:	ea52 3603 	orrs.w	r6, r2, r3, lsl #12
 8000864:	bf1c      	itt	ne
 8000866:	4610      	movne	r0, r2
 8000868:	4619      	movne	r1, r3
 800086a:	d10a      	bne.n	8000882 <__aeabi_dmul+0x24a>
 800086c:	ea81 0103 	eor.w	r1, r1, r3
 8000870:	f001 4100 	and.w	r1, r1, #2147483648	; 0x80000000
 8000874:	f041 41fe 	orr.w	r1, r1, #2130706432	; 0x7f000000
 8000878:	f441 0170 	orr.w	r1, r1, #15728640	; 0xf00000
 800087c:	f04f 0000 	mov.w	r0, #0
 8000880:	bd70      	pop	{r4, r5, r6, pc}
 8000882:	f041 41fe 	orr.w	r1, r1, #2130706432	; 0x7f000000
 8000886:	f441 0178 	orr.w	r1, r1, #16252928	; 0xf80000
 800088a:	bd70      	pop	{r4, r5, r6, pc}

0800088c <__aeabi_ddiv>:
 800088c:	b570      	push	{r4, r5, r6, lr}
 800088e:	f04f 0cff 	mov.w	ip, #255	; 0xff
 8000892:	f44c 6ce0 	orr.w	ip, ip, #1792	; 0x700
 8000896:	ea1c 5411 	ands.w	r4, ip, r1, lsr #20
 800089a:	bf1d      	ittte	ne
 800089c:	ea1c 5513 	andsne.w	r5, ip, r3, lsr #20
 80008a0:	ea94 0f0c 	teqne	r4, ip
 80008a4:	ea95 0f0c 	teqne	r5, ip
 80008a8:	f000 f8a7 	bleq	80009fa <__aeabi_ddiv+0x16e>
 80008ac:	eba4 0405 	sub.w	r4, r4, r5
 80008b0:	ea81 0e03 	eor.w	lr, r1, r3
 80008b4:	ea52 3503 	orrs.w	r5, r2, r3, lsl #12
 80008b8:	ea4f 3101 	mov.w	r1, r1, lsl #12
 80008bc:	f000 8088 	beq.w	80009d0 <__aeabi_ddiv+0x144>
 80008c0:	ea4f 3303 	mov.w	r3, r3, lsl #12
 80008c4:	f04f 5580 	mov.w	r5, #268435456	; 0x10000000
 80008c8:	ea45 1313 	orr.w	r3, r5, r3, lsr #4
 80008cc:	ea43 6312 	orr.w	r3, r3, r2, lsr #24
 80008d0:	ea4f 2202 	mov.w	r2, r2, lsl #8
 80008d4:	ea45 1511 	orr.w	r5, r5, r1, lsr #4
 80008d8:	ea45 6510 	orr.w	r5, r5, r0, lsr #24
 80008dc:	ea4f 2600 	mov.w	r6, r0, lsl #8
 80008e0:	f00e 4100 	and.w	r1, lr, #2147483648	; 0x80000000
 80008e4:	429d      	cmp	r5, r3
 80008e6:	bf08      	it	eq
 80008e8:	4296      	cmpeq	r6, r2
 80008ea:	f144 04fd 	adc.w	r4, r4, #253	; 0xfd
 80008ee:	f504 7440 	add.w	r4, r4, #768	; 0x300
 80008f2:	d202      	bcs.n	80008fa <__aeabi_ddiv+0x6e>
 80008f4:	085b      	lsrs	r3, r3, #1
 80008f6:	ea4f 0232 	mov.w	r2, r2, rrx
 80008fa:	1ab6      	subs	r6, r6, r2
 80008fc:	eb65 0503 	sbc.w	r5, r5, r3
 8000900:	085b      	lsrs	r3, r3, #1
 8000902:	ea4f 0232 	mov.w	r2, r2, rrx
 8000906:	f44f 1080 	mov.w	r0, #1048576	; 0x100000
 800090a:	f44f 2c00 	mov.w	ip, #524288	; 0x80000
 800090e:	ebb6 0e02 	subs.w	lr, r6, r2
 8000912:	eb75 0e03 	sbcs.w	lr, r5, r3
 8000916:	bf22      	ittt	cs
 8000918:	1ab6      	subcs	r6, r6, r2
 800091a:	4675      	movcs	r5, lr
 800091c:	ea40 000c 	orrcs.w	r0, r0, ip
 8000920:	085b      	lsrs	r3, r3, #1
 8000922:	ea4f 0232 	mov.w	r2, r2, rrx
 8000926:	ebb6 0e02 	subs.w	lr, r6, r2
 800092a:	eb75 0e03 	sbcs.w	lr, r5, r3
 800092e:	bf22      	ittt	cs
 8000930:	1ab6      	subcs	r6, r6, r2
 8000932:	4675      	movcs	r5, lr
 8000934:	ea40 005c 	orrcs.w	r0, r0, ip, lsr #1
 8000938:	085b      	lsrs	r3, r3, #1
 800093a:	ea4f 0232 	mov.w	r2, r2, rrx
 800093e:	ebb6 0e02 	subs.w	lr, r6, r2
 8000942:	eb75 0e03 	sbcs.w	lr, r5, r3
 8000946:	bf22      	ittt	cs
 8000948:	1ab6      	subcs	r6, r6, r2
 800094a:	4675      	movcs	r5, lr
 800094c:	ea40 009c 	orrcs.w	r0, r0, ip, lsr #2
 8000950:	085b      	lsrs	r3, r3, #1
 8000952:	ea4f 0232 	mov.w	r2, r2, rrx
 8000956:	ebb6 0e02 	subs.w	lr, r6, r2
 800095a:	eb75 0e03 	sbcs.w	lr, r5, r3
 800095e:	bf22      	ittt	cs
 8000960:	1ab6      	subcs	r6, r6, r2
 8000962:	4675      	movcs	r5, lr
 8000964:	ea40 00dc 	orrcs.w	r0, r0, ip, lsr #3
 8000968:	ea55 0e06 	orrs.w	lr, r5, r6
 800096c:	d018      	beq.n	80009a0 <__aeabi_ddiv+0x114>
 800096e:	ea4f 1505 	mov.w	r5, r5, lsl #4
 8000972:	ea45 7516 	orr.w	r5, r5, r6, lsr #28
 8000976:	ea4f 1606 	mov.w	r6, r6, lsl #4
 800097a:	ea4f 03c3 	mov.w	r3, r3, lsl #3
 800097e:	ea43 7352 	orr.w	r3, r3, r2, lsr #29
 8000982:	ea4f 02c2 	mov.w	r2, r2, lsl #3
 8000986:	ea5f 1c1c 	movs.w	ip, ip, lsr #4
 800098a:	d1c0      	bne.n	800090e <__aeabi_ddiv+0x82>
 800098c:	f411 1f80 	tst.w	r1, #1048576	; 0x100000
 8000990:	d10b      	bne.n	80009aa <__aeabi_ddiv+0x11e>
 8000992:	ea41 0100 	orr.w	r1, r1, r0
 8000996:	f04f 0000 	mov.w	r0, #0
 800099a:	f04f 4c00 	mov.w	ip, #2147483648	; 0x80000000
 800099e:	e7b6      	b.n	800090e <__aeabi_ddiv+0x82>
 80009a0:	f411 1f80 	tst.w	r1, #1048576	; 0x100000
 80009a4:	bf04      	itt	eq
 80009a6:	4301      	orreq	r1, r0
 80009a8:	2000      	moveq	r0, #0
 80009aa:	f1b4 0cfd 	subs.w	ip, r4, #253	; 0xfd
 80009ae:	bf88      	it	hi
 80009b0:	f5bc 6fe0 	cmphi.w	ip, #1792	; 0x700
 80009b4:	f63f aeaf 	bhi.w	8000716 <__aeabi_dmul+0xde>
 80009b8:	ebb5 0c03 	subs.w	ip, r5, r3
 80009bc:	bf04      	itt	eq
 80009be:	ebb6 0c02 	subseq.w	ip, r6, r2
 80009c2:	ea5f 0c50 	movseq.w	ip, r0, lsr #1
 80009c6:	f150 0000 	adcs.w	r0, r0, #0
 80009ca:	eb41 5104 	adc.w	r1, r1, r4, lsl #20
 80009ce:	bd70      	pop	{r4, r5, r6, pc}
 80009d0:	f00e 4e00 	and.w	lr, lr, #2147483648	; 0x80000000
 80009d4:	ea4e 3111 	orr.w	r1, lr, r1, lsr #12
 80009d8:	eb14 045c 	adds.w	r4, r4, ip, lsr #1
 80009dc:	bfc2      	ittt	gt
 80009de:	ebd4 050c 	rsbsgt	r5, r4, ip
 80009e2:	ea41 5104 	orrgt.w	r1, r1, r4, lsl #20
 80009e6:	bd70      	popgt	{r4, r5, r6, pc}
 80009e8:	f441 1180 	orr.w	r1, r1, #1048576	; 0x100000
 80009ec:	f04f 0e00 	mov.w	lr, #0
 80009f0:	3c01      	subs	r4, #1
 80009f2:	e690      	b.n	8000716 <__aeabi_dmul+0xde>
 80009f4:	ea45 0e06 	orr.w	lr, r5, r6
 80009f8:	e68d      	b.n	8000716 <__aeabi_dmul+0xde>
 80009fa:	ea0c 5513 	and.w	r5, ip, r3, lsr #20
 80009fe:	ea94 0f0c 	teq	r4, ip
 8000a02:	bf08      	it	eq
 8000a04:	ea95 0f0c 	teqeq	r5, ip
 8000a08:	f43f af3b 	beq.w	8000882 <__aeabi_dmul+0x24a>
 8000a0c:	ea94 0f0c 	teq	r4, ip
 8000a10:	d10a      	bne.n	8000a28 <__aeabi_ddiv+0x19c>
 8000a12:	ea50 3401 	orrs.w	r4, r0, r1, lsl #12
 8000a16:	f47f af34 	bne.w	8000882 <__aeabi_dmul+0x24a>
 8000a1a:	ea95 0f0c 	teq	r5, ip
 8000a1e:	f47f af25 	bne.w	800086c <__aeabi_dmul+0x234>
 8000a22:	4610      	mov	r0, r2
 8000a24:	4619      	mov	r1, r3
 8000a26:	e72c      	b.n	8000882 <__aeabi_dmul+0x24a>
 8000a28:	ea95 0f0c 	teq	r5, ip
 8000a2c:	d106      	bne.n	8000a3c <__aeabi_ddiv+0x1b0>
 8000a2e:	ea52 3503 	orrs.w	r5, r2, r3, lsl #12
 8000a32:	f43f aefd 	beq.w	8000830 <__aeabi_dmul+0x1f8>
 8000a36:	4610      	mov	r0, r2
 8000a38:	4619      	mov	r1, r3
 8000a3a:	e722      	b.n	8000882 <__aeabi_dmul+0x24a>
 8000a3c:	ea50 0641 	orrs.w	r6, r0, r1, lsl #1
 8000a40:	bf18      	it	ne
 8000a42:	ea52 0643 	orrsne.w	r6, r2, r3, lsl #1
 8000a46:	f47f aec5 	bne.w	80007d4 <__aeabi_dmul+0x19c>
 8000a4a:	ea50 0441 	orrs.w	r4, r0, r1, lsl #1
 8000a4e:	f47f af0d 	bne.w	800086c <__aeabi_dmul+0x234>
 8000a52:	ea52 0543 	orrs.w	r5, r2, r3, lsl #1
 8000a56:	f47f aeeb 	bne.w	8000830 <__aeabi_dmul+0x1f8>
 8000a5a:	e712      	b.n	8000882 <__aeabi_dmul+0x24a>

08000a5c <__gedf2>:
 8000a5c:	f04f 3cff 	mov.w	ip, #4294967295
 8000a60:	e006      	b.n	8000a70 <__cmpdf2+0x4>
 8000a62:	bf00      	nop

08000a64 <__ledf2>:
 8000a64:	f04f 0c01 	mov.w	ip, #1
 8000a68:	e002      	b.n	8000a70 <__cmpdf2+0x4>
 8000a6a:	bf00      	nop

08000a6c <__cmpdf2>:
 8000a6c:	f04f 0c01 	mov.w	ip, #1
 8000a70:	f84d cd04 	str.w	ip, [sp, #-4]!
 8000a74:	ea4f 0c41 	mov.w	ip, r1, lsl #1
 8000a78:	ea7f 5c6c 	mvns.w	ip, ip, asr #21
 8000a7c:	ea4f 0c43 	mov.w	ip, r3, lsl #1
 8000a80:	bf18      	it	ne
 8000a82:	ea7f 5c6c 	mvnsne.w	ip, ip, asr #21
 8000a86:	d01b      	beq.n	8000ac0 <__cmpdf2+0x54>
 8000a88:	b001      	add	sp, #4
 8000a8a:	ea50 0c41 	orrs.w	ip, r0, r1, lsl #1
 8000a8e:	bf0c      	ite	eq
 8000a90:	ea52 0c43 	orrseq.w	ip, r2, r3, lsl #1
 8000a94:	ea91 0f03 	teqne	r1, r3
 8000a98:	bf02      	ittt	eq
 8000a9a:	ea90 0f02 	teqeq	r0, r2
 8000a9e:	2000      	moveq	r0, #0
 8000aa0:	4770      	bxeq	lr
 8000aa2:	f110 0f00 	cmn.w	r0, #0
 8000aa6:	ea91 0f03 	teq	r1, r3
 8000aaa:	bf58      	it	pl
 8000aac:	4299      	cmppl	r1, r3
 8000aae:	bf08      	it	eq
 8000ab0:	4290      	cmpeq	r0, r2
 8000ab2:	bf2c      	ite	cs
 8000ab4:	17d8      	asrcs	r0, r3, #31
 8000ab6:	ea6f 70e3 	mvncc.w	r0, r3, asr #31
 8000aba:	f040 0001 	orr.w	r0, r0, #1
 8000abe:	4770      	bx	lr
 8000ac0:	ea4f 0c41 	mov.w	ip, r1, lsl #1
 8000ac4:	ea7f 5c6c 	mvns.w	ip, ip, asr #21
 8000ac8:	d102      	bne.n	8000ad0 <__cmpdf2+0x64>
 8000aca:	ea50 3c01 	orrs.w	ip, r0, r1, lsl #12
 8000ace:	d107      	bne.n	8000ae0 <__cmpdf2+0x74>
 8000ad0:	ea4f 0c43 	mov.w	ip, r3, lsl #1
 8000ad4:	ea7f 5c6c 	mvns.w	ip, ip, asr #21
 8000ad8:	d1d6      	bne.n	8000a88 <__cmpdf2+0x1c>
 8000ada:	ea52 3c03 	orrs.w	ip, r2, r3, lsl #12
 8000ade:	d0d3      	beq.n	8000a88 <__cmpdf2+0x1c>
 8000ae0:	f85d 0b04 	ldr.w	r0, [sp], #4
 8000ae4:	4770      	bx	lr
 8000ae6:	bf00      	nop

08000ae8 <__aeabi_cdrcmple>:
 8000ae8:	4684      	mov	ip, r0
 8000aea:	4610      	mov	r0, r2
 8000aec:	4662      	mov	r2, ip
 8000aee:	468c      	mov	ip, r1
 8000af0:	4619      	mov	r1, r3
 8000af2:	4663      	mov	r3, ip
 8000af4:	e000      	b.n	8000af8 <__aeabi_cdcmpeq>
 8000af6:	bf00      	nop

08000af8 <__aeabi_cdcmpeq>:
 8000af8:	b501      	push	{r0, lr}
 8000afa:	f7ff ffb7 	bl	8000a6c <__cmpdf2>
 8000afe:	2800      	cmp	r0, #0
 8000b00:	bf48      	it	mi
 8000b02:	f110 0f00 	cmnmi.w	r0, #0
 8000b06:	bd01      	pop	{r0, pc}

08000b08 <__aeabi_dcmpeq>:
 8000b08:	f84d ed08 	str.w	lr, [sp, #-8]!
 8000b0c:	f7ff fff4 	bl	8000af8 <__aeabi_cdcmpeq>
 8000b10:	bf0c      	ite	eq
 8000b12:	2001      	moveq	r0, #1
 8000b14:	2000      	movne	r0, #0
 8000b16:	f85d fb08 	ldr.w	pc, [sp], #8
 8000b1a:	bf00      	nop

08000b1c <__aeabi_dcmplt>:
 8000b1c:	f84d ed08 	str.w	lr, [sp, #-8]!
 8000b20:	f7ff ffea 	bl	8000af8 <__aeabi_cdcmpeq>
 8000b24:	bf34      	ite	cc
 8000b26:	2001      	movcc	r0, #1
 8000b28:	2000      	movcs	r0, #0
 8000b2a:	f85d fb08 	ldr.w	pc, [sp], #8
 8000b2e:	bf00      	nop

08000b30 <__aeabi_dcmple>:
 8000b30:	f84d ed08 	str.w	lr, [sp, #-8]!
 8000b34:	f7ff ffe0 	bl	8000af8 <__aeabi_cdcmpeq>
 8000b38:	bf94      	ite	ls
 8000b3a:	2001      	movls	r0, #1
 8000b3c:	2000      	movhi	r0, #0
 8000b3e:	f85d fb08 	ldr.w	pc, [sp], #8
 8000b42:	bf00      	nop

08000b44 <__aeabi_dcmpge>:
 8000b44:	f84d ed08 	str.w	lr, [sp, #-8]!
 8000b48:	f7ff ffce 	bl	8000ae8 <__aeabi_cdrcmple>
 8000b4c:	bf94      	ite	ls
 8000b4e:	2001      	movls	r0, #1
 8000b50:	2000      	movhi	r0, #0
 8000b52:	f85d fb08 	ldr.w	pc, [sp], #8
 8000b56:	bf00      	nop

08000b58 <__aeabi_dcmpgt>:
 8000b58:	f84d ed08 	str.w	lr, [sp, #-8]!
 8000b5c:	f7ff ffc4 	bl	8000ae8 <__aeabi_cdrcmple>
 8000b60:	bf34      	ite	cc
 8000b62:	2001      	movcc	r0, #1
 8000b64:	2000      	movcs	r0, #0
 8000b66:	f85d fb08 	ldr.w	pc, [sp], #8
 8000b6a:	bf00      	nop

08000b6c <__aeabi_dcmpun>:
 8000b6c:	ea4f 0c41 	mov.w	ip, r1, lsl #1
 8000b70:	ea7f 5c6c 	mvns.w	ip, ip, asr #21
 8000b74:	d102      	bne.n	8000b7c <__aeabi_dcmpun+0x10>
 8000b76:	ea50 3c01 	orrs.w	ip, r0, r1, lsl #12
 8000b7a:	d10a      	bne.n	8000b92 <__aeabi_dcmpun+0x26>
 8000b7c:	ea4f 0c43 	mov.w	ip, r3, lsl #1
 8000b80:	ea7f 5c6c 	mvns.w	ip, ip, asr #21
 8000b84:	d102      	bne.n	8000b8c <__aeabi_dcmpun+0x20>
 8000b86:	ea52 3c03 	orrs.w	ip, r2, r3, lsl #12
 8000b8a:	d102      	bne.n	8000b92 <__aeabi_dcmpun+0x26>
 8000b8c:	f04f 0000 	mov.w	r0, #0
 8000b90:	4770      	bx	lr
 8000b92:	f04f 0001 	mov.w	r0, #1
 8000b96:	4770      	bx	lr

08000b98 <__aeabi_d2iz>:
 8000b98:	ea4f 0241 	mov.w	r2, r1, lsl #1
 8000b9c:	f512 1200 	adds.w	r2, r2, #2097152	; 0x200000
 8000ba0:	d215      	bcs.n	8000bce <__aeabi_d2iz+0x36>
 8000ba2:	d511      	bpl.n	8000bc8 <__aeabi_d2iz+0x30>
 8000ba4:	f46f 7378 	mvn.w	r3, #992	; 0x3e0
 8000ba8:	ebb3 5262 	subs.w	r2, r3, r2, asr #21
 8000bac:	d912      	bls.n	8000bd4 <__aeabi_d2iz+0x3c>
 8000bae:	ea4f 23c1 	mov.w	r3, r1, lsl #11
 8000bb2:	f043 4300 	orr.w	r3, r3, #2147483648	; 0x80000000
 8000bb6:	ea43 5350 	orr.w	r3, r3, r0, lsr #21
 8000bba:	f011 4f00 	tst.w	r1, #2147483648	; 0x80000000
 8000bbe:	fa23 f002 	lsr.w	r0, r3, r2
 8000bc2:	bf18      	it	ne
 8000bc4:	4240      	negne	r0, r0
 8000bc6:	4770      	bx	lr
 8000bc8:	f04f 0000 	mov.w	r0, #0
 8000bcc:	4770      	bx	lr
 8000bce:	ea50 3001 	orrs.w	r0, r0, r1, lsl #12
 8000bd2:	d105      	bne.n	8000be0 <__aeabi_d2iz+0x48>
 8000bd4:	f011 4000 	ands.w	r0, r1, #2147483648	; 0x80000000
 8000bd8:	bf08      	it	eq
 8000bda:	f06f 4000 	mvneq.w	r0, #2147483648	; 0x80000000
 8000bde:	4770      	bx	lr
 8000be0:	f04f 0000 	mov.w	r0, #0
 8000be4:	4770      	bx	lr
 8000be6:	bf00      	nop

08000be8 <__aeabi_uldivmod>:
 8000be8:	b953      	cbnz	r3, 8000c00 <__aeabi_uldivmod+0x18>
 8000bea:	b94a      	cbnz	r2, 8000c00 <__aeabi_uldivmod+0x18>
 8000bec:	2900      	cmp	r1, #0
 8000bee:	bf08      	it	eq
 8000bf0:	2800      	cmpeq	r0, #0
 8000bf2:	bf1c      	itt	ne
 8000bf4:	f04f 31ff 	movne.w	r1, #4294967295
 8000bf8:	f04f 30ff 	movne.w	r0, #4294967295
 8000bfc:	f000 b972 	b.w	8000ee4 <__aeabi_idiv0>
 8000c00:	f1ad 0c08 	sub.w	ip, sp, #8
 8000c04:	e96d ce04 	strd	ip, lr, [sp, #-16]!
 8000c08:	f000 f806 	bl	8000c18 <__udivmoddi4>
 8000c0c:	f8dd e004 	ldr.w	lr, [sp, #4]
 8000c10:	e9dd 2302 	ldrd	r2, r3, [sp, #8]
 8000c14:	b004      	add	sp, #16
 8000c16:	4770      	bx	lr

08000c18 <__udivmoddi4>:
 8000c18:	e92d 47f0 	stmdb	sp!, {r4, r5, r6, r7, r8, r9, sl, lr}
 8000c1c:	9e08      	ldr	r6, [sp, #32]
 8000c1e:	4604      	mov	r4, r0
 8000c20:	4688      	mov	r8, r1
 8000c22:	2b00      	cmp	r3, #0
 8000c24:	d14b      	bne.n	8000cbe <__udivmoddi4+0xa6>
 8000c26:	428a      	cmp	r2, r1
 8000c28:	4615      	mov	r5, r2
 8000c2a:	d967      	bls.n	8000cfc <__udivmoddi4+0xe4>
 8000c2c:	fab2 f282 	clz	r2, r2
 8000c30:	b14a      	cbz	r2, 8000c46 <__udivmoddi4+0x2e>
 8000c32:	f1c2 0720 	rsb	r7, r2, #32
 8000c36:	fa01 f302 	lsl.w	r3, r1, r2
 8000c3a:	fa20 f707 	lsr.w	r7, r0, r7
 8000c3e:	4095      	lsls	r5, r2
 8000c40:	ea47 0803 	orr.w	r8, r7, r3
 8000c44:	4094      	lsls	r4, r2
 8000c46:	ea4f 4e15 	mov.w	lr, r5, lsr #16
 8000c4a:	0c23      	lsrs	r3, r4, #16
 8000c4c:	fbb8 f7fe 	udiv	r7, r8, lr
 8000c50:	fa1f fc85 	uxth.w	ip, r5
 8000c54:	fb0e 8817 	mls	r8, lr, r7, r8
 8000c58:	ea43 4308 	orr.w	r3, r3, r8, lsl #16
 8000c5c:	fb07 f10c 	mul.w	r1, r7, ip
 8000c60:	4299      	cmp	r1, r3
 8000c62:	d909      	bls.n	8000c78 <__udivmoddi4+0x60>
 8000c64:	18eb      	adds	r3, r5, r3
 8000c66:	f107 30ff 	add.w	r0, r7, #4294967295
 8000c6a:	f080 811b 	bcs.w	8000ea4 <__udivmoddi4+0x28c>
 8000c6e:	4299      	cmp	r1, r3
 8000c70:	f240 8118 	bls.w	8000ea4 <__udivmoddi4+0x28c>
 8000c74:	3f02      	subs	r7, #2
 8000c76:	442b      	add	r3, r5
 8000c78:	1a5b      	subs	r3, r3, r1
 8000c7a:	b2a4      	uxth	r4, r4
 8000c7c:	fbb3 f0fe 	udiv	r0, r3, lr
 8000c80:	fb0e 3310 	mls	r3, lr, r0, r3
 8000c84:	ea44 4403 	orr.w	r4, r4, r3, lsl #16
 8000c88:	fb00 fc0c 	mul.w	ip, r0, ip
 8000c8c:	45a4      	cmp	ip, r4
 8000c8e:	d909      	bls.n	8000ca4 <__udivmoddi4+0x8c>
 8000c90:	192c      	adds	r4, r5, r4
 8000c92:	f100 33ff 	add.w	r3, r0, #4294967295
 8000c96:	f080 8107 	bcs.w	8000ea8 <__udivmoddi4+0x290>
 8000c9a:	45a4      	cmp	ip, r4
 8000c9c:	f240 8104 	bls.w	8000ea8 <__udivmoddi4+0x290>
 8000ca0:	3802      	subs	r0, #2
 8000ca2:	442c      	add	r4, r5
 8000ca4:	ea40 4007 	orr.w	r0, r0, r7, lsl #16
 8000ca8:	eba4 040c 	sub.w	r4, r4, ip
 8000cac:	2700      	movs	r7, #0
 8000cae:	b11e      	cbz	r6, 8000cb8 <__udivmoddi4+0xa0>
 8000cb0:	40d4      	lsrs	r4, r2
 8000cb2:	2300      	movs	r3, #0
 8000cb4:	e9c6 4300 	strd	r4, r3, [r6]
 8000cb8:	4639      	mov	r1, r7
 8000cba:	e8bd 87f0 	ldmia.w	sp!, {r4, r5, r6, r7, r8, r9, sl, pc}
 8000cbe:	428b      	cmp	r3, r1
 8000cc0:	d909      	bls.n	8000cd6 <__udivmoddi4+0xbe>
 8000cc2:	2e00      	cmp	r6, #0
 8000cc4:	f000 80eb 	beq.w	8000e9e <__udivmoddi4+0x286>
 8000cc8:	2700      	movs	r7, #0
 8000cca:	e9c6 0100 	strd	r0, r1, [r6]
 8000cce:	4638      	mov	r0, r7
 8000cd0:	4639      	mov	r1, r7
 8000cd2:	e8bd 87f0 	ldmia.w	sp!, {r4, r5, r6, r7, r8, r9, sl, pc}
 8000cd6:	fab3 f783 	clz	r7, r3
 8000cda:	2f00      	cmp	r7, #0
 8000cdc:	d147      	bne.n	8000d6e <__udivmoddi4+0x156>
 8000cde:	428b      	cmp	r3, r1
 8000ce0:	d302      	bcc.n	8000ce8 <__udivmoddi4+0xd0>
 8000ce2:	4282      	cmp	r2, r0
 8000ce4:	f200 80fa 	bhi.w	8000edc <__udivmoddi4+0x2c4>
 8000ce8:	1a84      	subs	r4, r0, r2
 8000cea:	eb61 0303 	sbc.w	r3, r1, r3
 8000cee:	2001      	movs	r0, #1
 8000cf0:	4698      	mov	r8, r3
 8000cf2:	2e00      	cmp	r6, #0
 8000cf4:	d0e0      	beq.n	8000cb8 <__udivmoddi4+0xa0>
 8000cf6:	e9c6 4800 	strd	r4, r8, [r6]
 8000cfa:	e7dd      	b.n	8000cb8 <__udivmoddi4+0xa0>
 8000cfc:	b902      	cbnz	r2, 8000d00 <__udivmoddi4+0xe8>
 8000cfe:	deff      	udf	#255	; 0xff
 8000d00:	fab2 f282 	clz	r2, r2
 8000d04:	2a00      	cmp	r2, #0
 8000d06:	f040 808f 	bne.w	8000e28 <__udivmoddi4+0x210>
 8000d0a:	1b49      	subs	r1, r1, r5
 8000d0c:	ea4f 4e15 	mov.w	lr, r5, lsr #16
 8000d10:	fa1f f885 	uxth.w	r8, r5
 8000d14:	2701      	movs	r7, #1
 8000d16:	fbb1 fcfe 	udiv	ip, r1, lr
 8000d1a:	0c23      	lsrs	r3, r4, #16
 8000d1c:	fb0e 111c 	mls	r1, lr, ip, r1
 8000d20:	ea43 4301 	orr.w	r3, r3, r1, lsl #16
 8000d24:	fb08 f10c 	mul.w	r1, r8, ip
 8000d28:	4299      	cmp	r1, r3
 8000d2a:	d907      	bls.n	8000d3c <__udivmoddi4+0x124>
 8000d2c:	18eb      	adds	r3, r5, r3
 8000d2e:	f10c 30ff 	add.w	r0, ip, #4294967295
 8000d32:	d202      	bcs.n	8000d3a <__udivmoddi4+0x122>
 8000d34:	4299      	cmp	r1, r3
 8000d36:	f200 80cd 	bhi.w	8000ed4 <__udivmoddi4+0x2bc>
 8000d3a:	4684      	mov	ip, r0
 8000d3c:	1a59      	subs	r1, r3, r1
 8000d3e:	b2a3      	uxth	r3, r4
 8000d40:	fbb1 f0fe 	udiv	r0, r1, lr
 8000d44:	fb0e 1410 	mls	r4, lr, r0, r1
 8000d48:	ea43 4404 	orr.w	r4, r3, r4, lsl #16
 8000d4c:	fb08 f800 	mul.w	r8, r8, r0
 8000d50:	45a0      	cmp	r8, r4
 8000d52:	d907      	bls.n	8000d64 <__udivmoddi4+0x14c>
 8000d54:	192c      	adds	r4, r5, r4
 8000d56:	f100 33ff 	add.w	r3, r0, #4294967295
 8000d5a:	d202      	bcs.n	8000d62 <__udivmoddi4+0x14a>
 8000d5c:	45a0      	cmp	r8, r4
 8000d5e:	f200 80b6 	bhi.w	8000ece <__udivmoddi4+0x2b6>
 8000d62:	4618      	mov	r0, r3
 8000d64:	eba4 0408 	sub.w	r4, r4, r8
 8000d68:	ea40 400c 	orr.w	r0, r0, ip, lsl #16
 8000d6c:	e79f      	b.n	8000cae <__udivmoddi4+0x96>
 8000d6e:	f1c7 0c20 	rsb	ip, r7, #32
 8000d72:	40bb      	lsls	r3, r7
 8000d74:	fa22 fe0c 	lsr.w	lr, r2, ip
 8000d78:	ea4e 0e03 	orr.w	lr, lr, r3
 8000d7c:	fa01 f407 	lsl.w	r4, r1, r7
 8000d80:	fa20 f50c 	lsr.w	r5, r0, ip
 8000d84:	fa21 f30c 	lsr.w	r3, r1, ip
 8000d88:	ea4f 481e 	mov.w	r8, lr, lsr #16
 8000d8c:	4325      	orrs	r5, r4
 8000d8e:	fbb3 f9f8 	udiv	r9, r3, r8
 8000d92:	0c2c      	lsrs	r4, r5, #16
 8000d94:	fb08 3319 	mls	r3, r8, r9, r3
 8000d98:	fa1f fa8e 	uxth.w	sl, lr
 8000d9c:	ea44 4303 	orr.w	r3, r4, r3, lsl #16
 8000da0:	fb09 f40a 	mul.w	r4, r9, sl
 8000da4:	429c      	cmp	r4, r3
 8000da6:	fa02 f207 	lsl.w	r2, r2, r7
 8000daa:	fa00 f107 	lsl.w	r1, r0, r7
 8000dae:	d90b      	bls.n	8000dc8 <__udivmoddi4+0x1b0>
 8000db0:	eb1e 0303 	adds.w	r3, lr, r3
 8000db4:	f109 30ff 	add.w	r0, r9, #4294967295
 8000db8:	f080 8087 	bcs.w	8000eca <__udivmoddi4+0x2b2>
 8000dbc:	429c      	cmp	r4, r3
 8000dbe:	f240 8084 	bls.w	8000eca <__udivmoddi4+0x2b2>
 8000dc2:	f1a9 0902 	sub.w	r9, r9, #2
 8000dc6:	4473      	add	r3, lr
 8000dc8:	1b1b      	subs	r3, r3, r4
 8000dca:	b2ad      	uxth	r5, r5
 8000dcc:	fbb3 f0f8 	udiv	r0, r3, r8
 8000dd0:	fb08 3310 	mls	r3, r8, r0, r3
 8000dd4:	ea45 4403 	orr.w	r4, r5, r3, lsl #16
 8000dd8:	fb00 fa0a 	mul.w	sl, r0, sl
 8000ddc:	45a2      	cmp	sl, r4
 8000dde:	d908      	bls.n	8000df2 <__udivmoddi4+0x1da>
 8000de0:	eb1e 0404 	adds.w	r4, lr, r4
 8000de4:	f100 33ff 	add.w	r3, r0, #4294967295
 8000de8:	d26b      	bcs.n	8000ec2 <__udivmoddi4+0x2aa>
 8000dea:	45a2      	cmp	sl, r4
 8000dec:	d969      	bls.n	8000ec2 <__udivmoddi4+0x2aa>
 8000dee:	3802      	subs	r0, #2
 8000df0:	4474      	add	r4, lr
 8000df2:	ea40 4009 	orr.w	r0, r0, r9, lsl #16
 8000df6:	fba0 8902 	umull	r8, r9, r0, r2
 8000dfa:	eba4 040a 	sub.w	r4, r4, sl
 8000dfe:	454c      	cmp	r4, r9
 8000e00:	46c2      	mov	sl, r8
 8000e02:	464b      	mov	r3, r9
 8000e04:	d354      	bcc.n	8000eb0 <__udivmoddi4+0x298>
 8000e06:	d051      	beq.n	8000eac <__udivmoddi4+0x294>
 8000e08:	2e00      	cmp	r6, #0
 8000e0a:	d069      	beq.n	8000ee0 <__udivmoddi4+0x2c8>
 8000e0c:	ebb1 050a 	subs.w	r5, r1, sl
 8000e10:	eb64 0403 	sbc.w	r4, r4, r3
 8000e14:	fa04 fc0c 	lsl.w	ip, r4, ip
 8000e18:	40fd      	lsrs	r5, r7
 8000e1a:	40fc      	lsrs	r4, r7
 8000e1c:	ea4c 0505 	orr.w	r5, ip, r5
 8000e20:	e9c6 5400 	strd	r5, r4, [r6]
 8000e24:	2700      	movs	r7, #0
 8000e26:	e747      	b.n	8000cb8 <__udivmoddi4+0xa0>
 8000e28:	f1c2 0320 	rsb	r3, r2, #32
 8000e2c:	fa20 f703 	lsr.w	r7, r0, r3
 8000e30:	4095      	lsls	r5, r2
 8000e32:	fa01 f002 	lsl.w	r0, r1, r2
 8000e36:	fa21 f303 	lsr.w	r3, r1, r3
 8000e3a:	ea4f 4e15 	mov.w	lr, r5, lsr #16
 8000e3e:	4338      	orrs	r0, r7
 8000e40:	0c01      	lsrs	r1, r0, #16
 8000e42:	fbb3 f7fe 	udiv	r7, r3, lr
 8000e46:	fa1f f885 	uxth.w	r8, r5
 8000e4a:	fb0e 3317 	mls	r3, lr, r7, r3
 8000e4e:	ea41 4103 	orr.w	r1, r1, r3, lsl #16
 8000e52:	fb07 f308 	mul.w	r3, r7, r8
 8000e56:	428b      	cmp	r3, r1
 8000e58:	fa04 f402 	lsl.w	r4, r4, r2
 8000e5c:	d907      	bls.n	8000e6e <__udivmoddi4+0x256>
 8000e5e:	1869      	adds	r1, r5, r1
 8000e60:	f107 3cff 	add.w	ip, r7, #4294967295
 8000e64:	d22f      	bcs.n	8000ec6 <__udivmoddi4+0x2ae>
 8000e66:	428b      	cmp	r3, r1
 8000e68:	d92d      	bls.n	8000ec6 <__udivmoddi4+0x2ae>
 8000e6a:	3f02      	subs	r7, #2
 8000e6c:	4429      	add	r1, r5
 8000e6e:	1acb      	subs	r3, r1, r3
 8000e70:	b281      	uxth	r1, r0
 8000e72:	fbb3 f0fe 	udiv	r0, r3, lr
 8000e76:	fb0e 3310 	mls	r3, lr, r0, r3
 8000e7a:	ea41 4103 	orr.w	r1, r1, r3, lsl #16
 8000e7e:	fb00 f308 	mul.w	r3, r0, r8
 8000e82:	428b      	cmp	r3, r1
 8000e84:	d907      	bls.n	8000e96 <__udivmoddi4+0x27e>
 8000e86:	1869      	adds	r1, r5, r1
 8000e88:	f100 3cff 	add.w	ip, r0, #4294967295
 8000e8c:	d217      	bcs.n	8000ebe <__udivmoddi4+0x2a6>
 8000e8e:	428b      	cmp	r3, r1
 8000e90:	d915      	bls.n	8000ebe <__udivmoddi4+0x2a6>
 8000e92:	3802      	subs	r0, #2
 8000e94:	4429      	add	r1, r5
 8000e96:	1ac9      	subs	r1, r1, r3
 8000e98:	ea40 4707 	orr.w	r7, r0, r7, lsl #16
 8000e9c:	e73b      	b.n	8000d16 <__udivmoddi4+0xfe>
 8000e9e:	4637      	mov	r7, r6
 8000ea0:	4630      	mov	r0, r6
 8000ea2:	e709      	b.n	8000cb8 <__udivmoddi4+0xa0>
 8000ea4:	4607      	mov	r7, r0
 8000ea6:	e6e7      	b.n	8000c78 <__udivmoddi4+0x60>
 8000ea8:	4618      	mov	r0, r3
 8000eaa:	e6fb      	b.n	8000ca4 <__udivmoddi4+0x8c>
 8000eac:	4541      	cmp	r1, r8
 8000eae:	d2ab      	bcs.n	8000e08 <__udivmoddi4+0x1f0>
 8000eb0:	ebb8 0a02 	subs.w	sl, r8, r2
 8000eb4:	eb69 020e 	sbc.w	r2, r9, lr
 8000eb8:	3801      	subs	r0, #1
 8000eba:	4613      	mov	r3, r2
 8000ebc:	e7a4      	b.n	8000e08 <__udivmoddi4+0x1f0>
 8000ebe:	4660      	mov	r0, ip
 8000ec0:	e7e9      	b.n	8000e96 <__udivmoddi4+0x27e>
 8000ec2:	4618      	mov	r0, r3
 8000ec4:	e795      	b.n	8000df2 <__udivmoddi4+0x1da>
 8000ec6:	4667      	mov	r7, ip
 8000ec8:	e7d1      	b.n	8000e6e <__udivmoddi4+0x256>
 8000eca:	4681      	mov	r9, r0
 8000ecc:	e77c      	b.n	8000dc8 <__udivmoddi4+0x1b0>
 8000ece:	3802      	subs	r0, #2
 8000ed0:	442c      	add	r4, r5
 8000ed2:	e747      	b.n	8000d64 <__udivmoddi4+0x14c>
 8000ed4:	f1ac 0c02 	sub.w	ip, ip, #2
 8000ed8:	442b      	add	r3, r5
 8000eda:	e72f      	b.n	8000d3c <__udivmoddi4+0x124>
 8000edc:	4638      	mov	r0, r7
 8000ede:	e708      	b.n	8000cf2 <__udivmoddi4+0xda>
 8000ee0:	4637      	mov	r7, r6
 8000ee2:	e6e9      	b.n	8000cb8 <__udivmoddi4+0xa0>

08000ee4 <__aeabi_idiv0>:
 8000ee4:	4770      	bx	lr
 8000ee6:	bf00      	nop

08000ee8 <lis3dh_read_reg>:
  * @retval          interface status (MANDATORY: return 0 -> no Error)
  *
  */
int32_t lis3dh_read_reg(stmdev_ctx_t *ctx, uint8_t reg, uint8_t *data,
                        uint16_t len)
{
 8000ee8:	b590      	push	{r4, r7, lr}
 8000eea:	b087      	sub	sp, #28
 8000eec:	af00      	add	r7, sp, #0
 8000eee:	60f8      	str	r0, [r7, #12]
 8000ef0:	607a      	str	r2, [r7, #4]
 8000ef2:	461a      	mov	r2, r3
 8000ef4:	460b      	mov	r3, r1
 8000ef6:	72fb      	strb	r3, [r7, #11]
 8000ef8:	4613      	mov	r3, r2
 8000efa:	813b      	strh	r3, [r7, #8]
  int32_t ret;
  ret = ctx->read_reg(ctx->handle, reg, data, len);
 8000efc:	68fb      	ldr	r3, [r7, #12]
 8000efe:	685c      	ldr	r4, [r3, #4]
 8000f00:	68fb      	ldr	r3, [r7, #12]
 8000f02:	6898      	ldr	r0, [r3, #8]
 8000f04:	893b      	ldrh	r3, [r7, #8]
 8000f06:	7af9      	ldrb	r1, [r7, #11]
 8000f08:	687a      	ldr	r2, [r7, #4]
 8000f0a:	47a0      	blx	r4
 8000f0c:	6178      	str	r0, [r7, #20]
  return ret;
 8000f0e:	697b      	ldr	r3, [r7, #20]
}
 8000f10:	4618      	mov	r0, r3
 8000f12:	371c      	adds	r7, #28
 8000f14:	46bd      	mov	sp, r7
 8000f16:	bd90      	pop	{r4, r7, pc}

08000f18 <lis3dh_write_reg>:
  *
  */
int32_t lis3dh_write_reg(stmdev_ctx_t *ctx, uint8_t reg,
                         uint8_t *data,
                         uint16_t len)
{
 8000f18:	b590      	push	{r4, r7, lr}
 8000f1a:	b087      	sub	sp, #28
 8000f1c:	af00      	add	r7, sp, #0
 8000f1e:	60f8      	str	r0, [r7, #12]
 8000f20:	607a      	str	r2, [r7, #4]
 8000f22:	461a      	mov	r2, r3
 8000f24:	460b      	mov	r3, r1
 8000f26:	72fb      	strb	r3, [r7, #11]
 8000f28:	4613      	mov	r3, r2
 8000f2a:	813b      	strh	r3, [r7, #8]
  int32_t ret;
  ret = ctx->write_reg(ctx->handle, reg, data, len);
 8000f2c:	68fb      	ldr	r3, [r7, #12]
 8000f2e:	681c      	ldr	r4, [r3, #0]
 8000f30:	68fb      	ldr	r3, [r7, #12]
 8000f32:	6898      	ldr	r0, [r3, #8]
 8000f34:	893b      	ldrh	r3, [r7, #8]
 8000f36:	7af9      	ldrb	r1, [r7, #11]
 8000f38:	687a      	ldr	r2, [r7, #4]
 8000f3a:	47a0      	blx	r4
 8000f3c:	6178      	str	r0, [r7, #20]
  return ret;
 8000f3e:	697b      	ldr	r3, [r7, #20]
}
 8000f40:	4618      	mov	r0, r3
 8000f42:	371c      	adds	r7, #28
 8000f44:	46bd      	mov	sp, r7
 8000f46:	bd90      	pop	{r4, r7, pc}

08000f48 <lis3dh_from_fs4_nm_to_mg>:
{
  return ( (float)lsb / 64.0f ) *  4.0f;
}

float lis3dh_from_fs4_nm_to_mg(int16_t lsb)
{
 8000f48:	b480      	push	{r7}
 8000f4a:	b083      	sub	sp, #12
 8000f4c:	af00      	add	r7, sp, #0
 8000f4e:	4603      	mov	r3, r0
 8000f50:	80fb      	strh	r3, [r7, #6]
  return ( (float)lsb / 64.0f ) *  8.0f;
 8000f52:	f9b7 3006 	ldrsh.w	r3, [r7, #6]
 8000f56:	ee07 3a90 	vmov	s15, r3
 8000f5a:	eeb8 7ae7 	vcvt.f32.s32	s14, s15
 8000f5e:	eddf 6a07 	vldr	s13, [pc, #28]	; 8000f7c <lis3dh_from_fs4_nm_to_mg+0x34>
 8000f62:	eec7 7a26 	vdiv.f32	s15, s14, s13
 8000f66:	eeb2 7a00 	vmov.f32	s14, #32	; 0x41000000  8.0
 8000f6a:	ee67 7a87 	vmul.f32	s15, s15, s14
}
 8000f6e:	eeb0 0a67 	vmov.f32	s0, s15
 8000f72:	370c      	adds	r7, #12
 8000f74:	46bd      	mov	sp, r7
 8000f76:	f85d 7b04 	ldr.w	r7, [sp], #4
 8000f7a:	4770      	bx	lr
 8000f7c:	42800000 	.word	0x42800000

08000f80 <lis3dh_operating_mode_set>:
  * @retval          interface status (MANDATORY: return 0 -> no Error)
  *
  */
int32_t lis3dh_operating_mode_set(stmdev_ctx_t *ctx,
                                  lis3dh_op_md_t val)
{
 8000f80:	b580      	push	{r7, lr}
 8000f82:	b086      	sub	sp, #24
 8000f84:	af00      	add	r7, sp, #0
 8000f86:	6078      	str	r0, [r7, #4]
 8000f88:	460b      	mov	r3, r1
 8000f8a:	70fb      	strb	r3, [r7, #3]
  lis3dh_ctrl_reg1_t ctrl_reg1;
  lis3dh_ctrl_reg4_t ctrl_reg4;
  int32_t ret;
  ret = lis3dh_read_reg(ctx, LIS3DH_CTRL_REG1,
 8000f8c:	f107 0210 	add.w	r2, r7, #16
 8000f90:	2301      	movs	r3, #1
 8000f92:	2120      	movs	r1, #32
 8000f94:	6878      	ldr	r0, [r7, #4]
 8000f96:	f7ff ffa7 	bl	8000ee8 <lis3dh_read_reg>
 8000f9a:	6178      	str	r0, [r7, #20]
                        (uint8_t *)&ctrl_reg1, 1);

  if (ret == 0) {
 8000f9c:	697b      	ldr	r3, [r7, #20]
 8000f9e:	2b00      	cmp	r3, #0
 8000fa0:	d107      	bne.n	8000fb2 <lis3dh_operating_mode_set+0x32>
    ret = lis3dh_read_reg(ctx, LIS3DH_CTRL_REG4,
 8000fa2:	f107 020c 	add.w	r2, r7, #12
 8000fa6:	2301      	movs	r3, #1
 8000fa8:	2123      	movs	r1, #35	; 0x23
 8000faa:	6878      	ldr	r0, [r7, #4]
 8000fac:	f7ff ff9c 	bl	8000ee8 <lis3dh_read_reg>
 8000fb0:	6178      	str	r0, [r7, #20]
                          (uint8_t *)&ctrl_reg4, 1);
  }

  if (ret == 0) {
 8000fb2:	697b      	ldr	r3, [r7, #20]
 8000fb4:	2b00      	cmp	r3, #0
 8000fb6:	d128      	bne.n	800100a <lis3dh_operating_mode_set+0x8a>
    if ( val == LIS3DH_HR_12bit ) {
 8000fb8:	78fb      	ldrb	r3, [r7, #3]
 8000fba:	2b00      	cmp	r3, #0
 8000fbc:	d107      	bne.n	8000fce <lis3dh_operating_mode_set+0x4e>
      ctrl_reg1.lpen = 0;
 8000fbe:	7c3b      	ldrb	r3, [r7, #16]
 8000fc0:	f36f 03c3 	bfc	r3, #3, #1
 8000fc4:	743b      	strb	r3, [r7, #16]
      ctrl_reg4.hr   = 1;
 8000fc6:	7b3b      	ldrb	r3, [r7, #12]
 8000fc8:	f043 0308 	orr.w	r3, r3, #8
 8000fcc:	733b      	strb	r3, [r7, #12]
    }

    if (val == LIS3DH_NM_10bit) {
 8000fce:	78fb      	ldrb	r3, [r7, #3]
 8000fd0:	2b01      	cmp	r3, #1
 8000fd2:	d107      	bne.n	8000fe4 <lis3dh_operating_mode_set+0x64>
      ctrl_reg1.lpen = 0;
 8000fd4:	7c3b      	ldrb	r3, [r7, #16]
 8000fd6:	f36f 03c3 	bfc	r3, #3, #1
 8000fda:	743b      	strb	r3, [r7, #16]
      ctrl_reg4.hr   = 0;
 8000fdc:	7b3b      	ldrb	r3, [r7, #12]
 8000fde:	f36f 03c3 	bfc	r3, #3, #1
 8000fe2:	733b      	strb	r3, [r7, #12]
    }

    if (val == LIS3DH_LP_8bit) {
 8000fe4:	78fb      	ldrb	r3, [r7, #3]
 8000fe6:	2b02      	cmp	r3, #2
 8000fe8:	d107      	bne.n	8000ffa <lis3dh_operating_mode_set+0x7a>
      ctrl_reg1.lpen = 1;
 8000fea:	7c3b      	ldrb	r3, [r7, #16]
 8000fec:	f043 0308 	orr.w	r3, r3, #8
 8000ff0:	743b      	strb	r3, [r7, #16]
      ctrl_reg4.hr   = 0;
 8000ff2:	7b3b      	ldrb	r3, [r7, #12]
 8000ff4:	f36f 03c3 	bfc	r3, #3, #1
 8000ff8:	733b      	strb	r3, [r7, #12]
    }

    ret = lis3dh_write_reg(ctx, LIS3DH_CTRL_REG1, (uint8_t *)&ctrl_reg1,
 8000ffa:	f107 0210 	add.w	r2, r7, #16
 8000ffe:	2301      	movs	r3, #1
 8001000:	2120      	movs	r1, #32
 8001002:	6878      	ldr	r0, [r7, #4]
 8001004:	f7ff ff88 	bl	8000f18 <lis3dh_write_reg>
 8001008:	6178      	str	r0, [r7, #20]
                           1);
  }

  if (ret == 0) {
 800100a:	697b      	ldr	r3, [r7, #20]
 800100c:	2b00      	cmp	r3, #0
 800100e:	d107      	bne.n	8001020 <lis3dh_operating_mode_set+0xa0>
    ret = lis3dh_write_reg(ctx, LIS3DH_CTRL_REG4, (uint8_t *)&ctrl_reg4,
 8001010:	f107 020c 	add.w	r2, r7, #12
 8001014:	2301      	movs	r3, #1
 8001016:	2123      	movs	r1, #35	; 0x23
 8001018:	6878      	ldr	r0, [r7, #4]
 800101a:	f7ff ff7d 	bl	8000f18 <lis3dh_write_reg>
 800101e:	6178      	str	r0, [r7, #20]
                           1);
  }

  return ret;
 8001020:	697b      	ldr	r3, [r7, #20]
}
 8001022:	4618      	mov	r0, r3
 8001024:	3718      	adds	r7, #24
 8001026:	46bd      	mov	sp, r7
 8001028:	bd80      	pop	{r7, pc}

0800102a <lis3dh_data_rate_set>:
  * @param  val      change the values of odr in reg CTRL_REG1
  * @retval          interface status (MANDATORY: return 0 -> no Error)
  *
  */
int32_t lis3dh_data_rate_set(stmdev_ctx_t *ctx, lis3dh_odr_t val)
{
 800102a:	b580      	push	{r7, lr}
 800102c:	b084      	sub	sp, #16
 800102e:	af00      	add	r7, sp, #0
 8001030:	6078      	str	r0, [r7, #4]
 8001032:	460b      	mov	r3, r1
 8001034:	70fb      	strb	r3, [r7, #3]
  lis3dh_ctrl_reg1_t ctrl_reg1;
  int32_t ret;
  ret = lis3dh_read_reg(ctx, LIS3DH_CTRL_REG1, (uint8_t *)&ctrl_reg1,
 8001036:	f107 0208 	add.w	r2, r7, #8
 800103a:	2301      	movs	r3, #1
 800103c:	2120      	movs	r1, #32
 800103e:	6878      	ldr	r0, [r7, #4]
 8001040:	f7ff ff52 	bl	8000ee8 <lis3dh_read_reg>
 8001044:	60f8      	str	r0, [r7, #12]
                        1);

  if (ret == 0) {
 8001046:	68fb      	ldr	r3, [r7, #12]
 8001048:	2b00      	cmp	r3, #0
 800104a:	d10f      	bne.n	800106c <lis3dh_data_rate_set+0x42>
    ctrl_reg1.odr = (uint8_t)val;
 800104c:	78fb      	ldrb	r3, [r7, #3]
 800104e:	f003 030f 	and.w	r3, r3, #15
 8001052:	b2da      	uxtb	r2, r3
 8001054:	7a3b      	ldrb	r3, [r7, #8]
 8001056:	f362 1307 	bfi	r3, r2, #4, #4
 800105a:	723b      	strb	r3, [r7, #8]
    ret = lis3dh_write_reg(ctx, LIS3DH_CTRL_REG1, (uint8_t *)&ctrl_reg1,
 800105c:	f107 0208 	add.w	r2, r7, #8
 8001060:	2301      	movs	r3, #1
 8001062:	2120      	movs	r1, #32
 8001064:	6878      	ldr	r0, [r7, #4]
 8001066:	f7ff ff57 	bl	8000f18 <lis3dh_write_reg>
 800106a:	60f8      	str	r0, [r7, #12]
                           1);
  }

  return ret;
 800106c:	68fb      	ldr	r3, [r7, #12]
}
 800106e:	4618      	mov	r0, r3
 8001070:	3710      	adds	r7, #16
 8001072:	46bd      	mov	sp, r7
 8001074:	bd80      	pop	{r7, pc}

08001076 <lis3dh_full_scale_set>:
  * @param  val      change the values of fs in reg CTRL_REG4
  * @retval          interface status (MANDATORY: return 0 -> no Error)
  *
  */
int32_t lis3dh_full_scale_set(stmdev_ctx_t *ctx, lis3dh_fs_t val)
{
 8001076:	b580      	push	{r7, lr}
 8001078:	b084      	sub	sp, #16
 800107a:	af00      	add	r7, sp, #0
 800107c:	6078      	str	r0, [r7, #4]
 800107e:	460b      	mov	r3, r1
 8001080:	70fb      	strb	r3, [r7, #3]
  lis3dh_ctrl_reg4_t ctrl_reg4;
  int32_t ret;
  ret = lis3dh_read_reg(ctx, LIS3DH_CTRL_REG4, (uint8_t *)&ctrl_reg4,
 8001082:	f107 0208 	add.w	r2, r7, #8
 8001086:	2301      	movs	r3, #1
 8001088:	2123      	movs	r1, #35	; 0x23
 800108a:	6878      	ldr	r0, [r7, #4]
 800108c:	f7ff ff2c 	bl	8000ee8 <lis3dh_read_reg>
 8001090:	60f8      	str	r0, [r7, #12]
                        1);

  if (ret == 0) {
 8001092:	68fb      	ldr	r3, [r7, #12]
 8001094:	2b00      	cmp	r3, #0
 8001096:	d10f      	bne.n	80010b8 <lis3dh_full_scale_set+0x42>
    ctrl_reg4.fs = (uint8_t)val;
 8001098:	78fb      	ldrb	r3, [r7, #3]
 800109a:	f003 0303 	and.w	r3, r3, #3
 800109e:	b2da      	uxtb	r2, r3
 80010a0:	7a3b      	ldrb	r3, [r7, #8]
 80010a2:	f362 1305 	bfi	r3, r2, #4, #2
 80010a6:	723b      	strb	r3, [r7, #8]
    ret = lis3dh_write_reg(ctx, LIS3DH_CTRL_REG4, (uint8_t *)&ctrl_reg4,
 80010a8:	f107 0208 	add.w	r2, r7, #8
 80010ac:	2301      	movs	r3, #1
 80010ae:	2123      	movs	r1, #35	; 0x23
 80010b0:	6878      	ldr	r0, [r7, #4]
 80010b2:	f7ff ff31 	bl	8000f18 <lis3dh_write_reg>
 80010b6:	60f8      	str	r0, [r7, #12]
                           1);
  }

  return ret;
 80010b8:	68fb      	ldr	r3, [r7, #12]
}
 80010ba:	4618      	mov	r0, r3
 80010bc:	3710      	adds	r7, #16
 80010be:	46bd      	mov	sp, r7
 80010c0:	bd80      	pop	{r7, pc}

080010c2 <lis3dh_block_data_update_set>:
  * @param  val      change the values of bdu in reg CTRL_REG4
  * @retval          interface status (MANDATORY: return 0 -> no Error)
  *
  */
int32_t lis3dh_block_data_update_set(stmdev_ctx_t *ctx, uint8_t val)
{
 80010c2:	b580      	push	{r7, lr}
 80010c4:	b084      	sub	sp, #16
 80010c6:	af00      	add	r7, sp, #0
 80010c8:	6078      	str	r0, [r7, #4]
 80010ca:	460b      	mov	r3, r1
 80010cc:	70fb      	strb	r3, [r7, #3]
  lis3dh_ctrl_reg4_t ctrl_reg4;
  int32_t ret;
  ret = lis3dh_read_reg(ctx, LIS3DH_CTRL_REG4, (uint8_t *)&ctrl_reg4,
 80010ce:	f107 0208 	add.w	r2, r7, #8
 80010d2:	2301      	movs	r3, #1
 80010d4:	2123      	movs	r1, #35	; 0x23
 80010d6:	6878      	ldr	r0, [r7, #4]
 80010d8:	f7ff ff06 	bl	8000ee8 <lis3dh_read_reg>
 80010dc:	60f8      	str	r0, [r7, #12]
                        1);

  if (ret == 0) {
 80010de:	68fb      	ldr	r3, [r7, #12]
 80010e0:	2b00      	cmp	r3, #0
 80010e2:	d10f      	bne.n	8001104 <lis3dh_block_data_update_set+0x42>
    ctrl_reg4.bdu = val;
 80010e4:	78fb      	ldrb	r3, [r7, #3]
 80010e6:	f003 0301 	and.w	r3, r3, #1
 80010ea:	b2da      	uxtb	r2, r3
 80010ec:	7a3b      	ldrb	r3, [r7, #8]
 80010ee:	f362 13c7 	bfi	r3, r2, #7, #1
 80010f2:	723b      	strb	r3, [r7, #8]
    ret = lis3dh_write_reg(ctx, LIS3DH_CTRL_REG4, (uint8_t *)&ctrl_reg4,
 80010f4:	f107 0208 	add.w	r2, r7, #8
 80010f8:	2301      	movs	r3, #1
 80010fa:	2123      	movs	r1, #35	; 0x23
 80010fc:	6878      	ldr	r0, [r7, #4]
 80010fe:	f7ff ff0b 	bl	8000f18 <lis3dh_write_reg>
 8001102:	60f8      	str	r0, [r7, #12]
                           1);
  }

  return ret;
 8001104:	68fb      	ldr	r3, [r7, #12]
}
 8001106:	4618      	mov	r0, r3
 8001108:	3710      	adds	r7, #16
 800110a:	46bd      	mov	sp, r7
 800110c:	bd80      	pop	{r7, pc}

0800110e <lis3dh_acceleration_raw_get>:
  * @param  buff     buffer that stores data read
  * @retval          interface status (MANDATORY: return 0 -> no Error)
  *
  */
int32_t lis3dh_acceleration_raw_get(stmdev_ctx_t *ctx, int16_t *val)
{
 800110e:	b580      	push	{r7, lr}
 8001110:	b086      	sub	sp, #24
 8001112:	af00      	add	r7, sp, #0
 8001114:	6078      	str	r0, [r7, #4]
 8001116:	6039      	str	r1, [r7, #0]
  uint8_t buff[6];
  int32_t ret;
  ret = lis3dh_read_reg(ctx, LIS3DH_OUT_X_L, buff, 6);
 8001118:	f107 020c 	add.w	r2, r7, #12
 800111c:	2306      	movs	r3, #6
 800111e:	2128      	movs	r1, #40	; 0x28
 8001120:	6878      	ldr	r0, [r7, #4]
 8001122:	f7ff fee1 	bl	8000ee8 <lis3dh_read_reg>
 8001126:	6178      	str	r0, [r7, #20]
  val[0] = (int16_t)buff[1];
 8001128:	7b7b      	ldrb	r3, [r7, #13]
 800112a:	b21a      	sxth	r2, r3
 800112c:	683b      	ldr	r3, [r7, #0]
 800112e:	801a      	strh	r2, [r3, #0]
  val[0] = (val[0] * 256) +  (int16_t)buff[0];
 8001130:	683b      	ldr	r3, [r7, #0]
 8001132:	f9b3 3000 	ldrsh.w	r3, [r3]
 8001136:	b29b      	uxth	r3, r3
 8001138:	021b      	lsls	r3, r3, #8
 800113a:	b29a      	uxth	r2, r3
 800113c:	7b3b      	ldrb	r3, [r7, #12]
 800113e:	b29b      	uxth	r3, r3
 8001140:	4413      	add	r3, r2
 8001142:	b29b      	uxth	r3, r3
 8001144:	b21a      	sxth	r2, r3
 8001146:	683b      	ldr	r3, [r7, #0]
 8001148:	801a      	strh	r2, [r3, #0]
  val[1] = (int16_t)buff[3];
 800114a:	7bfa      	ldrb	r2, [r7, #15]
 800114c:	683b      	ldr	r3, [r7, #0]
 800114e:	3302      	adds	r3, #2
 8001150:	b212      	sxth	r2, r2
 8001152:	801a      	strh	r2, [r3, #0]
  val[1] = (val[1] * 256) +  (int16_t)buff[2];
 8001154:	683b      	ldr	r3, [r7, #0]
 8001156:	3302      	adds	r3, #2
 8001158:	f9b3 3000 	ldrsh.w	r3, [r3]
 800115c:	b29b      	uxth	r3, r3
 800115e:	021b      	lsls	r3, r3, #8
 8001160:	b29a      	uxth	r2, r3
 8001162:	7bbb      	ldrb	r3, [r7, #14]
 8001164:	b29b      	uxth	r3, r3
 8001166:	4413      	add	r3, r2
 8001168:	b29a      	uxth	r2, r3
 800116a:	683b      	ldr	r3, [r7, #0]
 800116c:	3302      	adds	r3, #2
 800116e:	b212      	sxth	r2, r2
 8001170:	801a      	strh	r2, [r3, #0]
  val[2] = (int16_t)buff[5];
 8001172:	7c7a      	ldrb	r2, [r7, #17]
 8001174:	683b      	ldr	r3, [r7, #0]
 8001176:	3304      	adds	r3, #4
 8001178:	b212      	sxth	r2, r2
 800117a:	801a      	strh	r2, [r3, #0]
  val[2] = (val[2] * 256) +  (int16_t)buff[4];
 800117c:	683b      	ldr	r3, [r7, #0]
 800117e:	3304      	adds	r3, #4
 8001180:	f9b3 3000 	ldrsh.w	r3, [r3]
 8001184:	b29b      	uxth	r3, r3
 8001186:	021b      	lsls	r3, r3, #8
 8001188:	b29a      	uxth	r2, r3
 800118a:	7c3b      	ldrb	r3, [r7, #16]
 800118c:	b29b      	uxth	r3, r3
 800118e:	4413      	add	r3, r2
 8001190:	b29a      	uxth	r2, r3
 8001192:	683b      	ldr	r3, [r7, #0]
 8001194:	3304      	adds	r3, #4
 8001196:	b212      	sxth	r2, r2
 8001198:	801a      	strh	r2, [r3, #0]
  return ret;
 800119a:	697b      	ldr	r3, [r7, #20]
}
 800119c:	4618      	mov	r0, r3
 800119e:	3718      	adds	r7, #24
 80011a0:	46bd      	mov	sp, r7
 80011a2:	bd80      	pop	{r7, pc}

080011a4 <lis3dh_device_id_get>:
  * @param  buff     buffer that stores data read
  * @retval          interface status (MANDATORY: return 0 -> no Error)
  *
  */
int32_t lis3dh_device_id_get(stmdev_ctx_t *ctx, uint8_t *buff)
{
 80011a4:	b580      	push	{r7, lr}
 80011a6:	b084      	sub	sp, #16
 80011a8:	af00      	add	r7, sp, #0
 80011aa:	6078      	str	r0, [r7, #4]
 80011ac:	6039      	str	r1, [r7, #0]
  int32_t ret;
  ret = lis3dh_read_reg(ctx, LIS3DH_WHO_AM_I, buff, 1);
 80011ae:	2301      	movs	r3, #1
 80011b0:	683a      	ldr	r2, [r7, #0]
 80011b2:	210f      	movs	r1, #15
 80011b4:	6878      	ldr	r0, [r7, #4]
 80011b6:	f7ff fe97 	bl	8000ee8 <lis3dh_read_reg>
 80011ba:	60f8      	str	r0, [r7, #12]
  return ret;
 80011bc:	68fb      	ldr	r3, [r7, #12]
}
 80011be:	4618      	mov	r0, r3
 80011c0:	3710      	adds	r7, #16
 80011c2:	46bd      	mov	sp, r7
 80011c4:	bd80      	pop	{r7, pc}

080011c6 <lis3dh_status_get>:
  * @param  val      register STATUS_REG
  * @retval          interface status (MANDATORY: return 0 -> no Error)
  *
  */
int32_t lis3dh_status_get(stmdev_ctx_t *ctx, lis3dh_status_reg_t *val)
{
 80011c6:	b580      	push	{r7, lr}
 80011c8:	b084      	sub	sp, #16
 80011ca:	af00      	add	r7, sp, #0
 80011cc:	6078      	str	r0, [r7, #4]
 80011ce:	6039      	str	r1, [r7, #0]
  int32_t ret;
  ret = lis3dh_read_reg(ctx, LIS3DH_STATUS_REG, (uint8_t *) val, 1);
 80011d0:	2301      	movs	r3, #1
 80011d2:	683a      	ldr	r2, [r7, #0]
 80011d4:	2127      	movs	r1, #39	; 0x27
 80011d6:	6878      	ldr	r0, [r7, #4]
 80011d8:	f7ff fe86 	bl	8000ee8 <lis3dh_read_reg>
 80011dc:	60f8      	str	r0, [r7, #12]
  return ret;
 80011de:	68fb      	ldr	r3, [r7, #12]
}
 80011e0:	4618      	mov	r0, r3
 80011e2:	3710      	adds	r7, #16
 80011e4:	46bd      	mov	sp, r7
 80011e6:	bd80      	pop	{r7, pc}

080011e8 <myprintf>:

/* USER CODE END PFP */

/* Private user code ---------------------------------------------------------*/
/* USER CODE BEGIN 0 */
void myprintf(const char *fmt, ...) {
 80011e8:	b40f      	push	{r0, r1, r2, r3}
 80011ea:	b580      	push	{r7, lr}
 80011ec:	b082      	sub	sp, #8
 80011ee:	af00      	add	r7, sp, #0
  static char buffer[256];
  va_list args;
  va_start(args, fmt);
 80011f0:	f107 0314 	add.w	r3, r7, #20
 80011f4:	603b      	str	r3, [r7, #0]
  vsnprintf(buffer, sizeof(buffer), fmt, args);
 80011f6:	683b      	ldr	r3, [r7, #0]
 80011f8:	693a      	ldr	r2, [r7, #16]
 80011fa:	f44f 7180 	mov.w	r1, #256	; 0x100
 80011fe:	480b      	ldr	r0, [pc, #44]	; (800122c <myprintf+0x44>)
 8001200:	f007 fda6 	bl	8008d50 <vsniprintf>
  va_end(args);

  int len = strlen(buffer);
 8001204:	4809      	ldr	r0, [pc, #36]	; (800122c <myprintf+0x44>)
 8001206:	f7ff f803 	bl	8000210 <strlen>
 800120a:	4603      	mov	r3, r0
 800120c:	607b      	str	r3, [r7, #4]
  HAL_UART_Transmit(&huart2, (uint8_t*)buffer, len, -1);
 800120e:	687b      	ldr	r3, [r7, #4]
 8001210:	b29a      	uxth	r2, r3
 8001212:	f04f 33ff 	mov.w	r3, #4294967295
 8001216:	4905      	ldr	r1, [pc, #20]	; (800122c <myprintf+0x44>)
 8001218:	4805      	ldr	r0, [pc, #20]	; (8001230 <myprintf+0x48>)
 800121a:	f003 faa0 	bl	800475e <HAL_UART_Transmit>
}
 800121e:	bf00      	nop
 8001220:	3708      	adds	r7, #8
 8001222:	46bd      	mov	sp, r7
 8001224:	e8bd 4080 	ldmia.w	sp!, {r7, lr}
 8001228:	b004      	add	sp, #16
 800122a:	4770      	bx	lr
 800122c:	20000610 	.word	0x20000610
 8001230:	20000a98 	.word	0x20000a98

08001234 <main>:
/**
  * @brief  The application entry point.
  * @retval int
  */
int main(void)
{
 8001234:	e92d 43b0 	stmdb	sp!, {r4, r5, r7, r8, r9, lr}
 8001238:	b08e      	sub	sp, #56	; 0x38
 800123a:	af04      	add	r7, sp, #16

  /* MCU Configuration--------------------------------------------------------*/

  /* Reset of all peripherals, Initializes the Flash interface and the Systick. */

	HAL_Init();
 800123c:	f000 fd9c 	bl	8001d78 <HAL_Init>
  /* USER CODE BEGIN Init */

  /* USER CODE END Init */

  /* Configure the system clock */
  SystemClock_Config();
 8001240:	f000 f9b6 	bl	80015b0 <SystemClock_Config>
  /* USER CODE BEGIN SysInit */

  /* USER CODE END SysInit */

  /* Initialize all configured peripherals */
  MX_GPIO_Init();
 8001244:	f000 faa2 	bl	800178c <MX_GPIO_Init>
  MX_USART2_UART_Init();
 8001248:	f000 fa76 	bl	8001738 <MX_USART2_UART_Init>
  MX_I2C1_Init();
 800124c:	f000 fa10 	bl	8001670 <MX_I2C1_Init>
  MX_FATFS_Init();
 8001250:	f003 fee4 	bl	800501c <MX_FATFS_Init>
  MX_SPI2_Init();
 8001254:	f000 fa3a 	bl	80016cc <MX_SPI2_Init>
  /***** INIT ACCELEROMETRE *****/
  stmdev_ctx_t dev_ctx;
    lis3dh_reg_t reg;
    uint8_t j;
    /* Initialize mems driver interface */
    dev_ctx.write_reg = platform_write;
 8001258:	4bbb      	ldr	r3, [pc, #748]	; (8001548 <main+0x314>)
 800125a:	613b      	str	r3, [r7, #16]
    dev_ctx.read_reg = platform_read;
 800125c:	4bbb      	ldr	r3, [pc, #748]	; (800154c <main+0x318>)
 800125e:	617b      	str	r3, [r7, #20]
    dev_ctx.handle = &SENSOR_BUS;
 8001260:	4bbb      	ldr	r3, [pc, #748]	; (8001550 <main+0x31c>)
 8001262:	61bb      	str	r3, [r7, #24]
    /* Wait sensor boot time */
    HAL_Delay(5);
 8001264:	2005      	movs	r0, #5
 8001266:	f000 fdf9 	bl	8001e5c <HAL_Delay>
    /* Check device ID */
    lis3dh_device_id_get(&dev_ctx, &reg.byte);
 800126a:	f107 020c 	add.w	r2, r7, #12
 800126e:	f107 0310 	add.w	r3, r7, #16
 8001272:	4611      	mov	r1, r2
 8001274:	4618      	mov	r0, r3
 8001276:	f7ff ff95 	bl	80011a4 <lis3dh_device_id_get>
    if (reg.byte != LIS3DH_ID) {
 800127a:	7b3b      	ldrb	r3, [r7, #12]
 800127c:	2b33      	cmp	r3, #51	; 0x33
 800127e:	d00a      	beq.n	8001296 <main+0x62>
      while (reg.byte != LIS3DH_ID) {
 8001280:	e006      	b.n	8001290 <main+0x5c>
  			myprintf("Error sensor\r\n");
 8001282:	48b4      	ldr	r0, [pc, #720]	; (8001554 <main+0x320>)
 8001284:	f7ff ffb0 	bl	80011e8 <myprintf>
  			HAL_Delay(1000);
 8001288:	f44f 707a 	mov.w	r0, #1000	; 0x3e8
 800128c:	f000 fde6 	bl	8001e5c <HAL_Delay>
      while (reg.byte != LIS3DH_ID) {
 8001290:	7b3b      	ldrb	r3, [r7, #12]
 8001292:	2b33      	cmp	r3, #51	; 0x33
 8001294:	d1f5      	bne.n	8001282 <main+0x4e>
        /* manage here device not found */
      }
    }
  	/* Enable Block Data Update. */
    lis3dh_block_data_update_set(&dev_ctx, PROPERTY_ENABLE);
 8001296:	f107 0310 	add.w	r3, r7, #16
 800129a:	2101      	movs	r1, #1
 800129c:	4618      	mov	r0, r3
 800129e:	f7ff ff10 	bl	80010c2 <lis3dh_block_data_update_set>
    /* Set full scale to 2g. */
    lis3dh_full_scale_set(&dev_ctx, LIS3DH_4g);
 80012a2:	f107 0310 	add.w	r3, r7, #16
 80012a6:	2101      	movs	r1, #1
 80012a8:	4618      	mov	r0, r3
 80012aa:	f7ff fee4 	bl	8001076 <lis3dh_full_scale_set>
    /* Set device in normal mode. */
    lis3dh_operating_mode_set(&dev_ctx, LIS3DH_NM_10bit);
 80012ae:	f107 0310 	add.w	r3, r7, #16
 80012b2:	2101      	movs	r1, #1
 80012b4:	4618      	mov	r0, r3
 80012b6:	f7ff fe63 	bl	8000f80 <lis3dh_operating_mode_set>
    /* Set Output Data Rate to 1Hz. */
    lis3dh_data_rate_set(&dev_ctx, LIS3DH_ODR_5kHz376_LP_1kHz344_NM_HP);
 80012ba:	f107 0310 	add.w	r3, r7, #16
 80012be:	2109      	movs	r1, #9
 80012c0:	4618      	mov	r0, r3
 80012c2:	f7ff feb2 	bl	800102a <lis3dh_data_rate_set>
    /* Wait stable output */
    HAL_Delay(90);
 80012c6:	205a      	movs	r0, #90	; 0x5a
 80012c8:	f000 fdc8 	bl	8001e5c <HAL_Delay>

    /*****END INIT ACCELEROMETRE*****/



  myprintf("\r\n~ SD card demo by Theo & pilou ~\r\n\r\n");
 80012cc:	48a2      	ldr	r0, [pc, #648]	; (8001558 <main+0x324>)
 80012ce:	f7ff ff8b 	bl	80011e8 <myprintf>

    HAL_Delay(1000); //a short delay is important to let the SD card settle
 80012d2:	f44f 707a 	mov.w	r0, #1000	; 0x3e8
 80012d6:	f000 fdc1 	bl	8001e5c <HAL_Delay>

    //some variables for FatFs

    //Open the file system
    fres = f_mount(&FatFs, "", 1); //1=mount now
 80012da:	2201      	movs	r2, #1
 80012dc:	499f      	ldr	r1, [pc, #636]	; (800155c <main+0x328>)
 80012de:	48a0      	ldr	r0, [pc, #640]	; (8001560 <main+0x32c>)
 80012e0:	f006 f920 	bl	8007524 <f_mount>
 80012e4:	4603      	mov	r3, r0
 80012e6:	461a      	mov	r2, r3
 80012e8:	4b9e      	ldr	r3, [pc, #632]	; (8001564 <main+0x330>)
 80012ea:	701a      	strb	r2, [r3, #0]
    if (fres != FR_OK) {
 80012ec:	4b9d      	ldr	r3, [pc, #628]	; (8001564 <main+0x330>)
 80012ee:	781b      	ldrb	r3, [r3, #0]
 80012f0:	2b00      	cmp	r3, #0
 80012f2:	d006      	beq.n	8001302 <main+0xce>
  	myprintf("f_mount error (%i)\r\n", fres);
 80012f4:	4b9b      	ldr	r3, [pc, #620]	; (8001564 <main+0x330>)
 80012f6:	781b      	ldrb	r3, [r3, #0]
 80012f8:	4619      	mov	r1, r3
 80012fa:	489b      	ldr	r0, [pc, #620]	; (8001568 <main+0x334>)
 80012fc:	f7ff ff74 	bl	80011e8 <myprintf>
  	while(1);
 8001300:	e7fe      	b.n	8001300 <main+0xcc>
    //Let's get some statistics from the SD card
    DWORD free_clusters, free_sectors, total_sectors;

    FATFS* getFreeFs;

    fres = f_getfree("", &free_clusters, &getFreeFs);
 8001302:	1d3a      	adds	r2, r7, #4
 8001304:	f107 0308 	add.w	r3, r7, #8
 8001308:	4619      	mov	r1, r3
 800130a:	4894      	ldr	r0, [pc, #592]	; (800155c <main+0x328>)
 800130c:	f006 ff34 	bl	8008178 <f_getfree>
 8001310:	4603      	mov	r3, r0
 8001312:	461a      	mov	r2, r3
 8001314:	4b93      	ldr	r3, [pc, #588]	; (8001564 <main+0x330>)
 8001316:	701a      	strb	r2, [r3, #0]
    if (fres != FR_OK) {
 8001318:	4b92      	ldr	r3, [pc, #584]	; (8001564 <main+0x330>)
 800131a:	781b      	ldrb	r3, [r3, #0]
 800131c:	2b00      	cmp	r3, #0
 800131e:	d000      	beq.n	8001322 <main+0xee>
  	while(1);
 8001320:	e7fe      	b.n	8001320 <main+0xec>
    }

    //Formula comes from ChaN's documentation
    total_sectors = (getFreeFs->n_fatent - 2) * getFreeFs->csize;
 8001322:	687b      	ldr	r3, [r7, #4]
 8001324:	695b      	ldr	r3, [r3, #20]
 8001326:	3b02      	subs	r3, #2
 8001328:	687a      	ldr	r2, [r7, #4]
 800132a:	8952      	ldrh	r2, [r2, #10]
 800132c:	fb02 f303 	mul.w	r3, r2, r3
 8001330:	623b      	str	r3, [r7, #32]
    free_sectors = free_clusters * getFreeFs->csize;
 8001332:	687b      	ldr	r3, [r7, #4]
 8001334:	895b      	ldrh	r3, [r3, #10]
 8001336:	461a      	mov	r2, r3
 8001338:	68bb      	ldr	r3, [r7, #8]
 800133a:	fb03 f302 	mul.w	r3, r3, r2
 800133e:	61fb      	str	r3, [r7, #28]

    myprintf("SD card stats:\r\n%10lu KiB total drive space.\r\n%10lu KiB available.\r\n", total_sectors / 2, free_sectors / 2);
 8001340:	6a3b      	ldr	r3, [r7, #32]
 8001342:	0859      	lsrs	r1, r3, #1
 8001344:	69fb      	ldr	r3, [r7, #28]
 8001346:	085b      	lsrs	r3, r3, #1
 8001348:	461a      	mov	r2, r3
 800134a:	4888      	ldr	r0, [pc, #544]	; (800156c <main+0x338>)
 800134c:	f7ff ff4c 	bl	80011e8 <myprintf>
  	myprintf("f_getfree error (%i)\r\n", fres);
 8001350:	4b84      	ldr	r3, [pc, #528]	; (8001564 <main+0x330>)
 8001352:	781b      	ldrb	r3, [r3, #0]
 8001354:	4619      	mov	r1, r3
 8001356:	4886      	ldr	r0, [pc, #536]	; (8001570 <main+0x33c>)
 8001358:	f7ff ff46 	bl	80011e8 <myprintf>

    //Be a tidy kiwi - don't forget to close your file!
    if(fres == FR_OK) {
 800135c:	4b81      	ldr	r3, [pc, #516]	; (8001564 <main+0x330>)
 800135e:	781b      	ldrb	r3, [r3, #0]
 8001360:	2b00      	cmp	r3, #0
 8001362:	d103      	bne.n	800136c <main+0x138>
     	myprintf("fr ko ok!\r\n");
 8001364:	4883      	ldr	r0, [pc, #524]	; (8001574 <main+0x340>)
 8001366:	f7ff ff3f 	bl	80011e8 <myprintf>
 800136a:	e002      	b.n	8001372 <main+0x13e>
       } else {
     	myprintf("fr ko ko\r\n");
 800136c:	4882      	ldr	r0, [pc, #520]	; (8001578 <main+0x344>)
 800136e:	f7ff ff3b 	bl	80011e8 <myprintf>
       }

    //Now let's try and write a file "write.txt"
    fres = f_open(&fil, "write.txt", FA_WRITE | FA_OPEN_ALWAYS);
 8001372:	2212      	movs	r2, #18
 8001374:	4981      	ldr	r1, [pc, #516]	; (800157c <main+0x348>)
 8001376:	4882      	ldr	r0, [pc, #520]	; (8001580 <main+0x34c>)
 8001378:	f006 f91a 	bl	80075b0 <f_open>
 800137c:	4603      	mov	r3, r0
 800137e:	461a      	mov	r2, r3
 8001380:	4b78      	ldr	r3, [pc, #480]	; (8001564 <main+0x330>)
 8001382:	701a      	strb	r2, [r3, #0]
    if(fres == FR_OK) {
 8001384:	4b77      	ldr	r3, [pc, #476]	; (8001564 <main+0x330>)
 8001386:	781b      	ldrb	r3, [r3, #0]
 8001388:	2b00      	cmp	r3, #0
 800138a:	d123      	bne.n	80013d4 <main+0x1a0>
  	myprintf("I was able to open 'write.txt' for writing\r\n");
 800138c:	487d      	ldr	r0, [pc, #500]	; (8001584 <main+0x350>)
 800138e:	f7ff ff2b 	bl	80011e8 <myprintf>
  	strncpy((char*)tx_buffer, "a new file is made\n", 19);
 8001392:	4a7d      	ldr	r2, [pc, #500]	; (8001588 <main+0x354>)
 8001394:	4b7d      	ldr	r3, [pc, #500]	; (800158c <main+0x358>)
 8001396:	4614      	mov	r4, r2
 8001398:	461d      	mov	r5, r3
 800139a:	cd0f      	ldmia	r5!, {r0, r1, r2, r3}
 800139c:	c40f      	stmia	r4!, {r0, r1, r2, r3}
 800139e:	682b      	ldr	r3, [r5, #0]
 80013a0:	461a      	mov	r2, r3
 80013a2:	8022      	strh	r2, [r4, #0]
 80013a4:	3402      	adds	r4, #2
 80013a6:	0c1b      	lsrs	r3, r3, #16
 80013a8:	7023      	strb	r3, [r4, #0]
  	fres = f_lseek(&fil,f_size(&fil));
 80013aa:	4b75      	ldr	r3, [pc, #468]	; (8001580 <main+0x34c>)
 80013ac:	68db      	ldr	r3, [r3, #12]
 80013ae:	4619      	mov	r1, r3
 80013b0:	4873      	ldr	r0, [pc, #460]	; (8001580 <main+0x34c>)
 80013b2:	f006 fcd8 	bl	8007d66 <f_lseek>
 80013b6:	4603      	mov	r3, r0
 80013b8:	461a      	mov	r2, r3
 80013ba:	4b6a      	ldr	r3, [pc, #424]	; (8001564 <main+0x330>)
 80013bc:	701a      	strb	r2, [r3, #0]
  	fres = f_write(&fil, tx_buffer, 19, &bytesWrote);
 80013be:	4b74      	ldr	r3, [pc, #464]	; (8001590 <main+0x35c>)
 80013c0:	2213      	movs	r2, #19
 80013c2:	4971      	ldr	r1, [pc, #452]	; (8001588 <main+0x354>)
 80013c4:	486e      	ldr	r0, [pc, #440]	; (8001580 <main+0x34c>)
 80013c6:	f006 fab1 	bl	800792c <f_write>
 80013ca:	4603      	mov	r3, r0
 80013cc:	461a      	mov	r2, r3
 80013ce:	4b65      	ldr	r3, [pc, #404]	; (8001564 <main+0x330>)
 80013d0:	701a      	strb	r2, [r3, #0]
 80013d2:	e005      	b.n	80013e0 <main+0x1ac>
    } else {
  	myprintf("f_open error (%i)\r\n", fres);
 80013d4:	4b63      	ldr	r3, [pc, #396]	; (8001564 <main+0x330>)
 80013d6:	781b      	ldrb	r3, [r3, #0]
 80013d8:	4619      	mov	r1, r3
 80013da:	486e      	ldr	r0, [pc, #440]	; (8001594 <main+0x360>)
 80013dc:	f7ff ff04 	bl	80011e8 <myprintf>
    }
    fres = f_close(&fil);
 80013e0:	4867      	ldr	r0, [pc, #412]	; (8001580 <main+0x34c>)
 80013e2:	f006 fc96 	bl	8007d12 <f_close>
 80013e6:	4603      	mov	r3, r0
 80013e8:	461a      	mov	r2, r3
 80013ea:	4b5e      	ldr	r3, [pc, #376]	; (8001564 <main+0x330>)
 80013ec:	701a      	strb	r2, [r3, #0]

  /* Infinite loop */
  /* USER CODE BEGIN WHILE */
    while (1)
    {
    	if(STATE == 1)
 80013ee:	4b6a      	ldr	r3, [pc, #424]	; (8001598 <main+0x364>)
 80013f0:	681b      	ldr	r3, [r3, #0]
 80013f2:	2b01      	cmp	r3, #1
 80013f4:	d17a      	bne.n	80014ec <main+0x2b8>
    	{
    	do {lis3dh_status_get(&dev_ctx, &reg.status_reg);
 80013f6:	f107 020c 	add.w	r2, r7, #12
 80013fa:	f107 0310 	add.w	r3, r7, #16
 80013fe:	4611      	mov	r1, r2
 8001400:	4618      	mov	r0, r3
 8001402:	f7ff fee0 	bl	80011c6 <lis3dh_status_get>
    	        } while (!reg.status_reg.zyxda);
 8001406:	7b3b      	ldrb	r3, [r7, #12]
 8001408:	f003 0308 	and.w	r3, r3, #8
 800140c:	b2db      	uxtb	r3, r3
 800140e:	2b00      	cmp	r3, #0
 8001410:	d0f1      	beq.n	80013f6 <main+0x1c2>

    	   /* Read dummy data and discard it */
    	       	        	  //lis3dh_acceleration_raw_get(&dev_ctx, data_raw_acceleration);
    	       	        /* Read 5 sample and get the average vale for each axis */
    	       	        	memset(acceleration_mg, 0x00, 3 * sizeof(float));
 8001412:	220c      	movs	r2, #12
 8001414:	2100      	movs	r1, #0
 8001416:	4861      	ldr	r0, [pc, #388]	; (800159c <main+0x368>)
 8001418:	f006 ffea 	bl	80083f0 <memset>

    	        	    /* Read data and accumulate the mg value */
    	        	    lis3dh_acceleration_raw_get(&dev_ctx, data_raw_acceleration);
 800141c:	f107 0310 	add.w	r3, r7, #16
 8001420:	495f      	ldr	r1, [pc, #380]	; (80015a0 <main+0x36c>)
 8001422:	4618      	mov	r0, r3
 8001424:	f7ff fe73 	bl	800110e <lis3dh_acceleration_raw_get>

    	        	    for (j = 0; j < 3; j++) {
 8001428:	2300      	movs	r3, #0
 800142a:	f887 3027 	strb.w	r3, [r7, #39]	; 0x27
 800142e:	e01e      	b.n	800146e <main+0x23a>
    	        	      acceleration_mg[j] += lis3dh_from_fs4_nm_to_mg(data_raw_acceleration[j]);
 8001430:	f897 3027 	ldrb.w	r3, [r7, #39]	; 0x27
 8001434:	4a5a      	ldr	r2, [pc, #360]	; (80015a0 <main+0x36c>)
 8001436:	f932 3013 	ldrsh.w	r3, [r2, r3, lsl #1]
 800143a:	4618      	mov	r0, r3
 800143c:	f7ff fd84 	bl	8000f48 <lis3dh_from_fs4_nm_to_mg>
 8001440:	eeb0 7a40 	vmov.f32	s14, s0
 8001444:	f897 3027 	ldrb.w	r3, [r7, #39]	; 0x27
 8001448:	4a54      	ldr	r2, [pc, #336]	; (800159c <main+0x368>)
 800144a:	009b      	lsls	r3, r3, #2
 800144c:	4413      	add	r3, r2
 800144e:	edd3 7a00 	vldr	s15, [r3]
 8001452:	f897 3027 	ldrb.w	r3, [r7, #39]	; 0x27
 8001456:	ee77 7a27 	vadd.f32	s15, s14, s15
 800145a:	4a50      	ldr	r2, [pc, #320]	; (800159c <main+0x368>)
 800145c:	009b      	lsls	r3, r3, #2
 800145e:	4413      	add	r3, r2
 8001460:	edc3 7a00 	vstr	s15, [r3]
    	        	    for (j = 0; j < 3; j++) {
 8001464:	f897 3027 	ldrb.w	r3, [r7, #39]	; 0x27
 8001468:	3301      	adds	r3, #1
 800146a:	f887 3027 	strb.w	r3, [r7, #39]	; 0x27
 800146e:	f897 3027 	ldrb.w	r3, [r7, #39]	; 0x27
 8001472:	2b02      	cmp	r3, #2
 8001474:	d9dc      	bls.n	8001430 <main+0x1fc>
    	        	    						}
    	        	   // HAL_RTC_GetTime(&hrtc, &stimestructureget, RTC_FORMAT_BIN);
    	        		//sprintf((char *)tx_buffer, "%02d:%02d:%02d Axis  x: %4.0f y: %4.0f z: %4.0f \r\n",stimestructureget.Minutes, stimestructureget.Seconds,stimestructureget.SubSeconds ,acceleration_mg[0],acceleration_mg[1],acceleration_mg[2]);
    	        		sprintf((char *)tx_buffer, "%4.0f;%4.0f;%4.0f \r\n", acceleration_mg[0],acceleration_mg[1],acceleration_mg[2]);
 8001476:	4b49      	ldr	r3, [pc, #292]	; (800159c <main+0x368>)
 8001478:	681b      	ldr	r3, [r3, #0]
 800147a:	4618      	mov	r0, r3
 800147c:	f7ff f884 	bl	8000588 <__aeabi_f2d>
 8001480:	4680      	mov	r8, r0
 8001482:	4689      	mov	r9, r1
 8001484:	4b45      	ldr	r3, [pc, #276]	; (800159c <main+0x368>)
 8001486:	685b      	ldr	r3, [r3, #4]
 8001488:	4618      	mov	r0, r3
 800148a:	f7ff f87d 	bl	8000588 <__aeabi_f2d>
 800148e:	4604      	mov	r4, r0
 8001490:	460d      	mov	r5, r1
 8001492:	4b42      	ldr	r3, [pc, #264]	; (800159c <main+0x368>)
 8001494:	689b      	ldr	r3, [r3, #8]
 8001496:	4618      	mov	r0, r3
 8001498:	f7ff f876 	bl	8000588 <__aeabi_f2d>
 800149c:	4602      	mov	r2, r0
 800149e:	460b      	mov	r3, r1
 80014a0:	e9cd 2302 	strd	r2, r3, [sp, #8]
 80014a4:	e9cd 4500 	strd	r4, r5, [sp]
 80014a8:	4642      	mov	r2, r8
 80014aa:	464b      	mov	r3, r9
 80014ac:	493d      	ldr	r1, [pc, #244]	; (80015a4 <main+0x370>)
 80014ae:	4836      	ldr	r0, [pc, #216]	; (8001588 <main+0x354>)
 80014b0:	f007 fc02 	bl	8008cb8 <siprintf>
    	        		myprintf("data : %s",tx_buffer);
 80014b4:	4934      	ldr	r1, [pc, #208]	; (8001588 <main+0x354>)
 80014b6:	483c      	ldr	r0, [pc, #240]	; (80015a8 <main+0x374>)
 80014b8:	f7ff fe96 	bl	80011e8 <myprintf>
    	        		fres = f_lseek(&fil,f_size(&fil));
 80014bc:	4b30      	ldr	r3, [pc, #192]	; (8001580 <main+0x34c>)
 80014be:	68db      	ldr	r3, [r3, #12]
 80014c0:	4619      	mov	r1, r3
 80014c2:	482f      	ldr	r0, [pc, #188]	; (8001580 <main+0x34c>)
 80014c4:	f006 fc4f 	bl	8007d66 <f_lseek>
 80014c8:	4603      	mov	r3, r0
 80014ca:	461a      	mov	r2, r3
 80014cc:	4b25      	ldr	r3, [pc, #148]	; (8001564 <main+0x330>)
 80014ce:	701a      	strb	r2, [r3, #0]
    	        		fres = f_write(&fil, tx_buffer, strlen((char const *)tx_buffer), &bytesWrote);
 80014d0:	482d      	ldr	r0, [pc, #180]	; (8001588 <main+0x354>)
 80014d2:	f7fe fe9d 	bl	8000210 <strlen>
 80014d6:	4602      	mov	r2, r0
 80014d8:	4b2d      	ldr	r3, [pc, #180]	; (8001590 <main+0x35c>)
 80014da:	492b      	ldr	r1, [pc, #172]	; (8001588 <main+0x354>)
 80014dc:	4828      	ldr	r0, [pc, #160]	; (8001580 <main+0x34c>)
 80014de:	f006 fa25 	bl	800792c <f_write>
 80014e2:	4603      	mov	r3, r0
 80014e4:	461a      	mov	r2, r3
 80014e6:	4b1f      	ldr	r3, [pc, #124]	; (8001564 <main+0x330>)
 80014e8:	701a      	strb	r2, [r3, #0]
 80014ea:	e780      	b.n	80013ee <main+0x1ba>

    	}
    	else if(STATE == 0)
 80014ec:	4b2a      	ldr	r3, [pc, #168]	; (8001598 <main+0x364>)
 80014ee:	681b      	ldr	r3, [r3, #0]
 80014f0:	2b00      	cmp	r3, #0
 80014f2:	d118      	bne.n	8001526 <main+0x2f2>
    	{
    		HAL_GPIO_TogglePin(LD2_GPIO_Port,LD2_Pin);
 80014f4:	2120      	movs	r1, #32
 80014f6:	482d      	ldr	r0, [pc, #180]	; (80015ac <main+0x378>)
 80014f8:	f001 f937 	bl	800276a <HAL_GPIO_TogglePin>
    		HAL_Delay(500);
 80014fc:	f44f 70fa 	mov.w	r0, #500	; 0x1f4
 8001500:	f000 fcac 	bl	8001e5c <HAL_Delay>
    		HAL_GPIO_TogglePin(LD2_GPIO_Port,LD2_Pin);
 8001504:	2120      	movs	r1, #32
 8001506:	4829      	ldr	r0, [pc, #164]	; (80015ac <main+0x378>)
 8001508:	f001 f92f 	bl	800276a <HAL_GPIO_TogglePin>
    		HAL_Delay(500);
 800150c:	f44f 70fa 	mov.w	r0, #500	; 0x1f4
 8001510:	f000 fca4 	bl	8001e5c <HAL_Delay>
    		HAL_GPIO_TogglePin(LD2_GPIO_Port,LD2_Pin);
 8001514:	2120      	movs	r1, #32
 8001516:	4825      	ldr	r0, [pc, #148]	; (80015ac <main+0x378>)
 8001518:	f001 f927 	bl	800276a <HAL_GPIO_TogglePin>
    		HAL_Delay(500);
 800151c:	f44f 70fa 	mov.w	r0, #500	; 0x1f4
 8001520:	f000 fc9c 	bl	8001e5c <HAL_Delay>
 8001524:	e763      	b.n	80013ee <main+0x1ba>
    	}
    	else if(STATE == 2)
 8001526:	4b1c      	ldr	r3, [pc, #112]	; (8001598 <main+0x364>)
 8001528:	681b      	ldr	r3, [r3, #0]
 800152a:	2b02      	cmp	r3, #2
 800152c:	f47f af5f 	bne.w	80013ee <main+0x1ba>
    	{
    		STATE=0;
 8001530:	4b19      	ldr	r3, [pc, #100]	; (8001598 <main+0x364>)
 8001532:	2200      	movs	r2, #0
 8001534:	601a      	str	r2, [r3, #0]
    		fres = f_close(&fil);
 8001536:	4812      	ldr	r0, [pc, #72]	; (8001580 <main+0x34c>)
 8001538:	f006 fbeb 	bl	8007d12 <f_close>
 800153c:	4603      	mov	r3, r0
 800153e:	461a      	mov	r2, r3
 8001540:	4b08      	ldr	r3, [pc, #32]	; (8001564 <main+0x330>)
 8001542:	701a      	strb	r2, [r3, #0]
    	if(STATE == 1)
 8001544:	e753      	b.n	80013ee <main+0x1ba>
 8001546:	bf00      	nop
 8001548:	080018ad 	.word	0x080018ad
 800154c:	080018ef 	.word	0x080018ef
 8001550:	200009dc 	.word	0x200009dc
 8001554:	0800a508 	.word	0x0800a508
 8001558:	0800a518 	.word	0x0800a518
 800155c:	0800a540 	.word	0x0800a540
 8001560:	200007ac 	.word	0x200007ac
 8001564:	20000ad8 	.word	0x20000ad8
 8001568:	0800a544 	.word	0x0800a544
 800156c:	0800a55c 	.word	0x0800a55c
 8001570:	0800a5a4 	.word	0x0800a5a4
 8001574:	0800a5bc 	.word	0x0800a5bc
 8001578:	0800a5c8 	.word	0x0800a5c8
 800157c:	0800a5d4 	.word	0x0800a5d4
 8001580:	20000adc 	.word	0x20000adc
 8001584:	0800a5e0 	.word	0x0800a5e0
 8001588:	20000224 	.word	0x20000224
 800158c:	0800a610 	.word	0x0800a610
 8001590:	20000a30 	.word	0x20000a30
 8001594:	0800a624 	.word	0x0800a624
 8001598:	2000060c 	.word	0x2000060c
 800159c:	20000218 	.word	0x20000218
 80015a0:	20000210 	.word	0x20000210
 80015a4:	0800a638 	.word	0x0800a638
 80015a8:	0800a650 	.word	0x0800a650
 80015ac:	40020000 	.word	0x40020000

080015b0 <SystemClock_Config>:
/**
  * @brief System Clock Configuration
  * @retval None
  */
void SystemClock_Config(void)
{
 80015b0:	b580      	push	{r7, lr}
 80015b2:	b094      	sub	sp, #80	; 0x50
 80015b4:	af00      	add	r7, sp, #0
  RCC_OscInitTypeDef RCC_OscInitStruct = {0};
 80015b6:	f107 031c 	add.w	r3, r7, #28
 80015ba:	2234      	movs	r2, #52	; 0x34
 80015bc:	2100      	movs	r1, #0
 80015be:	4618      	mov	r0, r3
 80015c0:	f006 ff16 	bl	80083f0 <memset>
  RCC_ClkInitTypeDef RCC_ClkInitStruct = {0};
 80015c4:	f107 0308 	add.w	r3, r7, #8
 80015c8:	2200      	movs	r2, #0
 80015ca:	601a      	str	r2, [r3, #0]
 80015cc:	605a      	str	r2, [r3, #4]
 80015ce:	609a      	str	r2, [r3, #8]
 80015d0:	60da      	str	r2, [r3, #12]
 80015d2:	611a      	str	r2, [r3, #16]

  /** Configure the main internal regulator output voltage
  */
  __HAL_RCC_PWR_CLK_ENABLE();
 80015d4:	2300      	movs	r3, #0
 80015d6:	607b      	str	r3, [r7, #4]
 80015d8:	4b23      	ldr	r3, [pc, #140]	; (8001668 <SystemClock_Config+0xb8>)
 80015da:	6c1b      	ldr	r3, [r3, #64]	; 0x40
 80015dc:	4a22      	ldr	r2, [pc, #136]	; (8001668 <SystemClock_Config+0xb8>)
 80015de:	f043 5380 	orr.w	r3, r3, #268435456	; 0x10000000
 80015e2:	6413      	str	r3, [r2, #64]	; 0x40
 80015e4:	4b20      	ldr	r3, [pc, #128]	; (8001668 <SystemClock_Config+0xb8>)
 80015e6:	6c1b      	ldr	r3, [r3, #64]	; 0x40
 80015e8:	f003 5380 	and.w	r3, r3, #268435456	; 0x10000000
 80015ec:	607b      	str	r3, [r7, #4]
 80015ee:	687b      	ldr	r3, [r7, #4]
  __HAL_PWR_VOLTAGESCALING_CONFIG(PWR_REGULATOR_VOLTAGE_SCALE3);
 80015f0:	2300      	movs	r3, #0
 80015f2:	603b      	str	r3, [r7, #0]
 80015f4:	4b1d      	ldr	r3, [pc, #116]	; (800166c <SystemClock_Config+0xbc>)
 80015f6:	681b      	ldr	r3, [r3, #0]
 80015f8:	f423 4340 	bic.w	r3, r3, #49152	; 0xc000
 80015fc:	4a1b      	ldr	r2, [pc, #108]	; (800166c <SystemClock_Config+0xbc>)
 80015fe:	f443 4380 	orr.w	r3, r3, #16384	; 0x4000
 8001602:	6013      	str	r3, [r2, #0]
 8001604:	4b19      	ldr	r3, [pc, #100]	; (800166c <SystemClock_Config+0xbc>)
 8001606:	681b      	ldr	r3, [r3, #0]
 8001608:	f403 4340 	and.w	r3, r3, #49152	; 0xc000
 800160c:	603b      	str	r3, [r7, #0]
 800160e:	683b      	ldr	r3, [r7, #0]
  /** Initializes the RCC Oscillators according to the specified parameters
  * in the RCC_OscInitTypeDef structure.
  */
  RCC_OscInitStruct.OscillatorType = RCC_OSCILLATORTYPE_HSI;
 8001610:	2302      	movs	r3, #2
 8001612:	61fb      	str	r3, [r7, #28]
  RCC_OscInitStruct.HSIState = RCC_HSI_ON;
 8001614:	2301      	movs	r3, #1
 8001616:	62bb      	str	r3, [r7, #40]	; 0x28
  RCC_OscInitStruct.HSICalibrationValue = RCC_HSICALIBRATION_DEFAULT;
 8001618:	2310      	movs	r3, #16
 800161a:	62fb      	str	r3, [r7, #44]	; 0x2c
  RCC_OscInitStruct.PLL.PLLState = RCC_PLL_NONE;
 800161c:	2300      	movs	r3, #0
 800161e:	637b      	str	r3, [r7, #52]	; 0x34
  if (HAL_RCC_OscConfig(&RCC_OscInitStruct) != HAL_OK)
 8001620:	f107 031c 	add.w	r3, r7, #28
 8001624:	4618      	mov	r0, r3
 8001626:	f002 fb41 	bl	8003cac <HAL_RCC_OscConfig>
 800162a:	4603      	mov	r3, r0
 800162c:	2b00      	cmp	r3, #0
 800162e:	d001      	beq.n	8001634 <SystemClock_Config+0x84>
  {
    Error_Handler();
 8001630:	f000 f9b4 	bl	800199c <Error_Handler>
  }
  /** Initializes the CPU, AHB and APB buses clocks
  */
  RCC_ClkInitStruct.ClockType = RCC_CLOCKTYPE_HCLK|RCC_CLOCKTYPE_SYSCLK
 8001634:	230f      	movs	r3, #15
 8001636:	60bb      	str	r3, [r7, #8]
                              |RCC_CLOCKTYPE_PCLK1|RCC_CLOCKTYPE_PCLK2;
  RCC_ClkInitStruct.SYSCLKSource = RCC_SYSCLKSOURCE_HSI;
 8001638:	2300      	movs	r3, #0
 800163a:	60fb      	str	r3, [r7, #12]
  RCC_ClkInitStruct.AHBCLKDivider = RCC_SYSCLK_DIV1;
 800163c:	2300      	movs	r3, #0
 800163e:	613b      	str	r3, [r7, #16]
  RCC_ClkInitStruct.APB1CLKDivider = RCC_HCLK_DIV2;
 8001640:	f44f 5380 	mov.w	r3, #4096	; 0x1000
 8001644:	617b      	str	r3, [r7, #20]
  RCC_ClkInitStruct.APB2CLKDivider = RCC_HCLK_DIV1;
 8001646:	2300      	movs	r3, #0
 8001648:	61bb      	str	r3, [r7, #24]

  if (HAL_RCC_ClockConfig(&RCC_ClkInitStruct, FLASH_LATENCY_0) != HAL_OK)
 800164a:	f107 0308 	add.w	r3, r7, #8
 800164e:	2100      	movs	r1, #0
 8001650:	4618      	mov	r0, r3
 8001652:	f002 f871 	bl	8003738 <HAL_RCC_ClockConfig>
 8001656:	4603      	mov	r3, r0
 8001658:	2b00      	cmp	r3, #0
 800165a:	d001      	beq.n	8001660 <SystemClock_Config+0xb0>
  {
    Error_Handler();
 800165c:	f000 f99e 	bl	800199c <Error_Handler>
  }
}
 8001660:	bf00      	nop
 8001662:	3750      	adds	r7, #80	; 0x50
 8001664:	46bd      	mov	sp, r7
 8001666:	bd80      	pop	{r7, pc}
 8001668:	40023800 	.word	0x40023800
 800166c:	40007000 	.word	0x40007000

08001670 <MX_I2C1_Init>:
  * @brief I2C1 Initialization Function
  * @param None
  * @retval None
  */
static void MX_I2C1_Init(void)
{
 8001670:	b580      	push	{r7, lr}
 8001672:	af00      	add	r7, sp, #0
  /* USER CODE END I2C1_Init 0 */

  /* USER CODE BEGIN I2C1_Init 1 */

  /* USER CODE END I2C1_Init 1 */
  hi2c1.Instance = I2C1;
 8001674:	4b12      	ldr	r3, [pc, #72]	; (80016c0 <MX_I2C1_Init+0x50>)
 8001676:	4a13      	ldr	r2, [pc, #76]	; (80016c4 <MX_I2C1_Init+0x54>)
 8001678:	601a      	str	r2, [r3, #0]
  hi2c1.Init.ClockSpeed = 100000;
 800167a:	4b11      	ldr	r3, [pc, #68]	; (80016c0 <MX_I2C1_Init+0x50>)
 800167c:	4a12      	ldr	r2, [pc, #72]	; (80016c8 <MX_I2C1_Init+0x58>)
 800167e:	605a      	str	r2, [r3, #4]
  hi2c1.Init.DutyCycle = I2C_DUTYCYCLE_2;
 8001680:	4b0f      	ldr	r3, [pc, #60]	; (80016c0 <MX_I2C1_Init+0x50>)
 8001682:	2200      	movs	r2, #0
 8001684:	609a      	str	r2, [r3, #8]
  hi2c1.Init.OwnAddress1 = 0;
 8001686:	4b0e      	ldr	r3, [pc, #56]	; (80016c0 <MX_I2C1_Init+0x50>)
 8001688:	2200      	movs	r2, #0
 800168a:	60da      	str	r2, [r3, #12]
  hi2c1.Init.AddressingMode = I2C_ADDRESSINGMODE_7BIT;
 800168c:	4b0c      	ldr	r3, [pc, #48]	; (80016c0 <MX_I2C1_Init+0x50>)
 800168e:	f44f 4280 	mov.w	r2, #16384	; 0x4000
 8001692:	611a      	str	r2, [r3, #16]
  hi2c1.Init.DualAddressMode = I2C_DUALADDRESS_DISABLE;
 8001694:	4b0a      	ldr	r3, [pc, #40]	; (80016c0 <MX_I2C1_Init+0x50>)
 8001696:	2200      	movs	r2, #0
 8001698:	615a      	str	r2, [r3, #20]
  hi2c1.Init.OwnAddress2 = 0;
 800169a:	4b09      	ldr	r3, [pc, #36]	; (80016c0 <MX_I2C1_Init+0x50>)
 800169c:	2200      	movs	r2, #0
 800169e:	619a      	str	r2, [r3, #24]
  hi2c1.Init.GeneralCallMode = I2C_GENERALCALL_DISABLE;
 80016a0:	4b07      	ldr	r3, [pc, #28]	; (80016c0 <MX_I2C1_Init+0x50>)
 80016a2:	2200      	movs	r2, #0
 80016a4:	61da      	str	r2, [r3, #28]
  hi2c1.Init.NoStretchMode = I2C_NOSTRETCH_DISABLE;
 80016a6:	4b06      	ldr	r3, [pc, #24]	; (80016c0 <MX_I2C1_Init+0x50>)
 80016a8:	2200      	movs	r2, #0
 80016aa:	621a      	str	r2, [r3, #32]
  if (HAL_I2C_Init(&hi2c1) != HAL_OK)
 80016ac:	4804      	ldr	r0, [pc, #16]	; (80016c0 <MX_I2C1_Init+0x50>)
 80016ae:	f001 f88f 	bl	80027d0 <HAL_I2C_Init>
 80016b2:	4603      	mov	r3, r0
 80016b4:	2b00      	cmp	r3, #0
 80016b6:	d001      	beq.n	80016bc <MX_I2C1_Init+0x4c>
  {
    Error_Handler();
 80016b8:	f000 f970 	bl	800199c <Error_Handler>
  }
  /* USER CODE BEGIN I2C1_Init 2 */

  /* USER CODE END I2C1_Init 2 */

}
 80016bc:	bf00      	nop
 80016be:	bd80      	pop	{r7, pc}
 80016c0:	200009dc 	.word	0x200009dc
 80016c4:	40005400 	.word	0x40005400
 80016c8:	000186a0 	.word	0x000186a0

080016cc <MX_SPI2_Init>:
  * @brief SPI2 Initialization Function
  * @param None
  * @retval None
  */
static void MX_SPI2_Init(void)
{
 80016cc:	b580      	push	{r7, lr}
 80016ce:	af00      	add	r7, sp, #0

  /* USER CODE BEGIN SPI2_Init 1 */

  /* USER CODE END SPI2_Init 1 */
  /* SPI2 parameter configuration*/
  hspi2.Instance = SPI2;
 80016d0:	4b17      	ldr	r3, [pc, #92]	; (8001730 <MX_SPI2_Init+0x64>)
 80016d2:	4a18      	ldr	r2, [pc, #96]	; (8001734 <MX_SPI2_Init+0x68>)
 80016d4:	601a      	str	r2, [r3, #0]
  hspi2.Init.Mode = SPI_MODE_MASTER;
 80016d6:	4b16      	ldr	r3, [pc, #88]	; (8001730 <MX_SPI2_Init+0x64>)
 80016d8:	f44f 7282 	mov.w	r2, #260	; 0x104
 80016dc:	605a      	str	r2, [r3, #4]
  hspi2.Init.Direction = SPI_DIRECTION_2LINES;
 80016de:	4b14      	ldr	r3, [pc, #80]	; (8001730 <MX_SPI2_Init+0x64>)
 80016e0:	2200      	movs	r2, #0
 80016e2:	609a      	str	r2, [r3, #8]
  hspi2.Init.DataSize = SPI_DATASIZE_8BIT;
 80016e4:	4b12      	ldr	r3, [pc, #72]	; (8001730 <MX_SPI2_Init+0x64>)
 80016e6:	2200      	movs	r2, #0
 80016e8:	60da      	str	r2, [r3, #12]
  hspi2.Init.CLKPolarity = SPI_POLARITY_LOW;
 80016ea:	4b11      	ldr	r3, [pc, #68]	; (8001730 <MX_SPI2_Init+0x64>)
 80016ec:	2200      	movs	r2, #0
 80016ee:	611a      	str	r2, [r3, #16]
  hspi2.Init.CLKPhase = SPI_PHASE_1EDGE;
 80016f0:	4b0f      	ldr	r3, [pc, #60]	; (8001730 <MX_SPI2_Init+0x64>)
 80016f2:	2200      	movs	r2, #0
 80016f4:	615a      	str	r2, [r3, #20]
  hspi2.Init.NSS = SPI_NSS_SOFT;
 80016f6:	4b0e      	ldr	r3, [pc, #56]	; (8001730 <MX_SPI2_Init+0x64>)
 80016f8:	f44f 7200 	mov.w	r2, #512	; 0x200
 80016fc:	619a      	str	r2, [r3, #24]
  hspi2.Init.BaudRatePrescaler = SPI_BAUDRATEPRESCALER_2;
 80016fe:	4b0c      	ldr	r3, [pc, #48]	; (8001730 <MX_SPI2_Init+0x64>)
 8001700:	2200      	movs	r2, #0
 8001702:	61da      	str	r2, [r3, #28]
  hspi2.Init.FirstBit = SPI_FIRSTBIT_MSB;
 8001704:	4b0a      	ldr	r3, [pc, #40]	; (8001730 <MX_SPI2_Init+0x64>)
 8001706:	2200      	movs	r2, #0
 8001708:	621a      	str	r2, [r3, #32]
  hspi2.Init.TIMode = SPI_TIMODE_DISABLE;
 800170a:	4b09      	ldr	r3, [pc, #36]	; (8001730 <MX_SPI2_Init+0x64>)
 800170c:	2200      	movs	r2, #0
 800170e:	625a      	str	r2, [r3, #36]	; 0x24
  hspi2.Init.CRCCalculation = SPI_CRCCALCULATION_DISABLE;
 8001710:	4b07      	ldr	r3, [pc, #28]	; (8001730 <MX_SPI2_Init+0x64>)
 8001712:	2200      	movs	r2, #0
 8001714:	629a      	str	r2, [r3, #40]	; 0x28
  hspi2.Init.CRCPolynomial = 10;
 8001716:	4b06      	ldr	r3, [pc, #24]	; (8001730 <MX_SPI2_Init+0x64>)
 8001718:	220a      	movs	r2, #10
 800171a:	62da      	str	r2, [r3, #44]	; 0x2c
  if (HAL_SPI_Init(&hspi2) != HAL_OK)
 800171c:	4804      	ldr	r0, [pc, #16]	; (8001730 <MX_SPI2_Init+0x64>)
 800171e:	f002 fd1f 	bl	8004160 <HAL_SPI_Init>
 8001722:	4603      	mov	r3, r0
 8001724:	2b00      	cmp	r3, #0
 8001726:	d001      	beq.n	800172c <MX_SPI2_Init+0x60>
  {
    Error_Handler();
 8001728:	f000 f938 	bl	800199c <Error_Handler>
  }
  /* USER CODE BEGIN SPI2_Init 2 */

  /* USER CODE END SPI2_Init 2 */

}
 800172c:	bf00      	nop
 800172e:	bd80      	pop	{r7, pc}
 8001730:	20000754 	.word	0x20000754
 8001734:	40003800 	.word	0x40003800

08001738 <MX_USART2_UART_Init>:
  * @brief USART2 Initialization Function
  * @param None
  * @retval None
  */
static void MX_USART2_UART_Init(void)
{
 8001738:	b580      	push	{r7, lr}
 800173a:	af00      	add	r7, sp, #0
  /* USER CODE END USART2_Init 0 */

  /* USER CODE BEGIN USART2_Init 1 */

  /* USER CODE END USART2_Init 1 */
  huart2.Instance = USART2;
 800173c:	4b11      	ldr	r3, [pc, #68]	; (8001784 <MX_USART2_UART_Init+0x4c>)
 800173e:	4a12      	ldr	r2, [pc, #72]	; (8001788 <MX_USART2_UART_Init+0x50>)
 8001740:	601a      	str	r2, [r3, #0]
  huart2.Init.BaudRate = 115200;
 8001742:	4b10      	ldr	r3, [pc, #64]	; (8001784 <MX_USART2_UART_Init+0x4c>)
 8001744:	f44f 32e1 	mov.w	r2, #115200	; 0x1c200
 8001748:	605a      	str	r2, [r3, #4]
  huart2.Init.WordLength = UART_WORDLENGTH_8B;
 800174a:	4b0e      	ldr	r3, [pc, #56]	; (8001784 <MX_USART2_UART_Init+0x4c>)
 800174c:	2200      	movs	r2, #0
 800174e:	609a      	str	r2, [r3, #8]
  huart2.Init.StopBits = UART_STOPBITS_1;
 8001750:	4b0c      	ldr	r3, [pc, #48]	; (8001784 <MX_USART2_UART_Init+0x4c>)
 8001752:	2200      	movs	r2, #0
 8001754:	60da      	str	r2, [r3, #12]
  huart2.Init.Parity = UART_PARITY_NONE;
 8001756:	4b0b      	ldr	r3, [pc, #44]	; (8001784 <MX_USART2_UART_Init+0x4c>)
 8001758:	2200      	movs	r2, #0
 800175a:	611a      	str	r2, [r3, #16]
  huart2.Init.Mode = UART_MODE_TX_RX;
 800175c:	4b09      	ldr	r3, [pc, #36]	; (8001784 <MX_USART2_UART_Init+0x4c>)
 800175e:	220c      	movs	r2, #12
 8001760:	615a      	str	r2, [r3, #20]
  huart2.Init.HwFlowCtl = UART_HWCONTROL_NONE;
 8001762:	4b08      	ldr	r3, [pc, #32]	; (8001784 <MX_USART2_UART_Init+0x4c>)
 8001764:	2200      	movs	r2, #0
 8001766:	619a      	str	r2, [r3, #24]
  huart2.Init.OverSampling = UART_OVERSAMPLING_16;
 8001768:	4b06      	ldr	r3, [pc, #24]	; (8001784 <MX_USART2_UART_Init+0x4c>)
 800176a:	2200      	movs	r2, #0
 800176c:	61da      	str	r2, [r3, #28]
  if (HAL_UART_Init(&huart2) != HAL_OK)
 800176e:	4805      	ldr	r0, [pc, #20]	; (8001784 <MX_USART2_UART_Init+0x4c>)
 8001770:	f002 ffa8 	bl	80046c4 <HAL_UART_Init>
 8001774:	4603      	mov	r3, r0
 8001776:	2b00      	cmp	r3, #0
 8001778:	d001      	beq.n	800177e <MX_USART2_UART_Init+0x46>
  {
    Error_Handler();
 800177a:	f000 f90f 	bl	800199c <Error_Handler>
  }
  /* USER CODE BEGIN USART2_Init 2 */

  /* USER CODE END USART2_Init 2 */

}
 800177e:	bf00      	nop
 8001780:	bd80      	pop	{r7, pc}
 8001782:	bf00      	nop
 8001784:	20000a98 	.word	0x20000a98
 8001788:	40004400 	.word	0x40004400

0800178c <MX_GPIO_Init>:
  * @brief GPIO Initialization Function
  * @param None
  * @retval None
  */
static void MX_GPIO_Init(void)
{
 800178c:	b580      	push	{r7, lr}
 800178e:	b08a      	sub	sp, #40	; 0x28
 8001790:	af00      	add	r7, sp, #0
  GPIO_InitTypeDef GPIO_InitStruct = {0};
 8001792:	f107 0314 	add.w	r3, r7, #20
 8001796:	2200      	movs	r2, #0
 8001798:	601a      	str	r2, [r3, #0]
 800179a:	605a      	str	r2, [r3, #4]
 800179c:	609a      	str	r2, [r3, #8]
 800179e:	60da      	str	r2, [r3, #12]
 80017a0:	611a      	str	r2, [r3, #16]

  /* GPIO Ports Clock Enable */
  __HAL_RCC_GPIOC_CLK_ENABLE();
 80017a2:	2300      	movs	r3, #0
 80017a4:	613b      	str	r3, [r7, #16]
 80017a6:	4b3d      	ldr	r3, [pc, #244]	; (800189c <MX_GPIO_Init+0x110>)
 80017a8:	6b1b      	ldr	r3, [r3, #48]	; 0x30
 80017aa:	4a3c      	ldr	r2, [pc, #240]	; (800189c <MX_GPIO_Init+0x110>)
 80017ac:	f043 0304 	orr.w	r3, r3, #4
 80017b0:	6313      	str	r3, [r2, #48]	; 0x30
 80017b2:	4b3a      	ldr	r3, [pc, #232]	; (800189c <MX_GPIO_Init+0x110>)
 80017b4:	6b1b      	ldr	r3, [r3, #48]	; 0x30
 80017b6:	f003 0304 	and.w	r3, r3, #4
 80017ba:	613b      	str	r3, [r7, #16]
 80017bc:	693b      	ldr	r3, [r7, #16]
  __HAL_RCC_GPIOH_CLK_ENABLE();
 80017be:	2300      	movs	r3, #0
 80017c0:	60fb      	str	r3, [r7, #12]
 80017c2:	4b36      	ldr	r3, [pc, #216]	; (800189c <MX_GPIO_Init+0x110>)
 80017c4:	6b1b      	ldr	r3, [r3, #48]	; 0x30
 80017c6:	4a35      	ldr	r2, [pc, #212]	; (800189c <MX_GPIO_Init+0x110>)
 80017c8:	f043 0380 	orr.w	r3, r3, #128	; 0x80
 80017cc:	6313      	str	r3, [r2, #48]	; 0x30
 80017ce:	4b33      	ldr	r3, [pc, #204]	; (800189c <MX_GPIO_Init+0x110>)
 80017d0:	6b1b      	ldr	r3, [r3, #48]	; 0x30
 80017d2:	f003 0380 	and.w	r3, r3, #128	; 0x80
 80017d6:	60fb      	str	r3, [r7, #12]
 80017d8:	68fb      	ldr	r3, [r7, #12]
  __HAL_RCC_GPIOA_CLK_ENABLE();
 80017da:	2300      	movs	r3, #0
 80017dc:	60bb      	str	r3, [r7, #8]
 80017de:	4b2f      	ldr	r3, [pc, #188]	; (800189c <MX_GPIO_Init+0x110>)
 80017e0:	6b1b      	ldr	r3, [r3, #48]	; 0x30
 80017e2:	4a2e      	ldr	r2, [pc, #184]	; (800189c <MX_GPIO_Init+0x110>)
 80017e4:	f043 0301 	orr.w	r3, r3, #1
 80017e8:	6313      	str	r3, [r2, #48]	; 0x30
 80017ea:	4b2c      	ldr	r3, [pc, #176]	; (800189c <MX_GPIO_Init+0x110>)
 80017ec:	6b1b      	ldr	r3, [r3, #48]	; 0x30
 80017ee:	f003 0301 	and.w	r3, r3, #1
 80017f2:	60bb      	str	r3, [r7, #8]
 80017f4:	68bb      	ldr	r3, [r7, #8]
  __HAL_RCC_GPIOB_CLK_ENABLE();
 80017f6:	2300      	movs	r3, #0
 80017f8:	607b      	str	r3, [r7, #4]
 80017fa:	4b28      	ldr	r3, [pc, #160]	; (800189c <MX_GPIO_Init+0x110>)
 80017fc:	6b1b      	ldr	r3, [r3, #48]	; 0x30
 80017fe:	4a27      	ldr	r2, [pc, #156]	; (800189c <MX_GPIO_Init+0x110>)
 8001800:	f043 0302 	orr.w	r3, r3, #2
 8001804:	6313      	str	r3, [r2, #48]	; 0x30
 8001806:	4b25      	ldr	r3, [pc, #148]	; (800189c <MX_GPIO_Init+0x110>)
 8001808:	6b1b      	ldr	r3, [r3, #48]	; 0x30
 800180a:	f003 0302 	and.w	r3, r3, #2
 800180e:	607b      	str	r3, [r7, #4]
 8001810:	687b      	ldr	r3, [r7, #4]

  /*Configure GPIO pin Output Level */
  HAL_GPIO_WritePin(SD_CS_GPIO_Port, SD_CS_Pin, GPIO_PIN_RESET);
 8001812:	2200      	movs	r2, #0
 8001814:	2101      	movs	r1, #1
 8001816:	4822      	ldr	r0, [pc, #136]	; (80018a0 <MX_GPIO_Init+0x114>)
 8001818:	f000 ff8e 	bl	8002738 <HAL_GPIO_WritePin>

  /*Configure GPIO pin Output Level */
  HAL_GPIO_WritePin(LD2_GPIO_Port, LD2_Pin, GPIO_PIN_RESET);
 800181c:	2200      	movs	r2, #0
 800181e:	2120      	movs	r1, #32
 8001820:	4820      	ldr	r0, [pc, #128]	; (80018a4 <MX_GPIO_Init+0x118>)
 8001822:	f000 ff89 	bl	8002738 <HAL_GPIO_WritePin>

  /*Configure GPIO pin Output Level */
  HAL_GPIO_WritePin(CS_GPIO_Port, CS_Pin, GPIO_PIN_SET);
 8001826:	2201      	movs	r2, #1
 8001828:	2180      	movs	r1, #128	; 0x80
 800182a:	481e      	ldr	r0, [pc, #120]	; (80018a4 <MX_GPIO_Init+0x118>)
 800182c:	f000 ff84 	bl	8002738 <HAL_GPIO_WritePin>

  /*Configure GPIO pin : B1_Pin */
  GPIO_InitStruct.Pin = B1_Pin;
 8001830:	f44f 5300 	mov.w	r3, #8192	; 0x2000
 8001834:	617b      	str	r3, [r7, #20]
  GPIO_InitStruct.Mode = GPIO_MODE_IT_FALLING;
 8001836:	4b1c      	ldr	r3, [pc, #112]	; (80018a8 <MX_GPIO_Init+0x11c>)
 8001838:	61bb      	str	r3, [r7, #24]
  GPIO_InitStruct.Pull = GPIO_NOPULL;
 800183a:	2300      	movs	r3, #0
 800183c:	61fb      	str	r3, [r7, #28]
  HAL_GPIO_Init(B1_GPIO_Port, &GPIO_InitStruct);
 800183e:	f107 0314 	add.w	r3, r7, #20
 8001842:	4619      	mov	r1, r3
 8001844:	4816      	ldr	r0, [pc, #88]	; (80018a0 <MX_GPIO_Init+0x114>)
 8001846:	f000 fde5 	bl	8002414 <HAL_GPIO_Init>

  /*Configure GPIO pin : SD_CS_Pin */
  GPIO_InitStruct.Pin = SD_CS_Pin;
 800184a:	2301      	movs	r3, #1
 800184c:	617b      	str	r3, [r7, #20]
  GPIO_InitStruct.Mode = GPIO_MODE_OUTPUT_PP;
 800184e:	2301      	movs	r3, #1
 8001850:	61bb      	str	r3, [r7, #24]
  GPIO_InitStruct.Pull = GPIO_NOPULL;
 8001852:	2300      	movs	r3, #0
 8001854:	61fb      	str	r3, [r7, #28]
  GPIO_InitStruct.Speed = GPIO_SPEED_FREQ_LOW;
 8001856:	2300      	movs	r3, #0
 8001858:	623b      	str	r3, [r7, #32]
  HAL_GPIO_Init(SD_CS_GPIO_Port, &GPIO_InitStruct);
 800185a:	f107 0314 	add.w	r3, r7, #20
 800185e:	4619      	mov	r1, r3
 8001860:	480f      	ldr	r0, [pc, #60]	; (80018a0 <MX_GPIO_Init+0x114>)
 8001862:	f000 fdd7 	bl	8002414 <HAL_GPIO_Init>

  /*Configure GPIO pins : LD2_Pin CS_Pin */
  GPIO_InitStruct.Pin = LD2_Pin|CS_Pin;
 8001866:	23a0      	movs	r3, #160	; 0xa0
 8001868:	617b      	str	r3, [r7, #20]
  GPIO_InitStruct.Mode = GPIO_MODE_OUTPUT_PP;
 800186a:	2301      	movs	r3, #1
 800186c:	61bb      	str	r3, [r7, #24]
  GPIO_InitStruct.Pull = GPIO_NOPULL;
 800186e:	2300      	movs	r3, #0
 8001870:	61fb      	str	r3, [r7, #28]
  GPIO_InitStruct.Speed = GPIO_SPEED_FREQ_LOW;
 8001872:	2300      	movs	r3, #0
 8001874:	623b      	str	r3, [r7, #32]
  HAL_GPIO_Init(GPIOA, &GPIO_InitStruct);
 8001876:	f107 0314 	add.w	r3, r7, #20
 800187a:	4619      	mov	r1, r3
 800187c:	4809      	ldr	r0, [pc, #36]	; (80018a4 <MX_GPIO_Init+0x118>)
 800187e:	f000 fdc9 	bl	8002414 <HAL_GPIO_Init>

  /* EXTI interrupt init*/
  HAL_NVIC_SetPriority(EXTI15_10_IRQn, 0, 0);
 8001882:	2200      	movs	r2, #0
 8001884:	2100      	movs	r1, #0
 8001886:	2028      	movs	r0, #40	; 0x28
 8001888:	f000 fbe5 	bl	8002056 <HAL_NVIC_SetPriority>
  HAL_NVIC_EnableIRQ(EXTI15_10_IRQn);
 800188c:	2028      	movs	r0, #40	; 0x28
 800188e:	f000 fbfe 	bl	800208e <HAL_NVIC_EnableIRQ>

}
 8001892:	bf00      	nop
 8001894:	3728      	adds	r7, #40	; 0x28
 8001896:	46bd      	mov	sp, r7
 8001898:	bd80      	pop	{r7, pc}
 800189a:	bf00      	nop
 800189c:	40023800 	.word	0x40023800
 80018a0:	40020800 	.word	0x40020800
 80018a4:	40020000 	.word	0x40020000
 80018a8:	10210000 	.word	0x10210000

080018ac <platform_write>:

/* USER CODE BEGIN 4 */
static int32_t platform_write(void *handle, uint8_t reg, uint8_t *bufp, uint16_t len)
{
 80018ac:	b580      	push	{r7, lr}
 80018ae:	b088      	sub	sp, #32
 80018b0:	af04      	add	r7, sp, #16
 80018b2:	60f8      	str	r0, [r7, #12]
 80018b4:	607a      	str	r2, [r7, #4]
 80018b6:	461a      	mov	r2, r3
 80018b8:	460b      	mov	r3, r1
 80018ba:	72fb      	strb	r3, [r7, #11]
 80018bc:	4613      	mov	r3, r2
 80018be:	813b      	strh	r3, [r7, #8]
  /* Write multiple command */
  reg |= 0x80;
 80018c0:	7afb      	ldrb	r3, [r7, #11]
 80018c2:	f063 037f 	orn	r3, r3, #127	; 0x7f
 80018c6:	72fb      	strb	r3, [r7, #11]
  HAL_I2C_Mem_Write(handle, LIS3DH_I2C_ADD_L, reg, I2C_MEMADD_SIZE_8BIT, bufp, len, 1000);
 80018c8:	7afb      	ldrb	r3, [r7, #11]
 80018ca:	b29a      	uxth	r2, r3
 80018cc:	f44f 737a 	mov.w	r3, #1000	; 0x3e8
 80018d0:	9302      	str	r3, [sp, #8]
 80018d2:	893b      	ldrh	r3, [r7, #8]
 80018d4:	9301      	str	r3, [sp, #4]
 80018d6:	687b      	ldr	r3, [r7, #4]
 80018d8:	9300      	str	r3, [sp, #0]
 80018da:	2301      	movs	r3, #1
 80018dc:	2131      	movs	r1, #49	; 0x31
 80018de:	68f8      	ldr	r0, [r7, #12]
 80018e0:	f001 f8ae 	bl	8002a40 <HAL_I2C_Mem_Write>
  return 0;
 80018e4:	2300      	movs	r3, #0
}
 80018e6:	4618      	mov	r0, r3
 80018e8:	3710      	adds	r7, #16
 80018ea:	46bd      	mov	sp, r7
 80018ec:	bd80      	pop	{r7, pc}

080018ee <platform_read>:
 * @param  bufp      pointer to buffer that store the data read
 * @param  len       number of consecutive register to read
 *
 */
static int32_t platform_read(void *handle, uint8_t reg, uint8_t *bufp, uint16_t len)
{
 80018ee:	b580      	push	{r7, lr}
 80018f0:	b088      	sub	sp, #32
 80018f2:	af04      	add	r7, sp, #16
 80018f4:	60f8      	str	r0, [r7, #12]
 80018f6:	607a      	str	r2, [r7, #4]
 80018f8:	461a      	mov	r2, r3
 80018fa:	460b      	mov	r3, r1
 80018fc:	72fb      	strb	r3, [r7, #11]
 80018fe:	4613      	mov	r3, r2
 8001900:	813b      	strh	r3, [r7, #8]
  /* Read multiple command */
  reg |= 0x80;
 8001902:	7afb      	ldrb	r3, [r7, #11]
 8001904:	f063 037f 	orn	r3, r3, #127	; 0x7f
 8001908:	72fb      	strb	r3, [r7, #11]
  HAL_I2C_Mem_Read(handle, LIS3DH_I2C_ADD_L, reg, I2C_MEMADD_SIZE_8BIT, bufp, len, 1000);
 800190a:	7afb      	ldrb	r3, [r7, #11]
 800190c:	b29a      	uxth	r2, r3
 800190e:	f44f 737a 	mov.w	r3, #1000	; 0x3e8
 8001912:	9302      	str	r3, [sp, #8]
 8001914:	893b      	ldrh	r3, [r7, #8]
 8001916:	9301      	str	r3, [sp, #4]
 8001918:	687b      	ldr	r3, [r7, #4]
 800191a:	9300      	str	r3, [sp, #0]
 800191c:	2301      	movs	r3, #1
 800191e:	2131      	movs	r1, #49	; 0x31
 8001920:	68f8      	ldr	r0, [r7, #12]
 8001922:	f001 f987 	bl	8002c34 <HAL_I2C_Mem_Read>

  return 0;
 8001926:	2300      	movs	r3, #0
}
 8001928:	4618      	mov	r0, r3
 800192a:	3710      	adds	r7, #16
 800192c:	46bd      	mov	sp, r7
 800192e:	bd80      	pop	{r7, pc}

08001930 <HAL_GPIO_EXTI_Callback>:

void HAL_GPIO_EXTI_Callback(uint16_t GPIO_Pin)
{
 8001930:	b580      	push	{r7, lr}
 8001932:	b082      	sub	sp, #8
 8001934:	af00      	add	r7, sp, #0
 8001936:	4603      	mov	r3, r0
 8001938:	80fb      	strh	r3, [r7, #6]

		switch (STATE) {
 800193a:	4b13      	ldr	r3, [pc, #76]	; (8001988 <HAL_GPIO_EXTI_Callback+0x58>)
 800193c:	681b      	ldr	r3, [r3, #0]
 800193e:	2b00      	cmp	r3, #0
 8001940:	d00b      	beq.n	800195a <HAL_GPIO_EXTI_Callback+0x2a>
 8001942:	2b01      	cmp	r3, #1
 8001944:	d000      	beq.n	8001948 <HAL_GPIO_EXTI_Callback+0x18>
							fres = f_open(&fil, "write.txt",FA_WRITE | FA_OPEN_ALWAYS);
							HAL_GPIO_WritePin(LD2_GPIO_Port,LD2_Pin,GPIO_PIN_SET);
							break;

		}
}
 8001946:	e01a      	b.n	800197e <HAL_GPIO_EXTI_Callback+0x4e>
							STATE = 2;
 8001948:	4b0f      	ldr	r3, [pc, #60]	; (8001988 <HAL_GPIO_EXTI_Callback+0x58>)
 800194a:	2202      	movs	r2, #2
 800194c:	601a      	str	r2, [r3, #0]
							HAL_GPIO_WritePin(LD2_GPIO_Port,LD2_Pin,GPIO_PIN_RESET);
 800194e:	2200      	movs	r2, #0
 8001950:	2120      	movs	r1, #32
 8001952:	480e      	ldr	r0, [pc, #56]	; (800198c <HAL_GPIO_EXTI_Callback+0x5c>)
 8001954:	f000 fef0 	bl	8002738 <HAL_GPIO_WritePin>
							break;
 8001958:	e011      	b.n	800197e <HAL_GPIO_EXTI_Callback+0x4e>
							STATE = 1;
 800195a:	4b0b      	ldr	r3, [pc, #44]	; (8001988 <HAL_GPIO_EXTI_Callback+0x58>)
 800195c:	2201      	movs	r2, #1
 800195e:	601a      	str	r2, [r3, #0]
							fres = f_open(&fil, "write.txt",FA_WRITE | FA_OPEN_ALWAYS);
 8001960:	2212      	movs	r2, #18
 8001962:	490b      	ldr	r1, [pc, #44]	; (8001990 <HAL_GPIO_EXTI_Callback+0x60>)
 8001964:	480b      	ldr	r0, [pc, #44]	; (8001994 <HAL_GPIO_EXTI_Callback+0x64>)
 8001966:	f005 fe23 	bl	80075b0 <f_open>
 800196a:	4603      	mov	r3, r0
 800196c:	461a      	mov	r2, r3
 800196e:	4b0a      	ldr	r3, [pc, #40]	; (8001998 <HAL_GPIO_EXTI_Callback+0x68>)
 8001970:	701a      	strb	r2, [r3, #0]
							HAL_GPIO_WritePin(LD2_GPIO_Port,LD2_Pin,GPIO_PIN_SET);
 8001972:	2201      	movs	r2, #1
 8001974:	2120      	movs	r1, #32
 8001976:	4805      	ldr	r0, [pc, #20]	; (800198c <HAL_GPIO_EXTI_Callback+0x5c>)
 8001978:	f000 fede 	bl	8002738 <HAL_GPIO_WritePin>
							break;
 800197c:	bf00      	nop
}
 800197e:	bf00      	nop
 8001980:	3708      	adds	r7, #8
 8001982:	46bd      	mov	sp, r7
 8001984:	bd80      	pop	{r7, pc}
 8001986:	bf00      	nop
 8001988:	2000060c 	.word	0x2000060c
 800198c:	40020000 	.word	0x40020000
 8001990:	0800a5d4 	.word	0x0800a5d4
 8001994:	20000adc 	.word	0x20000adc
 8001998:	20000ad8 	.word	0x20000ad8

0800199c <Error_Handler>:
/**
  * @brief  This function is executed in case of error occurrence.
  * @retval None
  */
void Error_Handler(void)
{
 800199c:	b480      	push	{r7}
 800199e:	af00      	add	r7, sp, #0
  /* USER CODE BEGIN Error_Handler_Debug */
  /* User can add his own implementation to report the HAL error return state */

  /* USER CODE END Error_Handler_Debug */
}
 80019a0:	bf00      	nop
 80019a2:	46bd      	mov	sp, r7
 80019a4:	f85d 7b04 	ldr.w	r7, [sp], #4
 80019a8:	4770      	bx	lr
	...

080019ac <HAL_MspInit>:
/* USER CODE END 0 */
/**
  * Initializes the Global MSP.
  */
void HAL_MspInit(void)
{
 80019ac:	b580      	push	{r7, lr}
 80019ae:	b082      	sub	sp, #8
 80019b0:	af00      	add	r7, sp, #0
  /* USER CODE BEGIN MspInit 0 */

  /* USER CODE END MspInit 0 */

  __HAL_RCC_SYSCFG_CLK_ENABLE();
 80019b2:	2300      	movs	r3, #0
 80019b4:	607b      	str	r3, [r7, #4]
 80019b6:	4b14      	ldr	r3, [pc, #80]	; (8001a08 <HAL_MspInit+0x5c>)
 80019b8:	6c5b      	ldr	r3, [r3, #68]	; 0x44
 80019ba:	4a13      	ldr	r2, [pc, #76]	; (8001a08 <HAL_MspInit+0x5c>)
 80019bc:	f443 4380 	orr.w	r3, r3, #16384	; 0x4000
 80019c0:	6453      	str	r3, [r2, #68]	; 0x44
 80019c2:	4b11      	ldr	r3, [pc, #68]	; (8001a08 <HAL_MspInit+0x5c>)
 80019c4:	6c5b      	ldr	r3, [r3, #68]	; 0x44
 80019c6:	f403 4380 	and.w	r3, r3, #16384	; 0x4000
 80019ca:	607b      	str	r3, [r7, #4]
 80019cc:	687b      	ldr	r3, [r7, #4]
  __HAL_RCC_PWR_CLK_ENABLE();
 80019ce:	2300      	movs	r3, #0
 80019d0:	603b      	str	r3, [r7, #0]
 80019d2:	4b0d      	ldr	r3, [pc, #52]	; (8001a08 <HAL_MspInit+0x5c>)
 80019d4:	6c1b      	ldr	r3, [r3, #64]	; 0x40
 80019d6:	4a0c      	ldr	r2, [pc, #48]	; (8001a08 <HAL_MspInit+0x5c>)
 80019d8:	f043 5380 	orr.w	r3, r3, #268435456	; 0x10000000
 80019dc:	6413      	str	r3, [r2, #64]	; 0x40
 80019de:	4b0a      	ldr	r3, [pc, #40]	; (8001a08 <HAL_MspInit+0x5c>)
 80019e0:	6c1b      	ldr	r3, [r3, #64]	; 0x40
 80019e2:	f003 5380 	and.w	r3, r3, #268435456	; 0x10000000
 80019e6:	603b      	str	r3, [r7, #0]
 80019e8:	683b      	ldr	r3, [r7, #0]

  HAL_NVIC_SetPriorityGrouping(NVIC_PRIORITYGROUP_0);
 80019ea:	2007      	movs	r0, #7
 80019ec:	f000 fb28 	bl	8002040 <HAL_NVIC_SetPriorityGrouping>

  /* System interrupt init*/

  /* Peripheral interrupt init */
  /* FLASH_IRQn interrupt configuration */
  HAL_NVIC_SetPriority(FLASH_IRQn, 0, 0);
 80019f0:	2200      	movs	r2, #0
 80019f2:	2100      	movs	r1, #0
 80019f4:	2004      	movs	r0, #4
 80019f6:	f000 fb2e 	bl	8002056 <HAL_NVIC_SetPriority>
  HAL_NVIC_EnableIRQ(FLASH_IRQn);
 80019fa:	2004      	movs	r0, #4
 80019fc:	f000 fb47 	bl	800208e <HAL_NVIC_EnableIRQ>

  /* USER CODE BEGIN MspInit 1 */

  /* USER CODE END MspInit 1 */
}
 8001a00:	bf00      	nop
 8001a02:	3708      	adds	r7, #8
 8001a04:	46bd      	mov	sp, r7
 8001a06:	bd80      	pop	{r7, pc}
 8001a08:	40023800 	.word	0x40023800

08001a0c <HAL_I2C_MspInit>:
* This function configures the hardware resources used in this example
* @param hi2c: I2C handle pointer
* @retval None
*/
void HAL_I2C_MspInit(I2C_HandleTypeDef* hi2c)
{
 8001a0c:	b580      	push	{r7, lr}
 8001a0e:	b08a      	sub	sp, #40	; 0x28
 8001a10:	af00      	add	r7, sp, #0
 8001a12:	6078      	str	r0, [r7, #4]
  GPIO_InitTypeDef GPIO_InitStruct = {0};
 8001a14:	f107 0314 	add.w	r3, r7, #20
 8001a18:	2200      	movs	r2, #0
 8001a1a:	601a      	str	r2, [r3, #0]
 8001a1c:	605a      	str	r2, [r3, #4]
 8001a1e:	609a      	str	r2, [r3, #8]
 8001a20:	60da      	str	r2, [r3, #12]
 8001a22:	611a      	str	r2, [r3, #16]
  if(hi2c->Instance==I2C1)
 8001a24:	687b      	ldr	r3, [r7, #4]
 8001a26:	681b      	ldr	r3, [r3, #0]
 8001a28:	4a19      	ldr	r2, [pc, #100]	; (8001a90 <HAL_I2C_MspInit+0x84>)
 8001a2a:	4293      	cmp	r3, r2
 8001a2c:	d12b      	bne.n	8001a86 <HAL_I2C_MspInit+0x7a>
  {
  /* USER CODE BEGIN I2C1_MspInit 0 */

  /* USER CODE END I2C1_MspInit 0 */

    __HAL_RCC_GPIOB_CLK_ENABLE();
 8001a2e:	2300      	movs	r3, #0
 8001a30:	613b      	str	r3, [r7, #16]
 8001a32:	4b18      	ldr	r3, [pc, #96]	; (8001a94 <HAL_I2C_MspInit+0x88>)
 8001a34:	6b1b      	ldr	r3, [r3, #48]	; 0x30
 8001a36:	4a17      	ldr	r2, [pc, #92]	; (8001a94 <HAL_I2C_MspInit+0x88>)
 8001a38:	f043 0302 	orr.w	r3, r3, #2
 8001a3c:	6313      	str	r3, [r2, #48]	; 0x30
 8001a3e:	4b15      	ldr	r3, [pc, #84]	; (8001a94 <HAL_I2C_MspInit+0x88>)
 8001a40:	6b1b      	ldr	r3, [r3, #48]	; 0x30
 8001a42:	f003 0302 	and.w	r3, r3, #2
 8001a46:	613b      	str	r3, [r7, #16]
 8001a48:	693b      	ldr	r3, [r7, #16]
    /**I2C1 GPIO Configuration
    PB6     ------> I2C1_SCL
    PB7     ------> I2C1_SDA
    */
    GPIO_InitStruct.Pin = GPIO_PIN_6|GPIO_PIN_7;
 8001a4a:	23c0      	movs	r3, #192	; 0xc0
 8001a4c:	617b      	str	r3, [r7, #20]
    GPIO_InitStruct.Mode = GPIO_MODE_AF_OD;
 8001a4e:	2312      	movs	r3, #18
 8001a50:	61bb      	str	r3, [r7, #24]
    GPIO_InitStruct.Pull = GPIO_PULLUP;
 8001a52:	2301      	movs	r3, #1
 8001a54:	61fb      	str	r3, [r7, #28]
    GPIO_InitStruct.Speed = GPIO_SPEED_FREQ_VERY_HIGH;
 8001a56:	2303      	movs	r3, #3
 8001a58:	623b      	str	r3, [r7, #32]
    GPIO_InitStruct.Alternate = GPIO_AF4_I2C1;
 8001a5a:	2304      	movs	r3, #4
 8001a5c:	627b      	str	r3, [r7, #36]	; 0x24
    HAL_GPIO_Init(GPIOB, &GPIO_InitStruct);
 8001a5e:	f107 0314 	add.w	r3, r7, #20
 8001a62:	4619      	mov	r1, r3
 8001a64:	480c      	ldr	r0, [pc, #48]	; (8001a98 <HAL_I2C_MspInit+0x8c>)
 8001a66:	f000 fcd5 	bl	8002414 <HAL_GPIO_Init>

    /* Peripheral clock enable */
    __HAL_RCC_I2C1_CLK_ENABLE();
 8001a6a:	2300      	movs	r3, #0
 8001a6c:	60fb      	str	r3, [r7, #12]
 8001a6e:	4b09      	ldr	r3, [pc, #36]	; (8001a94 <HAL_I2C_MspInit+0x88>)
 8001a70:	6c1b      	ldr	r3, [r3, #64]	; 0x40
 8001a72:	4a08      	ldr	r2, [pc, #32]	; (8001a94 <HAL_I2C_MspInit+0x88>)
 8001a74:	f443 1300 	orr.w	r3, r3, #2097152	; 0x200000
 8001a78:	6413      	str	r3, [r2, #64]	; 0x40
 8001a7a:	4b06      	ldr	r3, [pc, #24]	; (8001a94 <HAL_I2C_MspInit+0x88>)
 8001a7c:	6c1b      	ldr	r3, [r3, #64]	; 0x40
 8001a7e:	f403 1300 	and.w	r3, r3, #2097152	; 0x200000
 8001a82:	60fb      	str	r3, [r7, #12]
 8001a84:	68fb      	ldr	r3, [r7, #12]
  /* USER CODE BEGIN I2C1_MspInit 1 */

  /* USER CODE END I2C1_MspInit 1 */
  }

}
 8001a86:	bf00      	nop
 8001a88:	3728      	adds	r7, #40	; 0x28
 8001a8a:	46bd      	mov	sp, r7
 8001a8c:	bd80      	pop	{r7, pc}
 8001a8e:	bf00      	nop
 8001a90:	40005400 	.word	0x40005400
 8001a94:	40023800 	.word	0x40023800
 8001a98:	40020400 	.word	0x40020400

08001a9c <HAL_SPI_MspInit>:
* This function configures the hardware resources used in this example
* @param hspi: SPI handle pointer
* @retval None
*/
void HAL_SPI_MspInit(SPI_HandleTypeDef* hspi)
{
 8001a9c:	b580      	push	{r7, lr}
 8001a9e:	b08a      	sub	sp, #40	; 0x28
 8001aa0:	af00      	add	r7, sp, #0
 8001aa2:	6078      	str	r0, [r7, #4]
  GPIO_InitTypeDef GPIO_InitStruct = {0};
 8001aa4:	f107 0314 	add.w	r3, r7, #20
 8001aa8:	2200      	movs	r2, #0
 8001aaa:	601a      	str	r2, [r3, #0]
 8001aac:	605a      	str	r2, [r3, #4]
 8001aae:	609a      	str	r2, [r3, #8]
 8001ab0:	60da      	str	r2, [r3, #12]
 8001ab2:	611a      	str	r2, [r3, #16]
  if(hspi->Instance==SPI2)
 8001ab4:	687b      	ldr	r3, [r7, #4]
 8001ab6:	681b      	ldr	r3, [r3, #0]
 8001ab8:	4a30      	ldr	r2, [pc, #192]	; (8001b7c <HAL_SPI_MspInit+0xe0>)
 8001aba:	4293      	cmp	r3, r2
 8001abc:	d15a      	bne.n	8001b74 <HAL_SPI_MspInit+0xd8>
  {
  /* USER CODE BEGIN SPI2_MspInit 0 */

  /* USER CODE END SPI2_MspInit 0 */
    /* Peripheral clock enable */
    __HAL_RCC_SPI2_CLK_ENABLE();
 8001abe:	2300      	movs	r3, #0
 8001ac0:	613b      	str	r3, [r7, #16]
 8001ac2:	4b2f      	ldr	r3, [pc, #188]	; (8001b80 <HAL_SPI_MspInit+0xe4>)
 8001ac4:	6c1b      	ldr	r3, [r3, #64]	; 0x40
 8001ac6:	4a2e      	ldr	r2, [pc, #184]	; (8001b80 <HAL_SPI_MspInit+0xe4>)
 8001ac8:	f443 4380 	orr.w	r3, r3, #16384	; 0x4000
 8001acc:	6413      	str	r3, [r2, #64]	; 0x40
 8001ace:	4b2c      	ldr	r3, [pc, #176]	; (8001b80 <HAL_SPI_MspInit+0xe4>)
 8001ad0:	6c1b      	ldr	r3, [r3, #64]	; 0x40
 8001ad2:	f403 4380 	and.w	r3, r3, #16384	; 0x4000
 8001ad6:	613b      	str	r3, [r7, #16]
 8001ad8:	693b      	ldr	r3, [r7, #16]

    __HAL_RCC_GPIOC_CLK_ENABLE();
 8001ada:	2300      	movs	r3, #0
 8001adc:	60fb      	str	r3, [r7, #12]
 8001ade:	4b28      	ldr	r3, [pc, #160]	; (8001b80 <HAL_SPI_MspInit+0xe4>)
 8001ae0:	6b1b      	ldr	r3, [r3, #48]	; 0x30
 8001ae2:	4a27      	ldr	r2, [pc, #156]	; (8001b80 <HAL_SPI_MspInit+0xe4>)
 8001ae4:	f043 0304 	orr.w	r3, r3, #4
 8001ae8:	6313      	str	r3, [r2, #48]	; 0x30
 8001aea:	4b25      	ldr	r3, [pc, #148]	; (8001b80 <HAL_SPI_MspInit+0xe4>)
 8001aec:	6b1b      	ldr	r3, [r3, #48]	; 0x30
 8001aee:	f003 0304 	and.w	r3, r3, #4
 8001af2:	60fb      	str	r3, [r7, #12]
 8001af4:	68fb      	ldr	r3, [r7, #12]
    __HAL_RCC_GPIOB_CLK_ENABLE();
 8001af6:	2300      	movs	r3, #0
 8001af8:	60bb      	str	r3, [r7, #8]
 8001afa:	4b21      	ldr	r3, [pc, #132]	; (8001b80 <HAL_SPI_MspInit+0xe4>)
 8001afc:	6b1b      	ldr	r3, [r3, #48]	; 0x30
 8001afe:	4a20      	ldr	r2, [pc, #128]	; (8001b80 <HAL_SPI_MspInit+0xe4>)
 8001b00:	f043 0302 	orr.w	r3, r3, #2
 8001b04:	6313      	str	r3, [r2, #48]	; 0x30
 8001b06:	4b1e      	ldr	r3, [pc, #120]	; (8001b80 <HAL_SPI_MspInit+0xe4>)
 8001b08:	6b1b      	ldr	r3, [r3, #48]	; 0x30
 8001b0a:	f003 0302 	and.w	r3, r3, #2
 8001b0e:	60bb      	str	r3, [r7, #8]
 8001b10:	68bb      	ldr	r3, [r7, #8]
    /**SPI2 GPIO Configuration
    PC1     ------> SPI2_MOSI
    PC2     ------> SPI2_MISO
    PB10     ------> SPI2_SCK
    */
    GPIO_InitStruct.Pin = GPIO_PIN_1;
 8001b12:	2302      	movs	r3, #2
 8001b14:	617b      	str	r3, [r7, #20]
    GPIO_InitStruct.Mode = GPIO_MODE_AF_PP;
 8001b16:	2302      	movs	r3, #2
 8001b18:	61bb      	str	r3, [r7, #24]
    GPIO_InitStruct.Pull = GPIO_NOPULL;
 8001b1a:	2300      	movs	r3, #0
 8001b1c:	61fb      	str	r3, [r7, #28]
    GPIO_InitStruct.Speed = GPIO_SPEED_FREQ_VERY_HIGH;
 8001b1e:	2303      	movs	r3, #3
 8001b20:	623b      	str	r3, [r7, #32]
    GPIO_InitStruct.Alternate = GPIO_AF7_SPI2;
 8001b22:	2307      	movs	r3, #7
 8001b24:	627b      	str	r3, [r7, #36]	; 0x24
    HAL_GPIO_Init(GPIOC, &GPIO_InitStruct);
 8001b26:	f107 0314 	add.w	r3, r7, #20
 8001b2a:	4619      	mov	r1, r3
 8001b2c:	4815      	ldr	r0, [pc, #84]	; (8001b84 <HAL_SPI_MspInit+0xe8>)
 8001b2e:	f000 fc71 	bl	8002414 <HAL_GPIO_Init>

    GPIO_InitStruct.Pin = GPIO_PIN_2;
 8001b32:	2304      	movs	r3, #4
 8001b34:	617b      	str	r3, [r7, #20]
    GPIO_InitStruct.Mode = GPIO_MODE_AF_PP;
 8001b36:	2302      	movs	r3, #2
 8001b38:	61bb      	str	r3, [r7, #24]
    GPIO_InitStruct.Pull = GPIO_NOPULL;
 8001b3a:	2300      	movs	r3, #0
 8001b3c:	61fb      	str	r3, [r7, #28]
    GPIO_InitStruct.Speed = GPIO_SPEED_FREQ_VERY_HIGH;
 8001b3e:	2303      	movs	r3, #3
 8001b40:	623b      	str	r3, [r7, #32]
    GPIO_InitStruct.Alternate = GPIO_AF5_SPI2;
 8001b42:	2305      	movs	r3, #5
 8001b44:	627b      	str	r3, [r7, #36]	; 0x24
    HAL_GPIO_Init(GPIOC, &GPIO_InitStruct);
 8001b46:	f107 0314 	add.w	r3, r7, #20
 8001b4a:	4619      	mov	r1, r3
 8001b4c:	480d      	ldr	r0, [pc, #52]	; (8001b84 <HAL_SPI_MspInit+0xe8>)
 8001b4e:	f000 fc61 	bl	8002414 <HAL_GPIO_Init>

    GPIO_InitStruct.Pin = GPIO_PIN_10;
 8001b52:	f44f 6380 	mov.w	r3, #1024	; 0x400
 8001b56:	617b      	str	r3, [r7, #20]
    GPIO_InitStruct.Mode = GPIO_MODE_AF_PP;
 8001b58:	2302      	movs	r3, #2
 8001b5a:	61bb      	str	r3, [r7, #24]
    GPIO_InitStruct.Pull = GPIO_NOPULL;
 8001b5c:	2300      	movs	r3, #0
 8001b5e:	61fb      	str	r3, [r7, #28]
    GPIO_InitStruct.Speed = GPIO_SPEED_FREQ_VERY_HIGH;
 8001b60:	2303      	movs	r3, #3
 8001b62:	623b      	str	r3, [r7, #32]
    GPIO_InitStruct.Alternate = GPIO_AF5_SPI2;
 8001b64:	2305      	movs	r3, #5
 8001b66:	627b      	str	r3, [r7, #36]	; 0x24
    HAL_GPIO_Init(GPIOB, &GPIO_InitStruct);
 8001b68:	f107 0314 	add.w	r3, r7, #20
 8001b6c:	4619      	mov	r1, r3
 8001b6e:	4806      	ldr	r0, [pc, #24]	; (8001b88 <HAL_SPI_MspInit+0xec>)
 8001b70:	f000 fc50 	bl	8002414 <HAL_GPIO_Init>
  /* USER CODE BEGIN SPI2_MspInit 1 */

  /* USER CODE END SPI2_MspInit 1 */
  }

}
 8001b74:	bf00      	nop
 8001b76:	3728      	adds	r7, #40	; 0x28
 8001b78:	46bd      	mov	sp, r7
 8001b7a:	bd80      	pop	{r7, pc}
 8001b7c:	40003800 	.word	0x40003800
 8001b80:	40023800 	.word	0x40023800
 8001b84:	40020800 	.word	0x40020800
 8001b88:	40020400 	.word	0x40020400

08001b8c <HAL_UART_MspInit>:
* This function configures the hardware resources used in this example
* @param huart: UART handle pointer
* @retval None
*/
void HAL_UART_MspInit(UART_HandleTypeDef* huart)
{
 8001b8c:	b580      	push	{r7, lr}
 8001b8e:	b08a      	sub	sp, #40	; 0x28
 8001b90:	af00      	add	r7, sp, #0
 8001b92:	6078      	str	r0, [r7, #4]
  GPIO_InitTypeDef GPIO_InitStruct = {0};
 8001b94:	f107 0314 	add.w	r3, r7, #20
 8001b98:	2200      	movs	r2, #0
 8001b9a:	601a      	str	r2, [r3, #0]
 8001b9c:	605a      	str	r2, [r3, #4]
 8001b9e:	609a      	str	r2, [r3, #8]
 8001ba0:	60da      	str	r2, [r3, #12]
 8001ba2:	611a      	str	r2, [r3, #16]
  if(huart->Instance==USART2)
 8001ba4:	687b      	ldr	r3, [r7, #4]
 8001ba6:	681b      	ldr	r3, [r3, #0]
 8001ba8:	4a19      	ldr	r2, [pc, #100]	; (8001c10 <HAL_UART_MspInit+0x84>)
 8001baa:	4293      	cmp	r3, r2
 8001bac:	d12b      	bne.n	8001c06 <HAL_UART_MspInit+0x7a>
  {
  /* USER CODE BEGIN USART2_MspInit 0 */

  /* USER CODE END USART2_MspInit 0 */
    /* Peripheral clock enable */
    __HAL_RCC_USART2_CLK_ENABLE();
 8001bae:	2300      	movs	r3, #0
 8001bb0:	613b      	str	r3, [r7, #16]
 8001bb2:	4b18      	ldr	r3, [pc, #96]	; (8001c14 <HAL_UART_MspInit+0x88>)
 8001bb4:	6c1b      	ldr	r3, [r3, #64]	; 0x40
 8001bb6:	4a17      	ldr	r2, [pc, #92]	; (8001c14 <HAL_UART_MspInit+0x88>)
 8001bb8:	f443 3300 	orr.w	r3, r3, #131072	; 0x20000
 8001bbc:	6413      	str	r3, [r2, #64]	; 0x40
 8001bbe:	4b15      	ldr	r3, [pc, #84]	; (8001c14 <HAL_UART_MspInit+0x88>)
 8001bc0:	6c1b      	ldr	r3, [r3, #64]	; 0x40
 8001bc2:	f403 3300 	and.w	r3, r3, #131072	; 0x20000
 8001bc6:	613b      	str	r3, [r7, #16]
 8001bc8:	693b      	ldr	r3, [r7, #16]

    __HAL_RCC_GPIOA_CLK_ENABLE();
 8001bca:	2300      	movs	r3, #0
 8001bcc:	60fb      	str	r3, [r7, #12]
 8001bce:	4b11      	ldr	r3, [pc, #68]	; (8001c14 <HAL_UART_MspInit+0x88>)
 8001bd0:	6b1b      	ldr	r3, [r3, #48]	; 0x30
 8001bd2:	4a10      	ldr	r2, [pc, #64]	; (8001c14 <HAL_UART_MspInit+0x88>)
 8001bd4:	f043 0301 	orr.w	r3, r3, #1
 8001bd8:	6313      	str	r3, [r2, #48]	; 0x30
 8001bda:	4b0e      	ldr	r3, [pc, #56]	; (8001c14 <HAL_UART_MspInit+0x88>)
 8001bdc:	6b1b      	ldr	r3, [r3, #48]	; 0x30
 8001bde:	f003 0301 	and.w	r3, r3, #1
 8001be2:	60fb      	str	r3, [r7, #12]
 8001be4:	68fb      	ldr	r3, [r7, #12]
    /**USART2 GPIO Configuration
    PA2     ------> USART2_TX
    PA3     ------> USART2_RX
    */
    GPIO_InitStruct.Pin = USART_TX_Pin|USART_RX_Pin;
 8001be6:	230c      	movs	r3, #12
 8001be8:	617b      	str	r3, [r7, #20]
    GPIO_InitStruct.Mode = GPIO_MODE_AF_PP;
 8001bea:	2302      	movs	r3, #2
 8001bec:	61bb      	str	r3, [r7, #24]
    GPIO_InitStruct.Pull = GPIO_NOPULL;
 8001bee:	2300      	movs	r3, #0
 8001bf0:	61fb      	str	r3, [r7, #28]
    GPIO_InitStruct.Speed = GPIO_SPEED_FREQ_VERY_HIGH;
 8001bf2:	2303      	movs	r3, #3
 8001bf4:	623b      	str	r3, [r7, #32]
    GPIO_InitStruct.Alternate = GPIO_AF7_USART2;
 8001bf6:	2307      	movs	r3, #7
 8001bf8:	627b      	str	r3, [r7, #36]	; 0x24
    HAL_GPIO_Init(GPIOA, &GPIO_InitStruct);
 8001bfa:	f107 0314 	add.w	r3, r7, #20
 8001bfe:	4619      	mov	r1, r3
 8001c00:	4805      	ldr	r0, [pc, #20]	; (8001c18 <HAL_UART_MspInit+0x8c>)
 8001c02:	f000 fc07 	bl	8002414 <HAL_GPIO_Init>
  /* USER CODE BEGIN USART2_MspInit 1 */

  /* USER CODE END USART2_MspInit 1 */
  }

}
 8001c06:	bf00      	nop
 8001c08:	3728      	adds	r7, #40	; 0x28
 8001c0a:	46bd      	mov	sp, r7
 8001c0c:	bd80      	pop	{r7, pc}
 8001c0e:	bf00      	nop
 8001c10:	40004400 	.word	0x40004400
 8001c14:	40023800 	.word	0x40023800
 8001c18:	40020000 	.word	0x40020000

08001c1c <NMI_Handler>:
/******************************************************************************/
/**
  * @brief This function handles Non maskable interrupt.
  */
void NMI_Handler(void)
{
 8001c1c:	b480      	push	{r7}
 8001c1e:	af00      	add	r7, sp, #0
  /* USER CODE BEGIN NonMaskableInt_IRQn 0 */

  /* USER CODE END NonMaskableInt_IRQn 0 */
  /* USER CODE BEGIN NonMaskableInt_IRQn 1 */
  while (1)
 8001c20:	e7fe      	b.n	8001c20 <NMI_Handler+0x4>

08001c22 <HardFault_Handler>:

/**
  * @brief This function handles Hard fault interrupt.
  */
void HardFault_Handler(void)
{
 8001c22:	b480      	push	{r7}
 8001c24:	af00      	add	r7, sp, #0
  /* USER CODE BEGIN HardFault_IRQn 0 */

  /* USER CODE END HardFault_IRQn 0 */
  while (1)
 8001c26:	e7fe      	b.n	8001c26 <HardFault_Handler+0x4>

08001c28 <MemManage_Handler>:

/**
  * @brief This function handles Memory management fault.
  */
void MemManage_Handler(void)
{
 8001c28:	b480      	push	{r7}
 8001c2a:	af00      	add	r7, sp, #0
  /* USER CODE BEGIN MemoryManagement_IRQn 0 */

  /* USER CODE END MemoryManagement_IRQn 0 */
  while (1)
 8001c2c:	e7fe      	b.n	8001c2c <MemManage_Handler+0x4>

08001c2e <BusFault_Handler>:

/**
  * @brief This function handles Pre-fetch fault, memory access fault.
  */
void BusFault_Handler(void)
{
 8001c2e:	b480      	push	{r7}
 8001c30:	af00      	add	r7, sp, #0
  /* USER CODE BEGIN BusFault_IRQn 0 */

  /* USER CODE END BusFault_IRQn 0 */
  while (1)
 8001c32:	e7fe      	b.n	8001c32 <BusFault_Handler+0x4>

08001c34 <UsageFault_Handler>:

/**
  * @brief This function handles Undefined instruction or illegal state.
  */
void UsageFault_Handler(void)
{
 8001c34:	b480      	push	{r7}
 8001c36:	af00      	add	r7, sp, #0
  /* USER CODE BEGIN UsageFault_IRQn 0 */

  /* USER CODE END UsageFault_IRQn 0 */
  while (1)
 8001c38:	e7fe      	b.n	8001c38 <UsageFault_Handler+0x4>

08001c3a <SVC_Handler>:

/**
  * @brief This function handles System service call via SWI instruction.
  */
void SVC_Handler(void)
{
 8001c3a:	b480      	push	{r7}
 8001c3c:	af00      	add	r7, sp, #0

  /* USER CODE END SVCall_IRQn 0 */
  /* USER CODE BEGIN SVCall_IRQn 1 */

  /* USER CODE END SVCall_IRQn 1 */
}
 8001c3e:	bf00      	nop
 8001c40:	46bd      	mov	sp, r7
 8001c42:	f85d 7b04 	ldr.w	r7, [sp], #4
 8001c46:	4770      	bx	lr

08001c48 <DebugMon_Handler>:

/**
  * @brief This function handles Debug monitor.
  */
void DebugMon_Handler(void)
{
 8001c48:	b480      	push	{r7}
 8001c4a:	af00      	add	r7, sp, #0

  /* USER CODE END DebugMonitor_IRQn 0 */
  /* USER CODE BEGIN DebugMonitor_IRQn 1 */

  /* USER CODE END DebugMonitor_IRQn 1 */
}
 8001c4c:	bf00      	nop
 8001c4e:	46bd      	mov	sp, r7
 8001c50:	f85d 7b04 	ldr.w	r7, [sp], #4
 8001c54:	4770      	bx	lr

08001c56 <PendSV_Handler>:

/**
  * @brief This function handles Pendable request for system service.
  */
void PendSV_Handler(void)
{
 8001c56:	b480      	push	{r7}
 8001c58:	af00      	add	r7, sp, #0

  /* USER CODE END PendSV_IRQn 0 */
  /* USER CODE BEGIN PendSV_IRQn 1 */

  /* USER CODE END PendSV_IRQn 1 */
}
 8001c5a:	bf00      	nop
 8001c5c:	46bd      	mov	sp, r7
 8001c5e:	f85d 7b04 	ldr.w	r7, [sp], #4
 8001c62:	4770      	bx	lr

08001c64 <SysTick_Handler>:

/**
  * @brief This function handles System tick timer.
  */
void SysTick_Handler(void)
{
 8001c64:	b580      	push	{r7, lr}
 8001c66:	af00      	add	r7, sp, #0
  /* USER CODE BEGIN SysTick_IRQn 0 */

  /* USER CODE END SysTick_IRQn 0 */
  HAL_IncTick();
 8001c68:	f000 f8d8 	bl	8001e1c <HAL_IncTick>
  /* USER CODE BEGIN SysTick_IRQn 1 */

  /* USER CODE END SysTick_IRQn 1 */
}
 8001c6c:	bf00      	nop
 8001c6e:	bd80      	pop	{r7, pc}

08001c70 <FLASH_IRQHandler>:

/**
  * @brief This function handles Flash global interrupt.
  */
void FLASH_IRQHandler(void)
{
 8001c70:	b580      	push	{r7, lr}
 8001c72:	af00      	add	r7, sp, #0
  /* USER CODE BEGIN FLASH_IRQn 0 */

  /* USER CODE END FLASH_IRQn 0 */
  HAL_FLASH_IRQHandler();
 8001c74:	f000 fa26 	bl	80020c4 <HAL_FLASH_IRQHandler>
  /* USER CODE BEGIN FLASH_IRQn 1 */

  /* USER CODE END FLASH_IRQn 1 */
}
 8001c78:	bf00      	nop
 8001c7a:	bd80      	pop	{r7, pc}

08001c7c <EXTI15_10_IRQHandler>:

/**
  * @brief This function handles EXTI line[15:10] interrupts.
  */
void EXTI15_10_IRQHandler(void)
{
 8001c7c:	b580      	push	{r7, lr}
 8001c7e:	af00      	add	r7, sp, #0
  /* USER CODE BEGIN EXTI15_10_IRQn 0 */

  /* USER CODE END EXTI15_10_IRQn 0 */
  HAL_GPIO_EXTI_IRQHandler(GPIO_PIN_13);
 8001c80:	f44f 5000 	mov.w	r0, #8192	; 0x2000
 8001c84:	f000 fd8c 	bl	80027a0 <HAL_GPIO_EXTI_IRQHandler>
  /* USER CODE BEGIN EXTI15_10_IRQn 1 */

  /* USER CODE END EXTI15_10_IRQn 1 */
}
 8001c88:	bf00      	nop
 8001c8a:	bd80      	pop	{r7, pc}

08001c8c <_sbrk>:
 *
 * @param incr Memory size
 * @return Pointer to allocated memory
 */
void *_sbrk(ptrdiff_t incr)
{
 8001c8c:	b580      	push	{r7, lr}
 8001c8e:	b086      	sub	sp, #24
 8001c90:	af00      	add	r7, sp, #0
 8001c92:	6078      	str	r0, [r7, #4]
  extern uint8_t _end; /* Symbol defined in the linker script */
  extern uint8_t _estack; /* Symbol defined in the linker script */
  extern uint32_t _Min_Stack_Size; /* Symbol defined in the linker script */
  const uint32_t stack_limit = (uint32_t)&_estack - (uint32_t)&_Min_Stack_Size;
 8001c94:	4a14      	ldr	r2, [pc, #80]	; (8001ce8 <_sbrk+0x5c>)
 8001c96:	4b15      	ldr	r3, [pc, #84]	; (8001cec <_sbrk+0x60>)
 8001c98:	1ad3      	subs	r3, r2, r3
 8001c9a:	617b      	str	r3, [r7, #20]
  const uint8_t *max_heap = (uint8_t *)stack_limit;
 8001c9c:	697b      	ldr	r3, [r7, #20]
 8001c9e:	613b      	str	r3, [r7, #16]
  uint8_t *prev_heap_end;

  /* Initialize heap end at first call */
  if (NULL == __sbrk_heap_end)
 8001ca0:	4b13      	ldr	r3, [pc, #76]	; (8001cf0 <_sbrk+0x64>)
 8001ca2:	681b      	ldr	r3, [r3, #0]
 8001ca4:	2b00      	cmp	r3, #0
 8001ca6:	d102      	bne.n	8001cae <_sbrk+0x22>
  {
    __sbrk_heap_end = &_end;
 8001ca8:	4b11      	ldr	r3, [pc, #68]	; (8001cf0 <_sbrk+0x64>)
 8001caa:	4a12      	ldr	r2, [pc, #72]	; (8001cf4 <_sbrk+0x68>)
 8001cac:	601a      	str	r2, [r3, #0]
  }

  /* Protect heap from growing into the reserved MSP stack */
  if (__sbrk_heap_end + incr > max_heap)
 8001cae:	4b10      	ldr	r3, [pc, #64]	; (8001cf0 <_sbrk+0x64>)
 8001cb0:	681a      	ldr	r2, [r3, #0]
 8001cb2:	687b      	ldr	r3, [r7, #4]
 8001cb4:	4413      	add	r3, r2
 8001cb6:	693a      	ldr	r2, [r7, #16]
 8001cb8:	429a      	cmp	r2, r3
 8001cba:	d207      	bcs.n	8001ccc <_sbrk+0x40>
  {
    errno = ENOMEM;
 8001cbc:	f006 fb6e 	bl	800839c <__errno>
 8001cc0:	4602      	mov	r2, r0
 8001cc2:	230c      	movs	r3, #12
 8001cc4:	6013      	str	r3, [r2, #0]
    return (void *)-1;
 8001cc6:	f04f 33ff 	mov.w	r3, #4294967295
 8001cca:	e009      	b.n	8001ce0 <_sbrk+0x54>
  }

  prev_heap_end = __sbrk_heap_end;
 8001ccc:	4b08      	ldr	r3, [pc, #32]	; (8001cf0 <_sbrk+0x64>)
 8001cce:	681b      	ldr	r3, [r3, #0]
 8001cd0:	60fb      	str	r3, [r7, #12]
  __sbrk_heap_end += incr;
 8001cd2:	4b07      	ldr	r3, [pc, #28]	; (8001cf0 <_sbrk+0x64>)
 8001cd4:	681a      	ldr	r2, [r3, #0]
 8001cd6:	687b      	ldr	r3, [r7, #4]
 8001cd8:	4413      	add	r3, r2
 8001cda:	4a05      	ldr	r2, [pc, #20]	; (8001cf0 <_sbrk+0x64>)
 8001cdc:	6013      	str	r3, [r2, #0]

  return (void *)prev_heap_end;
 8001cde:	68fb      	ldr	r3, [r7, #12]
}
 8001ce0:	4618      	mov	r0, r3
 8001ce2:	3718      	adds	r7, #24
 8001ce4:	46bd      	mov	sp, r7
 8001ce6:	bd80      	pop	{r7, pc}
 8001ce8:	20020000 	.word	0x20020000
 8001cec:	00000400 	.word	0x00000400
 8001cf0:	20000710 	.word	0x20000710
 8001cf4:	200011a8 	.word	0x200011a8

08001cf8 <SystemInit>:
  *         configuration.
  * @param  None
  * @retval None
  */
void SystemInit(void)
{
 8001cf8:	b480      	push	{r7}
 8001cfa:	af00      	add	r7, sp, #0
  /* FPU settings ------------------------------------------------------------*/
  #if (__FPU_PRESENT == 1) && (__FPU_USED == 1)
    SCB->CPACR |= ((3UL << 10*2)|(3UL << 11*2));  /* set CP10 and CP11 Full Access */
 8001cfc:	4b08      	ldr	r3, [pc, #32]	; (8001d20 <SystemInit+0x28>)
 8001cfe:	f8d3 3088 	ldr.w	r3, [r3, #136]	; 0x88
 8001d02:	4a07      	ldr	r2, [pc, #28]	; (8001d20 <SystemInit+0x28>)
 8001d04:	f443 0370 	orr.w	r3, r3, #15728640	; 0xf00000
 8001d08:	f8c2 3088 	str.w	r3, [r2, #136]	; 0x88

  /* Configure the Vector Table location add offset address ------------------*/
#ifdef VECT_TAB_SRAM
  SCB->VTOR = SRAM_BASE | VECT_TAB_OFFSET; /* Vector Table Relocation in Internal SRAM */
#else
  SCB->VTOR = FLASH_BASE | VECT_TAB_OFFSET; /* Vector Table Relocation in Internal FLASH */
 8001d0c:	4b04      	ldr	r3, [pc, #16]	; (8001d20 <SystemInit+0x28>)
 8001d0e:	f04f 6200 	mov.w	r2, #134217728	; 0x8000000
 8001d12:	609a      	str	r2, [r3, #8]
#endif
}
 8001d14:	bf00      	nop
 8001d16:	46bd      	mov	sp, r7
 8001d18:	f85d 7b04 	ldr.w	r7, [sp], #4
 8001d1c:	4770      	bx	lr
 8001d1e:	bf00      	nop
 8001d20:	e000ed00 	.word	0xe000ed00

08001d24 <Reset_Handler>:

    .section  .text.Reset_Handler
  .weak  Reset_Handler
  .type  Reset_Handler, %function
Reset_Handler:  
  ldr   sp, =_estack      /* set stack pointer */
 8001d24:	f8df d034 	ldr.w	sp, [pc, #52]	; 8001d5c <LoopFillZerobss+0x14>

/* Copy the data segment initializers from flash to SRAM */  
  movs  r1, #0
 8001d28:	2100      	movs	r1, #0
  b  LoopCopyDataInit
 8001d2a:	e003      	b.n	8001d34 <LoopCopyDataInit>

08001d2c <CopyDataInit>:

CopyDataInit:
  ldr  r3, =_sidata
 8001d2c:	4b0c      	ldr	r3, [pc, #48]	; (8001d60 <LoopFillZerobss+0x18>)
  ldr  r3, [r3, r1]
 8001d2e:	585b      	ldr	r3, [r3, r1]
  str  r3, [r0, r1]
 8001d30:	5043      	str	r3, [r0, r1]
  adds  r1, r1, #4
 8001d32:	3104      	adds	r1, #4

08001d34 <LoopCopyDataInit>:
    
LoopCopyDataInit:
  ldr  r0, =_sdata
 8001d34:	480b      	ldr	r0, [pc, #44]	; (8001d64 <LoopFillZerobss+0x1c>)
  ldr  r3, =_edata
 8001d36:	4b0c      	ldr	r3, [pc, #48]	; (8001d68 <LoopFillZerobss+0x20>)
  adds  r2, r0, r1
 8001d38:	1842      	adds	r2, r0, r1
  cmp  r2, r3
 8001d3a:	429a      	cmp	r2, r3
  bcc  CopyDataInit
 8001d3c:	d3f6      	bcc.n	8001d2c <CopyDataInit>
  ldr  r2, =_sbss
 8001d3e:	4a0b      	ldr	r2, [pc, #44]	; (8001d6c <LoopFillZerobss+0x24>)
  b  LoopFillZerobss
 8001d40:	e002      	b.n	8001d48 <LoopFillZerobss>

08001d42 <FillZerobss>:
/* Zero fill the bss segment. */  
FillZerobss:
  movs  r3, #0
 8001d42:	2300      	movs	r3, #0
  str  r3, [r2], #4
 8001d44:	f842 3b04 	str.w	r3, [r2], #4

08001d48 <LoopFillZerobss>:
    
LoopFillZerobss:
  ldr  r3, = _ebss
 8001d48:	4b09      	ldr	r3, [pc, #36]	; (8001d70 <LoopFillZerobss+0x28>)
  cmp  r2, r3
 8001d4a:	429a      	cmp	r2, r3
  bcc  FillZerobss
 8001d4c:	d3f9      	bcc.n	8001d42 <FillZerobss>

/* Call the clock system intitialization function.*/
  bl  SystemInit   
 8001d4e:	f7ff ffd3 	bl	8001cf8 <SystemInit>
/* Call static constructors */
    bl __libc_init_array
 8001d52:	f006 fb29 	bl	80083a8 <__libc_init_array>
/* Call the application's entry point.*/
  bl  main
 8001d56:	f7ff fa6d 	bl	8001234 <main>
  bx  lr    
 8001d5a:	4770      	bx	lr
  ldr   sp, =_estack      /* set stack pointer */
 8001d5c:	20020000 	.word	0x20020000
  ldr  r3, =_sidata
 8001d60:	0800a9a8 	.word	0x0800a9a8
  ldr  r0, =_sdata
 8001d64:	20000000 	.word	0x20000000
  ldr  r3, =_edata
 8001d68:	200001f4 	.word	0x200001f4
  ldr  r2, =_sbss
 8001d6c:	200001f4 	.word	0x200001f4
  ldr  r3, = _ebss
 8001d70:	200011a4 	.word	0x200011a4

08001d74 <ADC_IRQHandler>:
 * @retval None       
*/
    .section  .text.Default_Handler,"ax",%progbits
Default_Handler:
Infinite_Loop:
  b  Infinite_Loop
 8001d74:	e7fe      	b.n	8001d74 <ADC_IRQHandler>
	...

08001d78 <HAL_Init>:
  *         need to ensure that the SysTick time base is always set to 1 millisecond
  *         to have correct HAL operation.
  * @retval HAL status
  */
HAL_StatusTypeDef HAL_Init(void)
{
 8001d78:	b580      	push	{r7, lr}
 8001d7a:	af00      	add	r7, sp, #0
  /* Configure Flash prefetch, Instruction cache, Data cache */ 
#if (INSTRUCTION_CACHE_ENABLE != 0U)
  __HAL_FLASH_INSTRUCTION_CACHE_ENABLE();
 8001d7c:	4b0e      	ldr	r3, [pc, #56]	; (8001db8 <HAL_Init+0x40>)
 8001d7e:	681b      	ldr	r3, [r3, #0]
 8001d80:	4a0d      	ldr	r2, [pc, #52]	; (8001db8 <HAL_Init+0x40>)
 8001d82:	f443 7300 	orr.w	r3, r3, #512	; 0x200
 8001d86:	6013      	str	r3, [r2, #0]
#endif /* INSTRUCTION_CACHE_ENABLE */

#if (DATA_CACHE_ENABLE != 0U)
  __HAL_FLASH_DATA_CACHE_ENABLE();
 8001d88:	4b0b      	ldr	r3, [pc, #44]	; (8001db8 <HAL_Init+0x40>)
 8001d8a:	681b      	ldr	r3, [r3, #0]
 8001d8c:	4a0a      	ldr	r2, [pc, #40]	; (8001db8 <HAL_Init+0x40>)
 8001d8e:	f443 6380 	orr.w	r3, r3, #1024	; 0x400
 8001d92:	6013      	str	r3, [r2, #0]
#endif /* DATA_CACHE_ENABLE */

#if (PREFETCH_ENABLE != 0U)
  __HAL_FLASH_PREFETCH_BUFFER_ENABLE();
 8001d94:	4b08      	ldr	r3, [pc, #32]	; (8001db8 <HAL_Init+0x40>)
 8001d96:	681b      	ldr	r3, [r3, #0]
 8001d98:	4a07      	ldr	r2, [pc, #28]	; (8001db8 <HAL_Init+0x40>)
 8001d9a:	f443 7380 	orr.w	r3, r3, #256	; 0x100
 8001d9e:	6013      	str	r3, [r2, #0]
#endif /* PREFETCH_ENABLE */

  /* Set Interrupt Group Priority */
  HAL_NVIC_SetPriorityGrouping(NVIC_PRIORITYGROUP_4);
 8001da0:	2003      	movs	r0, #3
 8001da2:	f000 f94d 	bl	8002040 <HAL_NVIC_SetPriorityGrouping>

  /* Use systick as time base source and configure 1ms tick (default clock after Reset is HSI) */
  HAL_InitTick(TICK_INT_PRIORITY);
 8001da6:	2000      	movs	r0, #0
 8001da8:	f000 f808 	bl	8001dbc <HAL_InitTick>

  /* Init the low level hardware */
  HAL_MspInit();
 8001dac:	f7ff fdfe 	bl	80019ac <HAL_MspInit>

  /* Return function status */
  return HAL_OK;
 8001db0:	2300      	movs	r3, #0
}
 8001db2:	4618      	mov	r0, r3
 8001db4:	bd80      	pop	{r7, pc}
 8001db6:	bf00      	nop
 8001db8:	40023c00 	.word	0x40023c00

08001dbc <HAL_InitTick>:
  *       implementation  in user file.
  * @param TickPriority Tick interrupt priority.
  * @retval HAL status
  */
__weak HAL_StatusTypeDef HAL_InitTick(uint32_t TickPriority)
{
 8001dbc:	b580      	push	{r7, lr}
 8001dbe:	b082      	sub	sp, #8
 8001dc0:	af00      	add	r7, sp, #0
 8001dc2:	6078      	str	r0, [r7, #4]
  /* Configure the SysTick to have interrupt in 1ms time basis*/
  if (HAL_SYSTICK_Config(SystemCoreClock / (1000U / uwTickFreq)) > 0U)
 8001dc4:	4b12      	ldr	r3, [pc, #72]	; (8001e10 <HAL_InitTick+0x54>)
 8001dc6:	681a      	ldr	r2, [r3, #0]
 8001dc8:	4b12      	ldr	r3, [pc, #72]	; (8001e14 <HAL_InitTick+0x58>)
 8001dca:	781b      	ldrb	r3, [r3, #0]
 8001dcc:	4619      	mov	r1, r3
 8001dce:	f44f 737a 	mov.w	r3, #1000	; 0x3e8
 8001dd2:	fbb3 f3f1 	udiv	r3, r3, r1
 8001dd6:	fbb2 f3f3 	udiv	r3, r2, r3
 8001dda:	4618      	mov	r0, r3
 8001ddc:	f000 f965 	bl	80020aa <HAL_SYSTICK_Config>
 8001de0:	4603      	mov	r3, r0
 8001de2:	2b00      	cmp	r3, #0
 8001de4:	d001      	beq.n	8001dea <HAL_InitTick+0x2e>
  {
    return HAL_ERROR;
 8001de6:	2301      	movs	r3, #1
 8001de8:	e00e      	b.n	8001e08 <HAL_InitTick+0x4c>
  }

  /* Configure the SysTick IRQ priority */
  if (TickPriority < (1UL << __NVIC_PRIO_BITS))
 8001dea:	687b      	ldr	r3, [r7, #4]
 8001dec:	2b0f      	cmp	r3, #15
 8001dee:	d80a      	bhi.n	8001e06 <HAL_InitTick+0x4a>
  {
    HAL_NVIC_SetPriority(SysTick_IRQn, TickPriority, 0U);
 8001df0:	2200      	movs	r2, #0
 8001df2:	6879      	ldr	r1, [r7, #4]
 8001df4:	f04f 30ff 	mov.w	r0, #4294967295
 8001df8:	f000 f92d 	bl	8002056 <HAL_NVIC_SetPriority>
    uwTickPrio = TickPriority;
 8001dfc:	4a06      	ldr	r2, [pc, #24]	; (8001e18 <HAL_InitTick+0x5c>)
 8001dfe:	687b      	ldr	r3, [r7, #4]
 8001e00:	6013      	str	r3, [r2, #0]
  {
    return HAL_ERROR;
  }

  /* Return function status */
  return HAL_OK;
 8001e02:	2300      	movs	r3, #0
 8001e04:	e000      	b.n	8001e08 <HAL_InitTick+0x4c>
    return HAL_ERROR;
 8001e06:	2301      	movs	r3, #1
}
 8001e08:	4618      	mov	r0, r3
 8001e0a:	3708      	adds	r7, #8
 8001e0c:	46bd      	mov	sp, r7
 8001e0e:	bd80      	pop	{r7, pc}
 8001e10:	20000000 	.word	0x20000000
 8001e14:	20000008 	.word	0x20000008
 8001e18:	20000004 	.word	0x20000004

08001e1c <HAL_IncTick>:
 * @note This function is declared as __weak to be overwritten in case of other 
  *      implementations in user file.
  * @retval None
  */
__weak void HAL_IncTick(void)
{
 8001e1c:	b480      	push	{r7}
 8001e1e:	af00      	add	r7, sp, #0
  uwTick += uwTickFreq;
 8001e20:	4b06      	ldr	r3, [pc, #24]	; (8001e3c <HAL_IncTick+0x20>)
 8001e22:	781b      	ldrb	r3, [r3, #0]
 8001e24:	461a      	mov	r2, r3
 8001e26:	4b06      	ldr	r3, [pc, #24]	; (8001e40 <HAL_IncTick+0x24>)
 8001e28:	681b      	ldr	r3, [r3, #0]
 8001e2a:	4413      	add	r3, r2
 8001e2c:	4a04      	ldr	r2, [pc, #16]	; (8001e40 <HAL_IncTick+0x24>)
 8001e2e:	6013      	str	r3, [r2, #0]
}
 8001e30:	bf00      	nop
 8001e32:	46bd      	mov	sp, r7
 8001e34:	f85d 7b04 	ldr.w	r7, [sp], #4
 8001e38:	4770      	bx	lr
 8001e3a:	bf00      	nop
 8001e3c:	20000008 	.word	0x20000008
 8001e40:	20000d0c 	.word	0x20000d0c

08001e44 <HAL_GetTick>:
  * @note This function is declared as __weak to be overwritten in case of other 
  *       implementations in user file.
  * @retval tick value
  */
__weak uint32_t HAL_GetTick(void)
{
 8001e44:	b480      	push	{r7}
 8001e46:	af00      	add	r7, sp, #0
  return uwTick;
 8001e48:	4b03      	ldr	r3, [pc, #12]	; (8001e58 <HAL_GetTick+0x14>)
 8001e4a:	681b      	ldr	r3, [r3, #0]
}
 8001e4c:	4618      	mov	r0, r3
 8001e4e:	46bd      	mov	sp, r7
 8001e50:	f85d 7b04 	ldr.w	r7, [sp], #4
 8001e54:	4770      	bx	lr
 8001e56:	bf00      	nop
 8001e58:	20000d0c 	.word	0x20000d0c

08001e5c <HAL_Delay>:
  *       implementations in user file.
  * @param Delay specifies the delay time length, in milliseconds.
  * @retval None
  */
__weak void HAL_Delay(uint32_t Delay)
{
 8001e5c:	b580      	push	{r7, lr}
 8001e5e:	b084      	sub	sp, #16
 8001e60:	af00      	add	r7, sp, #0
 8001e62:	6078      	str	r0, [r7, #4]
  uint32_t tickstart = HAL_GetTick();
 8001e64:	f7ff ffee 	bl	8001e44 <HAL_GetTick>
 8001e68:	60b8      	str	r0, [r7, #8]
  uint32_t wait = Delay;
 8001e6a:	687b      	ldr	r3, [r7, #4]
 8001e6c:	60fb      	str	r3, [r7, #12]

  /* Add a freq to guarantee minimum wait */
  if (wait < HAL_MAX_DELAY)
 8001e6e:	68fb      	ldr	r3, [r7, #12]
 8001e70:	f1b3 3fff 	cmp.w	r3, #4294967295
 8001e74:	d005      	beq.n	8001e82 <HAL_Delay+0x26>
  {
    wait += (uint32_t)(uwTickFreq);
 8001e76:	4b09      	ldr	r3, [pc, #36]	; (8001e9c <HAL_Delay+0x40>)
 8001e78:	781b      	ldrb	r3, [r3, #0]
 8001e7a:	461a      	mov	r2, r3
 8001e7c:	68fb      	ldr	r3, [r7, #12]
 8001e7e:	4413      	add	r3, r2
 8001e80:	60fb      	str	r3, [r7, #12]
  }

  while((HAL_GetTick() - tickstart) < wait)
 8001e82:	bf00      	nop
 8001e84:	f7ff ffde 	bl	8001e44 <HAL_GetTick>
 8001e88:	4602      	mov	r2, r0
 8001e8a:	68bb      	ldr	r3, [r7, #8]
 8001e8c:	1ad3      	subs	r3, r2, r3
 8001e8e:	68fa      	ldr	r2, [r7, #12]
 8001e90:	429a      	cmp	r2, r3
 8001e92:	d8f7      	bhi.n	8001e84 <HAL_Delay+0x28>
  {
  }
}
 8001e94:	bf00      	nop
 8001e96:	3710      	adds	r7, #16
 8001e98:	46bd      	mov	sp, r7
 8001e9a:	bd80      	pop	{r7, pc}
 8001e9c:	20000008 	.word	0x20000008

08001ea0 <__NVIC_SetPriorityGrouping>:
           In case of a conflict between priority grouping and available
           priority bits (__NVIC_PRIO_BITS), the smallest possible priority group is set.
  \param [in]      PriorityGroup  Priority grouping field.
 */
__STATIC_INLINE void __NVIC_SetPriorityGrouping(uint32_t PriorityGroup)
{
 8001ea0:	b480      	push	{r7}
 8001ea2:	b085      	sub	sp, #20
 8001ea4:	af00      	add	r7, sp, #0
 8001ea6:	6078      	str	r0, [r7, #4]
  uint32_t reg_value;
  uint32_t PriorityGroupTmp = (PriorityGroup & (uint32_t)0x07UL);             /* only values 0..7 are used          */
 8001ea8:	687b      	ldr	r3, [r7, #4]
 8001eaa:	f003 0307 	and.w	r3, r3, #7
 8001eae:	60fb      	str	r3, [r7, #12]

  reg_value  =  SCB->AIRCR;                                                   /* read old register configuration    */
 8001eb0:	4b0c      	ldr	r3, [pc, #48]	; (8001ee4 <__NVIC_SetPriorityGrouping+0x44>)
 8001eb2:	68db      	ldr	r3, [r3, #12]
 8001eb4:	60bb      	str	r3, [r7, #8]
  reg_value &= ~((uint32_t)(SCB_AIRCR_VECTKEY_Msk | SCB_AIRCR_PRIGROUP_Msk)); /* clear bits to change               */
 8001eb6:	68ba      	ldr	r2, [r7, #8]
 8001eb8:	f64f 03ff 	movw	r3, #63743	; 0xf8ff
 8001ebc:	4013      	ands	r3, r2
 8001ebe:	60bb      	str	r3, [r7, #8]
  reg_value  =  (reg_value                                   |
                ((uint32_t)0x5FAUL << SCB_AIRCR_VECTKEY_Pos) |
                (PriorityGroupTmp << SCB_AIRCR_PRIGROUP_Pos)  );              /* Insert write key and priority group */
 8001ec0:	68fb      	ldr	r3, [r7, #12]
 8001ec2:	021a      	lsls	r2, r3, #8
                ((uint32_t)0x5FAUL << SCB_AIRCR_VECTKEY_Pos) |
 8001ec4:	68bb      	ldr	r3, [r7, #8]
 8001ec6:	4313      	orrs	r3, r2
  reg_value  =  (reg_value                                   |
 8001ec8:	f043 63bf 	orr.w	r3, r3, #100139008	; 0x5f80000
 8001ecc:	f443 3300 	orr.w	r3, r3, #131072	; 0x20000
 8001ed0:	60bb      	str	r3, [r7, #8]
  SCB->AIRCR =  reg_value;
 8001ed2:	4a04      	ldr	r2, [pc, #16]	; (8001ee4 <__NVIC_SetPriorityGrouping+0x44>)
 8001ed4:	68bb      	ldr	r3, [r7, #8]
 8001ed6:	60d3      	str	r3, [r2, #12]
}
 8001ed8:	bf00      	nop
 8001eda:	3714      	adds	r7, #20
 8001edc:	46bd      	mov	sp, r7
 8001ede:	f85d 7b04 	ldr.w	r7, [sp], #4
 8001ee2:	4770      	bx	lr
 8001ee4:	e000ed00 	.word	0xe000ed00

08001ee8 <__NVIC_GetPriorityGrouping>:
  \brief   Get Priority Grouping
  \details Reads the priority grouping field from the NVIC Interrupt Controller.
  \return                Priority grouping field (SCB->AIRCR [10:8] PRIGROUP field).
 */
__STATIC_INLINE uint32_t __NVIC_GetPriorityGrouping(void)
{
 8001ee8:	b480      	push	{r7}
 8001eea:	af00      	add	r7, sp, #0
  return ((uint32_t)((SCB->AIRCR & SCB_AIRCR_PRIGROUP_Msk) >> SCB_AIRCR_PRIGROUP_Pos));
 8001eec:	4b04      	ldr	r3, [pc, #16]	; (8001f00 <__NVIC_GetPriorityGrouping+0x18>)
 8001eee:	68db      	ldr	r3, [r3, #12]
 8001ef0:	0a1b      	lsrs	r3, r3, #8
 8001ef2:	f003 0307 	and.w	r3, r3, #7
}
 8001ef6:	4618      	mov	r0, r3
 8001ef8:	46bd      	mov	sp, r7
 8001efa:	f85d 7b04 	ldr.w	r7, [sp], #4
 8001efe:	4770      	bx	lr
 8001f00:	e000ed00 	.word	0xe000ed00

08001f04 <__NVIC_EnableIRQ>:
  \details Enables a device specific interrupt in the NVIC interrupt controller.
  \param [in]      IRQn  Device specific interrupt number.
  \note    IRQn must not be negative.
 */
__STATIC_INLINE void __NVIC_EnableIRQ(IRQn_Type IRQn)
{
 8001f04:	b480      	push	{r7}
 8001f06:	b083      	sub	sp, #12
 8001f08:	af00      	add	r7, sp, #0
 8001f0a:	4603      	mov	r3, r0
 8001f0c:	71fb      	strb	r3, [r7, #7]
  if ((int32_t)(IRQn) >= 0)
 8001f0e:	f997 3007 	ldrsb.w	r3, [r7, #7]
 8001f12:	2b00      	cmp	r3, #0
 8001f14:	db0b      	blt.n	8001f2e <__NVIC_EnableIRQ+0x2a>
  {
    NVIC->ISER[(((uint32_t)IRQn) >> 5UL)] = (uint32_t)(1UL << (((uint32_t)IRQn) & 0x1FUL));
 8001f16:	79fb      	ldrb	r3, [r7, #7]
 8001f18:	f003 021f 	and.w	r2, r3, #31
 8001f1c:	4907      	ldr	r1, [pc, #28]	; (8001f3c <__NVIC_EnableIRQ+0x38>)
 8001f1e:	f997 3007 	ldrsb.w	r3, [r7, #7]
 8001f22:	095b      	lsrs	r3, r3, #5
 8001f24:	2001      	movs	r0, #1
 8001f26:	fa00 f202 	lsl.w	r2, r0, r2
 8001f2a:	f841 2023 	str.w	r2, [r1, r3, lsl #2]
  }
}
 8001f2e:	bf00      	nop
 8001f30:	370c      	adds	r7, #12
 8001f32:	46bd      	mov	sp, r7
 8001f34:	f85d 7b04 	ldr.w	r7, [sp], #4
 8001f38:	4770      	bx	lr
 8001f3a:	bf00      	nop
 8001f3c:	e000e100 	.word	0xe000e100

08001f40 <__NVIC_SetPriority>:
  \param [in]      IRQn  Interrupt number.
  \param [in]  priority  Priority to set.
  \note    The priority cannot be set for every processor exception.
 */
__STATIC_INLINE void __NVIC_SetPriority(IRQn_Type IRQn, uint32_t priority)
{
 8001f40:	b480      	push	{r7}
 8001f42:	b083      	sub	sp, #12
 8001f44:	af00      	add	r7, sp, #0
 8001f46:	4603      	mov	r3, r0
 8001f48:	6039      	str	r1, [r7, #0]
 8001f4a:	71fb      	strb	r3, [r7, #7]
  if ((int32_t)(IRQn) >= 0)
 8001f4c:	f997 3007 	ldrsb.w	r3, [r7, #7]
 8001f50:	2b00      	cmp	r3, #0
 8001f52:	db0a      	blt.n	8001f6a <__NVIC_SetPriority+0x2a>
  {
    NVIC->IP[((uint32_t)IRQn)]               = (uint8_t)((priority << (8U - __NVIC_PRIO_BITS)) & (uint32_t)0xFFUL);
 8001f54:	683b      	ldr	r3, [r7, #0]
 8001f56:	b2da      	uxtb	r2, r3
 8001f58:	490c      	ldr	r1, [pc, #48]	; (8001f8c <__NVIC_SetPriority+0x4c>)
 8001f5a:	f997 3007 	ldrsb.w	r3, [r7, #7]
 8001f5e:	0112      	lsls	r2, r2, #4
 8001f60:	b2d2      	uxtb	r2, r2
 8001f62:	440b      	add	r3, r1
 8001f64:	f883 2300 	strb.w	r2, [r3, #768]	; 0x300
  }
  else
  {
    SCB->SHP[(((uint32_t)IRQn) & 0xFUL)-4UL] = (uint8_t)((priority << (8U - __NVIC_PRIO_BITS)) & (uint32_t)0xFFUL);
  }
}
 8001f68:	e00a      	b.n	8001f80 <__NVIC_SetPriority+0x40>
    SCB->SHP[(((uint32_t)IRQn) & 0xFUL)-4UL] = (uint8_t)((priority << (8U - __NVIC_PRIO_BITS)) & (uint32_t)0xFFUL);
 8001f6a:	683b      	ldr	r3, [r7, #0]
 8001f6c:	b2da      	uxtb	r2, r3
 8001f6e:	4908      	ldr	r1, [pc, #32]	; (8001f90 <__NVIC_SetPriority+0x50>)
 8001f70:	79fb      	ldrb	r3, [r7, #7]
 8001f72:	f003 030f 	and.w	r3, r3, #15
 8001f76:	3b04      	subs	r3, #4
 8001f78:	0112      	lsls	r2, r2, #4
 8001f7a:	b2d2      	uxtb	r2, r2
 8001f7c:	440b      	add	r3, r1
 8001f7e:	761a      	strb	r2, [r3, #24]
}
 8001f80:	bf00      	nop
 8001f82:	370c      	adds	r7, #12
 8001f84:	46bd      	mov	sp, r7
 8001f86:	f85d 7b04 	ldr.w	r7, [sp], #4
 8001f8a:	4770      	bx	lr
 8001f8c:	e000e100 	.word	0xe000e100
 8001f90:	e000ed00 	.word	0xe000ed00

08001f94 <NVIC_EncodePriority>:
  \param [in]   PreemptPriority  Preemptive priority value (starting from 0).
  \param [in]       SubPriority  Subpriority value (starting from 0).
  \return                        Encoded priority. Value can be used in the function \ref NVIC_SetPriority().
 */
__STATIC_INLINE uint32_t NVIC_EncodePriority (uint32_t PriorityGroup, uint32_t PreemptPriority, uint32_t SubPriority)
{
 8001f94:	b480      	push	{r7}
 8001f96:	b089      	sub	sp, #36	; 0x24
 8001f98:	af00      	add	r7, sp, #0
 8001f9a:	60f8      	str	r0, [r7, #12]
 8001f9c:	60b9      	str	r1, [r7, #8]
 8001f9e:	607a      	str	r2, [r7, #4]
  uint32_t PriorityGroupTmp = (PriorityGroup & (uint32_t)0x07UL);   /* only values 0..7 are used          */
 8001fa0:	68fb      	ldr	r3, [r7, #12]
 8001fa2:	f003 0307 	and.w	r3, r3, #7
 8001fa6:	61fb      	str	r3, [r7, #28]
  uint32_t PreemptPriorityBits;
  uint32_t SubPriorityBits;

  PreemptPriorityBits = ((7UL - PriorityGroupTmp) > (uint32_t)(__NVIC_PRIO_BITS)) ? (uint32_t)(__NVIC_PRIO_BITS) : (uint32_t)(7UL - PriorityGroupTmp);
 8001fa8:	69fb      	ldr	r3, [r7, #28]
 8001faa:	f1c3 0307 	rsb	r3, r3, #7
 8001fae:	2b04      	cmp	r3, #4
 8001fb0:	bf28      	it	cs
 8001fb2:	2304      	movcs	r3, #4
 8001fb4:	61bb      	str	r3, [r7, #24]
  SubPriorityBits     = ((PriorityGroupTmp + (uint32_t)(__NVIC_PRIO_BITS)) < (uint32_t)7UL) ? (uint32_t)0UL : (uint32_t)((PriorityGroupTmp - 7UL) + (uint32_t)(__NVIC_PRIO_BITS));
 8001fb6:	69fb      	ldr	r3, [r7, #28]
 8001fb8:	3304      	adds	r3, #4
 8001fba:	2b06      	cmp	r3, #6
 8001fbc:	d902      	bls.n	8001fc4 <NVIC_EncodePriority+0x30>
 8001fbe:	69fb      	ldr	r3, [r7, #28]
 8001fc0:	3b03      	subs	r3, #3
 8001fc2:	e000      	b.n	8001fc6 <NVIC_EncodePriority+0x32>
 8001fc4:	2300      	movs	r3, #0
 8001fc6:	617b      	str	r3, [r7, #20]

  return (
           ((PreemptPriority & (uint32_t)((1UL << (PreemptPriorityBits)) - 1UL)) << SubPriorityBits) |
 8001fc8:	f04f 32ff 	mov.w	r2, #4294967295
 8001fcc:	69bb      	ldr	r3, [r7, #24]
 8001fce:	fa02 f303 	lsl.w	r3, r2, r3
 8001fd2:	43da      	mvns	r2, r3
 8001fd4:	68bb      	ldr	r3, [r7, #8]
 8001fd6:	401a      	ands	r2, r3
 8001fd8:	697b      	ldr	r3, [r7, #20]
 8001fda:	409a      	lsls	r2, r3
           ((SubPriority     & (uint32_t)((1UL << (SubPriorityBits    )) - 1UL)))
 8001fdc:	f04f 31ff 	mov.w	r1, #4294967295
 8001fe0:	697b      	ldr	r3, [r7, #20]
 8001fe2:	fa01 f303 	lsl.w	r3, r1, r3
 8001fe6:	43d9      	mvns	r1, r3
 8001fe8:	687b      	ldr	r3, [r7, #4]
 8001fea:	400b      	ands	r3, r1
           ((PreemptPriority & (uint32_t)((1UL << (PreemptPriorityBits)) - 1UL)) << SubPriorityBits) |
 8001fec:	4313      	orrs	r3, r2
         );
}
 8001fee:	4618      	mov	r0, r3
 8001ff0:	3724      	adds	r7, #36	; 0x24
 8001ff2:	46bd      	mov	sp, r7
 8001ff4:	f85d 7b04 	ldr.w	r7, [sp], #4
 8001ff8:	4770      	bx	lr
	...

08001ffc <SysTick_Config>:
  \note    When the variable <b>__Vendor_SysTickConfig</b> is set to 1, then the
           function <b>SysTick_Config</b> is not included. In this case, the file <b><i>device</i>.h</b>
           must contain a vendor-specific implementation of this function.
 */
__STATIC_INLINE uint32_t SysTick_Config(uint32_t ticks)
{
 8001ffc:	b580      	push	{r7, lr}
 8001ffe:	b082      	sub	sp, #8
 8002000:	af00      	add	r7, sp, #0
 8002002:	6078      	str	r0, [r7, #4]
  if ((ticks - 1UL) > SysTick_LOAD_RELOAD_Msk)
 8002004:	687b      	ldr	r3, [r7, #4]
 8002006:	3b01      	subs	r3, #1
 8002008:	f1b3 7f80 	cmp.w	r3, #16777216	; 0x1000000
 800200c:	d301      	bcc.n	8002012 <SysTick_Config+0x16>
  {
    return (1UL);                                                   /* Reload value impossible */
 800200e:	2301      	movs	r3, #1
 8002010:	e00f      	b.n	8002032 <SysTick_Config+0x36>
  }

  SysTick->LOAD  = (uint32_t)(ticks - 1UL);                         /* set reload register */
 8002012:	4a0a      	ldr	r2, [pc, #40]	; (800203c <SysTick_Config+0x40>)
 8002014:	687b      	ldr	r3, [r7, #4]
 8002016:	3b01      	subs	r3, #1
 8002018:	6053      	str	r3, [r2, #4]
  NVIC_SetPriority (SysTick_IRQn, (1UL << __NVIC_PRIO_BITS) - 1UL); /* set Priority for Systick Interrupt */
 800201a:	210f      	movs	r1, #15
 800201c:	f04f 30ff 	mov.w	r0, #4294967295
 8002020:	f7ff ff8e 	bl	8001f40 <__NVIC_SetPriority>
  SysTick->VAL   = 0UL;                                             /* Load the SysTick Counter Value */
 8002024:	4b05      	ldr	r3, [pc, #20]	; (800203c <SysTick_Config+0x40>)
 8002026:	2200      	movs	r2, #0
 8002028:	609a      	str	r2, [r3, #8]
  SysTick->CTRL  = SysTick_CTRL_CLKSOURCE_Msk |
 800202a:	4b04      	ldr	r3, [pc, #16]	; (800203c <SysTick_Config+0x40>)
 800202c:	2207      	movs	r2, #7
 800202e:	601a      	str	r2, [r3, #0]
                   SysTick_CTRL_TICKINT_Msk   |
                   SysTick_CTRL_ENABLE_Msk;                         /* Enable SysTick IRQ and SysTick Timer */
  return (0UL);                                                     /* Function successful */
 8002030:	2300      	movs	r3, #0
}
 8002032:	4618      	mov	r0, r3
 8002034:	3708      	adds	r7, #8
 8002036:	46bd      	mov	sp, r7
 8002038:	bd80      	pop	{r7, pc}
 800203a:	bf00      	nop
 800203c:	e000e010 	.word	0xe000e010

08002040 <HAL_NVIC_SetPriorityGrouping>:
  * @note   When the NVIC_PriorityGroup_0 is selected, IRQ preemption is no more possible. 
  *         The pending IRQ priority will be managed only by the subpriority. 
  * @retval None
  */
void HAL_NVIC_SetPriorityGrouping(uint32_t PriorityGroup)
{
 8002040:	b580      	push	{r7, lr}
 8002042:	b082      	sub	sp, #8
 8002044:	af00      	add	r7, sp, #0
 8002046:	6078      	str	r0, [r7, #4]
  /* Check the parameters */
  assert_param(IS_NVIC_PRIORITY_GROUP(PriorityGroup));
  
  /* Set the PRIGROUP[10:8] bits according to the PriorityGroup parameter value */
  NVIC_SetPriorityGrouping(PriorityGroup);
 8002048:	6878      	ldr	r0, [r7, #4]
 800204a:	f7ff ff29 	bl	8001ea0 <__NVIC_SetPriorityGrouping>
}
 800204e:	bf00      	nop
 8002050:	3708      	adds	r7, #8
 8002052:	46bd      	mov	sp, r7
 8002054:	bd80      	pop	{r7, pc}

08002056 <HAL_NVIC_SetPriority>:
  *         This parameter can be a value between 0 and 15
  *         A lower priority value indicates a higher priority.          
  * @retval None
  */
void HAL_NVIC_SetPriority(IRQn_Type IRQn, uint32_t PreemptPriority, uint32_t SubPriority)
{ 
 8002056:	b580      	push	{r7, lr}
 8002058:	b086      	sub	sp, #24
 800205a:	af00      	add	r7, sp, #0
 800205c:	4603      	mov	r3, r0
 800205e:	60b9      	str	r1, [r7, #8]
 8002060:	607a      	str	r2, [r7, #4]
 8002062:	73fb      	strb	r3, [r7, #15]
  uint32_t prioritygroup = 0x00U;
 8002064:	2300      	movs	r3, #0
 8002066:	617b      	str	r3, [r7, #20]
  
  /* Check the parameters */
  assert_param(IS_NVIC_SUB_PRIORITY(SubPriority));
  assert_param(IS_NVIC_PREEMPTION_PRIORITY(PreemptPriority));
  
  prioritygroup = NVIC_GetPriorityGrouping();
 8002068:	f7ff ff3e 	bl	8001ee8 <__NVIC_GetPriorityGrouping>
 800206c:	6178      	str	r0, [r7, #20]
  
  NVIC_SetPriority(IRQn, NVIC_EncodePriority(prioritygroup, PreemptPriority, SubPriority));
 800206e:	687a      	ldr	r2, [r7, #4]
 8002070:	68b9      	ldr	r1, [r7, #8]
 8002072:	6978      	ldr	r0, [r7, #20]
 8002074:	f7ff ff8e 	bl	8001f94 <NVIC_EncodePriority>
 8002078:	4602      	mov	r2, r0
 800207a:	f997 300f 	ldrsb.w	r3, [r7, #15]
 800207e:	4611      	mov	r1, r2
 8002080:	4618      	mov	r0, r3
 8002082:	f7ff ff5d 	bl	8001f40 <__NVIC_SetPriority>
}
 8002086:	bf00      	nop
 8002088:	3718      	adds	r7, #24
 800208a:	46bd      	mov	sp, r7
 800208c:	bd80      	pop	{r7, pc}

0800208e <HAL_NVIC_EnableIRQ>:
  *         This parameter can be an enumerator of IRQn_Type enumeration
  *         (For the complete STM32 Devices IRQ Channels list, please refer to the appropriate CMSIS device file (stm32f4xxxx.h))
  * @retval None
  */
void HAL_NVIC_EnableIRQ(IRQn_Type IRQn)
{
 800208e:	b580      	push	{r7, lr}
 8002090:	b082      	sub	sp, #8
 8002092:	af00      	add	r7, sp, #0
 8002094:	4603      	mov	r3, r0
 8002096:	71fb      	strb	r3, [r7, #7]
  /* Check the parameters */
  assert_param(IS_NVIC_DEVICE_IRQ(IRQn));
  
  /* Enable interrupt */
  NVIC_EnableIRQ(IRQn);
 8002098:	f997 3007 	ldrsb.w	r3, [r7, #7]
 800209c:	4618      	mov	r0, r3
 800209e:	f7ff ff31 	bl	8001f04 <__NVIC_EnableIRQ>
}
 80020a2:	bf00      	nop
 80020a4:	3708      	adds	r7, #8
 80020a6:	46bd      	mov	sp, r7
 80020a8:	bd80      	pop	{r7, pc}

080020aa <HAL_SYSTICK_Config>:
  * @param  TicksNumb Specifies the ticks Number of ticks between two interrupts.
  * @retval status:  - 0  Function succeeded.
  *                  - 1  Function failed.
  */
uint32_t HAL_SYSTICK_Config(uint32_t TicksNumb)
{
 80020aa:	b580      	push	{r7, lr}
 80020ac:	b082      	sub	sp, #8
 80020ae:	af00      	add	r7, sp, #0
 80020b0:	6078      	str	r0, [r7, #4]
   return SysTick_Config(TicksNumb);
 80020b2:	6878      	ldr	r0, [r7, #4]
 80020b4:	f7ff ffa2 	bl	8001ffc <SysTick_Config>
 80020b8:	4603      	mov	r3, r0
}
 80020ba:	4618      	mov	r0, r3
 80020bc:	3708      	adds	r7, #8
 80020be:	46bd      	mov	sp, r7
 80020c0:	bd80      	pop	{r7, pc}
	...

080020c4 <HAL_FLASH_IRQHandler>:
/**
  * @brief This function handles FLASH interrupt request.
  * @retval None
  */
void HAL_FLASH_IRQHandler(void)
{
 80020c4:	b580      	push	{r7, lr}
 80020c6:	b082      	sub	sp, #8
 80020c8:	af00      	add	r7, sp, #0
  uint32_t addresstmp = 0U;
 80020ca:	2300      	movs	r3, #0
 80020cc:	607b      	str	r3, [r7, #4]
  
  /* Check FLASH operation error flags */
#if defined(FLASH_SR_RDERR) 
  if(__HAL_FLASH_GET_FLAG((FLASH_FLAG_OPERR | FLASH_FLAG_WRPERR | FLASH_FLAG_PGAERR | \
 80020ce:	4b4b      	ldr	r3, [pc, #300]	; (80021fc <HAL_FLASH_IRQHandler+0x138>)
 80020d0:	68db      	ldr	r3, [r3, #12]
 80020d2:	f403 73f9 	and.w	r3, r3, #498	; 0x1f2
 80020d6:	2b00      	cmp	r3, #0
 80020d8:	d020      	beq.n	800211c <HAL_FLASH_IRQHandler+0x58>
#else
  if(__HAL_FLASH_GET_FLAG((FLASH_FLAG_OPERR | FLASH_FLAG_WRPERR | FLASH_FLAG_PGAERR | \
    FLASH_FLAG_PGPERR | FLASH_FLAG_PGSERR)) != RESET)
#endif /* FLASH_SR_RDERR */
  {
    if(pFlash.ProcedureOnGoing == FLASH_PROC_SECTERASE)
 80020da:	4b49      	ldr	r3, [pc, #292]	; (8002200 <HAL_FLASH_IRQHandler+0x13c>)
 80020dc:	781b      	ldrb	r3, [r3, #0]
 80020de:	b2db      	uxtb	r3, r3
 80020e0:	2b01      	cmp	r3, #1
 80020e2:	d107      	bne.n	80020f4 <HAL_FLASH_IRQHandler+0x30>
    {
      /*return the faulty sector*/
      addresstmp = pFlash.Sector;
 80020e4:	4b46      	ldr	r3, [pc, #280]	; (8002200 <HAL_FLASH_IRQHandler+0x13c>)
 80020e6:	68db      	ldr	r3, [r3, #12]
 80020e8:	607b      	str	r3, [r7, #4]
      pFlash.Sector = 0xFFFFFFFFU;
 80020ea:	4b45      	ldr	r3, [pc, #276]	; (8002200 <HAL_FLASH_IRQHandler+0x13c>)
 80020ec:	f04f 32ff 	mov.w	r2, #4294967295
 80020f0:	60da      	str	r2, [r3, #12]
 80020f2:	e00b      	b.n	800210c <HAL_FLASH_IRQHandler+0x48>
    }
    else if(pFlash.ProcedureOnGoing == FLASH_PROC_MASSERASE)
 80020f4:	4b42      	ldr	r3, [pc, #264]	; (8002200 <HAL_FLASH_IRQHandler+0x13c>)
 80020f6:	781b      	ldrb	r3, [r3, #0]
 80020f8:	b2db      	uxtb	r3, r3
 80020fa:	2b02      	cmp	r3, #2
 80020fc:	d103      	bne.n	8002106 <HAL_FLASH_IRQHandler+0x42>
    {
      /*return the faulty bank*/
      addresstmp = pFlash.Bank;
 80020fe:	4b40      	ldr	r3, [pc, #256]	; (8002200 <HAL_FLASH_IRQHandler+0x13c>)
 8002100:	691b      	ldr	r3, [r3, #16]
 8002102:	607b      	str	r3, [r7, #4]
 8002104:	e002      	b.n	800210c <HAL_FLASH_IRQHandler+0x48>
    }
    else
    {
      /*return the faulty address*/
      addresstmp = pFlash.Address;
 8002106:	4b3e      	ldr	r3, [pc, #248]	; (8002200 <HAL_FLASH_IRQHandler+0x13c>)
 8002108:	695b      	ldr	r3, [r3, #20]
 800210a:	607b      	str	r3, [r7, #4]
    }
    
    /*Save the Error code*/
    FLASH_SetErrorCode();
 800210c:	f000 f88e 	bl	800222c <FLASH_SetErrorCode>
    
    /* FLASH error interrupt user callback */
    HAL_FLASH_OperationErrorCallback(addresstmp);
 8002110:	6878      	ldr	r0, [r7, #4]
 8002112:	f000 f881 	bl	8002218 <HAL_FLASH_OperationErrorCallback>
    
    /*Stop the procedure ongoing*/
    pFlash.ProcedureOnGoing = FLASH_PROC_NONE;
 8002116:	4b3a      	ldr	r3, [pc, #232]	; (8002200 <HAL_FLASH_IRQHandler+0x13c>)
 8002118:	2200      	movs	r2, #0
 800211a:	701a      	strb	r2, [r3, #0]
  }
  
  /* Check FLASH End of Operation flag  */
  if(__HAL_FLASH_GET_FLAG(FLASH_FLAG_EOP) != RESET)
 800211c:	4b37      	ldr	r3, [pc, #220]	; (80021fc <HAL_FLASH_IRQHandler+0x138>)
 800211e:	68db      	ldr	r3, [r3, #12]
 8002120:	f003 0301 	and.w	r3, r3, #1
 8002124:	2b00      	cmp	r3, #0
 8002126:	d04a      	beq.n	80021be <HAL_FLASH_IRQHandler+0xfa>
  {
    /* Clear FLASH End of Operation pending bit */
    __HAL_FLASH_CLEAR_FLAG(FLASH_FLAG_EOP);
 8002128:	4b34      	ldr	r3, [pc, #208]	; (80021fc <HAL_FLASH_IRQHandler+0x138>)
 800212a:	2201      	movs	r2, #1
 800212c:	60da      	str	r2, [r3, #12]
    
    if(pFlash.ProcedureOnGoing == FLASH_PROC_SECTERASE)
 800212e:	4b34      	ldr	r3, [pc, #208]	; (8002200 <HAL_FLASH_IRQHandler+0x13c>)
 8002130:	781b      	ldrb	r3, [r3, #0]
 8002132:	b2db      	uxtb	r3, r3
 8002134:	2b01      	cmp	r3, #1
 8002136:	d12d      	bne.n	8002194 <HAL_FLASH_IRQHandler+0xd0>
    {
      /*Nb of sector to erased can be decreased*/
      pFlash.NbSectorsToErase--;
 8002138:	4b31      	ldr	r3, [pc, #196]	; (8002200 <HAL_FLASH_IRQHandler+0x13c>)
 800213a:	685b      	ldr	r3, [r3, #4]
 800213c:	3b01      	subs	r3, #1
 800213e:	4a30      	ldr	r2, [pc, #192]	; (8002200 <HAL_FLASH_IRQHandler+0x13c>)
 8002140:	6053      	str	r3, [r2, #4]
      
      /* Check if there are still sectors to erase*/
      if(pFlash.NbSectorsToErase != 0U)
 8002142:	4b2f      	ldr	r3, [pc, #188]	; (8002200 <HAL_FLASH_IRQHandler+0x13c>)
 8002144:	685b      	ldr	r3, [r3, #4]
 8002146:	2b00      	cmp	r3, #0
 8002148:	d015      	beq.n	8002176 <HAL_FLASH_IRQHandler+0xb2>
      {
        addresstmp = pFlash.Sector;
 800214a:	4b2d      	ldr	r3, [pc, #180]	; (8002200 <HAL_FLASH_IRQHandler+0x13c>)
 800214c:	68db      	ldr	r3, [r3, #12]
 800214e:	607b      	str	r3, [r7, #4]
        /*Indicate user which sector has been erased*/
        HAL_FLASH_EndOfOperationCallback(addresstmp);
 8002150:	6878      	ldr	r0, [r7, #4]
 8002152:	f000 f857 	bl	8002204 <HAL_FLASH_EndOfOperationCallback>
        
        /*Increment sector number*/
        pFlash.Sector++;
 8002156:	4b2a      	ldr	r3, [pc, #168]	; (8002200 <HAL_FLASH_IRQHandler+0x13c>)
 8002158:	68db      	ldr	r3, [r3, #12]
 800215a:	3301      	adds	r3, #1
 800215c:	4a28      	ldr	r2, [pc, #160]	; (8002200 <HAL_FLASH_IRQHandler+0x13c>)
 800215e:	60d3      	str	r3, [r2, #12]
        addresstmp = pFlash.Sector;
 8002160:	4b27      	ldr	r3, [pc, #156]	; (8002200 <HAL_FLASH_IRQHandler+0x13c>)
 8002162:	68db      	ldr	r3, [r3, #12]
 8002164:	607b      	str	r3, [r7, #4]
        FLASH_Erase_Sector(addresstmp, pFlash.VoltageForErase);
 8002166:	4b26      	ldr	r3, [pc, #152]	; (8002200 <HAL_FLASH_IRQHandler+0x13c>)
 8002168:	7a1b      	ldrb	r3, [r3, #8]
 800216a:	b2db      	uxtb	r3, r3
 800216c:	4619      	mov	r1, r3
 800216e:	6878      	ldr	r0, [r7, #4]
 8002170:	f000 f8c2 	bl	80022f8 <FLASH_Erase_Sector>
 8002174:	e023      	b.n	80021be <HAL_FLASH_IRQHandler+0xfa>
      }
      else
      {
        /*No more sectors to Erase, user callback can be called.*/
        /*Reset Sector and stop Erase sectors procedure*/
        pFlash.Sector = addresstmp = 0xFFFFFFFFU;
 8002176:	f04f 33ff 	mov.w	r3, #4294967295
 800217a:	607b      	str	r3, [r7, #4]
 800217c:	4a20      	ldr	r2, [pc, #128]	; (8002200 <HAL_FLASH_IRQHandler+0x13c>)
 800217e:	687b      	ldr	r3, [r7, #4]
 8002180:	60d3      	str	r3, [r2, #12]
        pFlash.ProcedureOnGoing = FLASH_PROC_NONE;
 8002182:	4b1f      	ldr	r3, [pc, #124]	; (8002200 <HAL_FLASH_IRQHandler+0x13c>)
 8002184:	2200      	movs	r2, #0
 8002186:	701a      	strb	r2, [r3, #0]
        
        /* Flush the caches to be sure of the data consistency */
        FLASH_FlushCaches() ;
 8002188:	f000 f8fe 	bl	8002388 <FLASH_FlushCaches>
                
        /* FLASH EOP interrupt user callback */
        HAL_FLASH_EndOfOperationCallback(addresstmp);
 800218c:	6878      	ldr	r0, [r7, #4]
 800218e:	f000 f839 	bl	8002204 <HAL_FLASH_EndOfOperationCallback>
 8002192:	e014      	b.n	80021be <HAL_FLASH_IRQHandler+0xfa>
      }
    }
    else 
    {
      if(pFlash.ProcedureOnGoing == FLASH_PROC_MASSERASE) 
 8002194:	4b1a      	ldr	r3, [pc, #104]	; (8002200 <HAL_FLASH_IRQHandler+0x13c>)
 8002196:	781b      	ldrb	r3, [r3, #0]
 8002198:	b2db      	uxtb	r3, r3
 800219a:	2b02      	cmp	r3, #2
 800219c:	d107      	bne.n	80021ae <HAL_FLASH_IRQHandler+0xea>
      {
        /* MassErase ended. Return the selected bank */
        /* Flush the caches to be sure of the data consistency */
        FLASH_FlushCaches() ;
 800219e:	f000 f8f3 	bl	8002388 <FLASH_FlushCaches>

        /* FLASH EOP interrupt user callback */
        HAL_FLASH_EndOfOperationCallback(pFlash.Bank);
 80021a2:	4b17      	ldr	r3, [pc, #92]	; (8002200 <HAL_FLASH_IRQHandler+0x13c>)
 80021a4:	691b      	ldr	r3, [r3, #16]
 80021a6:	4618      	mov	r0, r3
 80021a8:	f000 f82c 	bl	8002204 <HAL_FLASH_EndOfOperationCallback>
 80021ac:	e004      	b.n	80021b8 <HAL_FLASH_IRQHandler+0xf4>
      }
      else
      {
        /*Program ended. Return the selected address*/
        /* FLASH EOP interrupt user callback */
        HAL_FLASH_EndOfOperationCallback(pFlash.Address);
 80021ae:	4b14      	ldr	r3, [pc, #80]	; (8002200 <HAL_FLASH_IRQHandler+0x13c>)
 80021b0:	695b      	ldr	r3, [r3, #20]
 80021b2:	4618      	mov	r0, r3
 80021b4:	f000 f826 	bl	8002204 <HAL_FLASH_EndOfOperationCallback>
      }
      pFlash.ProcedureOnGoing = FLASH_PROC_NONE;
 80021b8:	4b11      	ldr	r3, [pc, #68]	; (8002200 <HAL_FLASH_IRQHandler+0x13c>)
 80021ba:	2200      	movs	r2, #0
 80021bc:	701a      	strb	r2, [r3, #0]
    }
  }
  
  if(pFlash.ProcedureOnGoing == FLASH_PROC_NONE)
 80021be:	4b10      	ldr	r3, [pc, #64]	; (8002200 <HAL_FLASH_IRQHandler+0x13c>)
 80021c0:	781b      	ldrb	r3, [r3, #0]
 80021c2:	b2db      	uxtb	r3, r3
 80021c4:	2b00      	cmp	r3, #0
 80021c6:	d114      	bne.n	80021f2 <HAL_FLASH_IRQHandler+0x12e>
  {
    /* Operation is completed, disable the PG, SER, SNB and MER Bits */
    CLEAR_BIT(FLASH->CR, (FLASH_CR_PG | FLASH_CR_SER | FLASH_CR_SNB | FLASH_MER_BIT));
 80021c8:	4b0c      	ldr	r3, [pc, #48]	; (80021fc <HAL_FLASH_IRQHandler+0x138>)
 80021ca:	691b      	ldr	r3, [r3, #16]
 80021cc:	4a0b      	ldr	r2, [pc, #44]	; (80021fc <HAL_FLASH_IRQHandler+0x138>)
 80021ce:	f023 03ff 	bic.w	r3, r3, #255	; 0xff
 80021d2:	6113      	str	r3, [r2, #16]

    /* Disable End of FLASH Operation interrupt */
    __HAL_FLASH_DISABLE_IT(FLASH_IT_EOP);
 80021d4:	4b09      	ldr	r3, [pc, #36]	; (80021fc <HAL_FLASH_IRQHandler+0x138>)
 80021d6:	691b      	ldr	r3, [r3, #16]
 80021d8:	4a08      	ldr	r2, [pc, #32]	; (80021fc <HAL_FLASH_IRQHandler+0x138>)
 80021da:	f023 7380 	bic.w	r3, r3, #16777216	; 0x1000000
 80021de:	6113      	str	r3, [r2, #16]
    
    /* Disable Error source interrupt */
    __HAL_FLASH_DISABLE_IT(FLASH_IT_ERR);
 80021e0:	4b06      	ldr	r3, [pc, #24]	; (80021fc <HAL_FLASH_IRQHandler+0x138>)
 80021e2:	691b      	ldr	r3, [r3, #16]
 80021e4:	4a05      	ldr	r2, [pc, #20]	; (80021fc <HAL_FLASH_IRQHandler+0x138>)
 80021e6:	f023 7300 	bic.w	r3, r3, #33554432	; 0x2000000
 80021ea:	6113      	str	r3, [r2, #16]
    
    /* Process Unlocked */
    __HAL_UNLOCK(&pFlash);
 80021ec:	4b04      	ldr	r3, [pc, #16]	; (8002200 <HAL_FLASH_IRQHandler+0x13c>)
 80021ee:	2200      	movs	r2, #0
 80021f0:	761a      	strb	r2, [r3, #24]
  }
}
 80021f2:	bf00      	nop
 80021f4:	3708      	adds	r7, #8
 80021f6:	46bd      	mov	sp, r7
 80021f8:	bd80      	pop	{r7, pc}
 80021fa:	bf00      	nop
 80021fc:	40023c00 	.word	0x40023c00
 8002200:	20000d10 	.word	0x20000d10

08002204 <HAL_FLASH_EndOfOperationCallback>:
  *                    (if 0xFFFFFFFFU, it means that all the selected sectors have been erased)
  *                  Program: Address which was selected for data program
  * @retval None
  */
__weak void HAL_FLASH_EndOfOperationCallback(uint32_t ReturnValue)
{
 8002204:	b480      	push	{r7}
 8002206:	b083      	sub	sp, #12
 8002208:	af00      	add	r7, sp, #0
 800220a:	6078      	str	r0, [r7, #4]
  /* Prevent unused argument(s) compilation warning */
  UNUSED(ReturnValue);
  /* NOTE : This function Should not be modified, when the callback is needed,
            the HAL_FLASH_EndOfOperationCallback could be implemented in the user file
   */ 
}
 800220c:	bf00      	nop
 800220e:	370c      	adds	r7, #12
 8002210:	46bd      	mov	sp, r7
 8002212:	f85d 7b04 	ldr.w	r7, [sp], #4
 8002216:	4770      	bx	lr

08002218 <HAL_FLASH_OperationErrorCallback>:
  *                 Sectors Erase: Sector number which returned an error
  *                 Program: Address which was selected for data program
  * @retval None
  */
__weak void HAL_FLASH_OperationErrorCallback(uint32_t ReturnValue)
{
 8002218:	b480      	push	{r7}
 800221a:	b083      	sub	sp, #12
 800221c:	af00      	add	r7, sp, #0
 800221e:	6078      	str	r0, [r7, #4]
  /* Prevent unused argument(s) compilation warning */
  UNUSED(ReturnValue);
  /* NOTE : This function Should not be modified, when the callback is needed,
            the HAL_FLASH_OperationErrorCallback could be implemented in the user file
   */ 
}
 8002220:	bf00      	nop
 8002222:	370c      	adds	r7, #12
 8002224:	46bd      	mov	sp, r7
 8002226:	f85d 7b04 	ldr.w	r7, [sp], #4
 800222a:	4770      	bx	lr

0800222c <FLASH_SetErrorCode>:
/**
  * @brief  Set the specific FLASH error flag.
  * @retval None
  */
static void FLASH_SetErrorCode(void)
{ 
 800222c:	b480      	push	{r7}
 800222e:	af00      	add	r7, sp, #0
  if(__HAL_FLASH_GET_FLAG(FLASH_FLAG_WRPERR) != RESET)
 8002230:	4b2f      	ldr	r3, [pc, #188]	; (80022f0 <FLASH_SetErrorCode+0xc4>)
 8002232:	68db      	ldr	r3, [r3, #12]
 8002234:	f003 0310 	and.w	r3, r3, #16
 8002238:	2b00      	cmp	r3, #0
 800223a:	d008      	beq.n	800224e <FLASH_SetErrorCode+0x22>
  {
   pFlash.ErrorCode |= HAL_FLASH_ERROR_WRP;
 800223c:	4b2d      	ldr	r3, [pc, #180]	; (80022f4 <FLASH_SetErrorCode+0xc8>)
 800223e:	69db      	ldr	r3, [r3, #28]
 8002240:	f043 0310 	orr.w	r3, r3, #16
 8002244:	4a2b      	ldr	r2, [pc, #172]	; (80022f4 <FLASH_SetErrorCode+0xc8>)
 8002246:	61d3      	str	r3, [r2, #28]
   
   /* Clear FLASH write protection error pending bit */
   __HAL_FLASH_CLEAR_FLAG(FLASH_FLAG_WRPERR);
 8002248:	4b29      	ldr	r3, [pc, #164]	; (80022f0 <FLASH_SetErrorCode+0xc4>)
 800224a:	2210      	movs	r2, #16
 800224c:	60da      	str	r2, [r3, #12]
  }
  
  if(__HAL_FLASH_GET_FLAG(FLASH_FLAG_PGAERR) != RESET)
 800224e:	4b28      	ldr	r3, [pc, #160]	; (80022f0 <FLASH_SetErrorCode+0xc4>)
 8002250:	68db      	ldr	r3, [r3, #12]
 8002252:	f003 0320 	and.w	r3, r3, #32
 8002256:	2b00      	cmp	r3, #0
 8002258:	d008      	beq.n	800226c <FLASH_SetErrorCode+0x40>
  {
   pFlash.ErrorCode |= HAL_FLASH_ERROR_PGA;
 800225a:	4b26      	ldr	r3, [pc, #152]	; (80022f4 <FLASH_SetErrorCode+0xc8>)
 800225c:	69db      	ldr	r3, [r3, #28]
 800225e:	f043 0308 	orr.w	r3, r3, #8
 8002262:	4a24      	ldr	r2, [pc, #144]	; (80022f4 <FLASH_SetErrorCode+0xc8>)
 8002264:	61d3      	str	r3, [r2, #28]
   
   /* Clear FLASH Programming alignment error pending bit */
   __HAL_FLASH_CLEAR_FLAG(FLASH_FLAG_PGAERR);
 8002266:	4b22      	ldr	r3, [pc, #136]	; (80022f0 <FLASH_SetErrorCode+0xc4>)
 8002268:	2220      	movs	r2, #32
 800226a:	60da      	str	r2, [r3, #12]
  }
  
  if(__HAL_FLASH_GET_FLAG(FLASH_FLAG_PGPERR) != RESET)
 800226c:	4b20      	ldr	r3, [pc, #128]	; (80022f0 <FLASH_SetErrorCode+0xc4>)
 800226e:	68db      	ldr	r3, [r3, #12]
 8002270:	f003 0340 	and.w	r3, r3, #64	; 0x40
 8002274:	2b00      	cmp	r3, #0
 8002276:	d008      	beq.n	800228a <FLASH_SetErrorCode+0x5e>
  {
    pFlash.ErrorCode |= HAL_FLASH_ERROR_PGP;
 8002278:	4b1e      	ldr	r3, [pc, #120]	; (80022f4 <FLASH_SetErrorCode+0xc8>)
 800227a:	69db      	ldr	r3, [r3, #28]
 800227c:	f043 0304 	orr.w	r3, r3, #4
 8002280:	4a1c      	ldr	r2, [pc, #112]	; (80022f4 <FLASH_SetErrorCode+0xc8>)
 8002282:	61d3      	str	r3, [r2, #28]
    
    /* Clear FLASH Programming parallelism error pending bit */
    __HAL_FLASH_CLEAR_FLAG(FLASH_FLAG_PGPERR);
 8002284:	4b1a      	ldr	r3, [pc, #104]	; (80022f0 <FLASH_SetErrorCode+0xc4>)
 8002286:	2240      	movs	r2, #64	; 0x40
 8002288:	60da      	str	r2, [r3, #12]
  }
  
  if(__HAL_FLASH_GET_FLAG(FLASH_FLAG_PGSERR) != RESET)
 800228a:	4b19      	ldr	r3, [pc, #100]	; (80022f0 <FLASH_SetErrorCode+0xc4>)
 800228c:	68db      	ldr	r3, [r3, #12]
 800228e:	f003 0380 	and.w	r3, r3, #128	; 0x80
 8002292:	2b00      	cmp	r3, #0
 8002294:	d008      	beq.n	80022a8 <FLASH_SetErrorCode+0x7c>
  {
    pFlash.ErrorCode |= HAL_FLASH_ERROR_PGS;
 8002296:	4b17      	ldr	r3, [pc, #92]	; (80022f4 <FLASH_SetErrorCode+0xc8>)
 8002298:	69db      	ldr	r3, [r3, #28]
 800229a:	f043 0302 	orr.w	r3, r3, #2
 800229e:	4a15      	ldr	r2, [pc, #84]	; (80022f4 <FLASH_SetErrorCode+0xc8>)
 80022a0:	61d3      	str	r3, [r2, #28]
    
    /* Clear FLASH Programming sequence error pending bit */
    __HAL_FLASH_CLEAR_FLAG(FLASH_FLAG_PGSERR);
 80022a2:	4b13      	ldr	r3, [pc, #76]	; (80022f0 <FLASH_SetErrorCode+0xc4>)
 80022a4:	2280      	movs	r2, #128	; 0x80
 80022a6:	60da      	str	r2, [r3, #12]
  }
#if defined(FLASH_SR_RDERR) 
  if(__HAL_FLASH_GET_FLAG(FLASH_FLAG_RDERR) != RESET)
 80022a8:	4b11      	ldr	r3, [pc, #68]	; (80022f0 <FLASH_SetErrorCode+0xc4>)
 80022aa:	68db      	ldr	r3, [r3, #12]
 80022ac:	f403 7380 	and.w	r3, r3, #256	; 0x100
 80022b0:	2b00      	cmp	r3, #0
 80022b2:	d009      	beq.n	80022c8 <FLASH_SetErrorCode+0x9c>
  {
    pFlash.ErrorCode |= HAL_FLASH_ERROR_RD;
 80022b4:	4b0f      	ldr	r3, [pc, #60]	; (80022f4 <FLASH_SetErrorCode+0xc8>)
 80022b6:	69db      	ldr	r3, [r3, #28]
 80022b8:	f043 0301 	orr.w	r3, r3, #1
 80022bc:	4a0d      	ldr	r2, [pc, #52]	; (80022f4 <FLASH_SetErrorCode+0xc8>)
 80022be:	61d3      	str	r3, [r2, #28]
    
    /* Clear FLASH Proprietary readout protection error pending bit */
    __HAL_FLASH_CLEAR_FLAG(FLASH_FLAG_RDERR);
 80022c0:	4b0b      	ldr	r3, [pc, #44]	; (80022f0 <FLASH_SetErrorCode+0xc4>)
 80022c2:	f44f 7280 	mov.w	r2, #256	; 0x100
 80022c6:	60da      	str	r2, [r3, #12]
  }
#endif /* FLASH_SR_RDERR */  
  if(__HAL_FLASH_GET_FLAG(FLASH_FLAG_OPERR) != RESET)
 80022c8:	4b09      	ldr	r3, [pc, #36]	; (80022f0 <FLASH_SetErrorCode+0xc4>)
 80022ca:	68db      	ldr	r3, [r3, #12]
 80022cc:	f003 0302 	and.w	r3, r3, #2
 80022d0:	2b00      	cmp	r3, #0
 80022d2:	d008      	beq.n	80022e6 <FLASH_SetErrorCode+0xba>
  {
    pFlash.ErrorCode |= HAL_FLASH_ERROR_OPERATION;
 80022d4:	4b07      	ldr	r3, [pc, #28]	; (80022f4 <FLASH_SetErrorCode+0xc8>)
 80022d6:	69db      	ldr	r3, [r3, #28]
 80022d8:	f043 0320 	orr.w	r3, r3, #32
 80022dc:	4a05      	ldr	r2, [pc, #20]	; (80022f4 <FLASH_SetErrorCode+0xc8>)
 80022de:	61d3      	str	r3, [r2, #28]
    
    /* Clear FLASH Operation error pending bit */
    __HAL_FLASH_CLEAR_FLAG(FLASH_FLAG_OPERR);
 80022e0:	4b03      	ldr	r3, [pc, #12]	; (80022f0 <FLASH_SetErrorCode+0xc4>)
 80022e2:	2202      	movs	r2, #2
 80022e4:	60da      	str	r2, [r3, #12]
  }
}
 80022e6:	bf00      	nop
 80022e8:	46bd      	mov	sp, r7
 80022ea:	f85d 7b04 	ldr.w	r7, [sp], #4
 80022ee:	4770      	bx	lr
 80022f0:	40023c00 	.word	0x40023c00
 80022f4:	20000d10 	.word	0x20000d10

080022f8 <FLASH_Erase_Sector>:
  *                                  the operation will be done by double word (64-bit)
  * 
  * @retval None
  */
void FLASH_Erase_Sector(uint32_t Sector, uint8_t VoltageRange)
{
 80022f8:	b480      	push	{r7}
 80022fa:	b085      	sub	sp, #20
 80022fc:	af00      	add	r7, sp, #0
 80022fe:	6078      	str	r0, [r7, #4]
 8002300:	460b      	mov	r3, r1
 8002302:	70fb      	strb	r3, [r7, #3]
  uint32_t tmp_psize = 0U;
 8002304:	2300      	movs	r3, #0
 8002306:	60fb      	str	r3, [r7, #12]

  /* Check the parameters */
  assert_param(IS_FLASH_SECTOR(Sector));
  assert_param(IS_VOLTAGERANGE(VoltageRange));
  
  if(VoltageRange == FLASH_VOLTAGE_RANGE_1)
 8002308:	78fb      	ldrb	r3, [r7, #3]
 800230a:	2b00      	cmp	r3, #0
 800230c:	d102      	bne.n	8002314 <FLASH_Erase_Sector+0x1c>
  {
     tmp_psize = FLASH_PSIZE_BYTE;
 800230e:	2300      	movs	r3, #0
 8002310:	60fb      	str	r3, [r7, #12]
 8002312:	e010      	b.n	8002336 <FLASH_Erase_Sector+0x3e>
  }
  else if(VoltageRange == FLASH_VOLTAGE_RANGE_2)
 8002314:	78fb      	ldrb	r3, [r7, #3]
 8002316:	2b01      	cmp	r3, #1
 8002318:	d103      	bne.n	8002322 <FLASH_Erase_Sector+0x2a>
  {
    tmp_psize = FLASH_PSIZE_HALF_WORD;
 800231a:	f44f 7380 	mov.w	r3, #256	; 0x100
 800231e:	60fb      	str	r3, [r7, #12]
 8002320:	e009      	b.n	8002336 <FLASH_Erase_Sector+0x3e>
  }
  else if(VoltageRange == FLASH_VOLTAGE_RANGE_3)
 8002322:	78fb      	ldrb	r3, [r7, #3]
 8002324:	2b02      	cmp	r3, #2
 8002326:	d103      	bne.n	8002330 <FLASH_Erase_Sector+0x38>
  {
    tmp_psize = FLASH_PSIZE_WORD;
 8002328:	f44f 7300 	mov.w	r3, #512	; 0x200
 800232c:	60fb      	str	r3, [r7, #12]
 800232e:	e002      	b.n	8002336 <FLASH_Erase_Sector+0x3e>
  }
  else
  {
    tmp_psize = FLASH_PSIZE_DOUBLE_WORD;
 8002330:	f44f 7340 	mov.w	r3, #768	; 0x300
 8002334:	60fb      	str	r3, [r7, #12]
  }

  /* If the previous operation is completed, proceed to erase the sector */
  CLEAR_BIT(FLASH->CR, FLASH_CR_PSIZE);
 8002336:	4b13      	ldr	r3, [pc, #76]	; (8002384 <FLASH_Erase_Sector+0x8c>)
 8002338:	691b      	ldr	r3, [r3, #16]
 800233a:	4a12      	ldr	r2, [pc, #72]	; (8002384 <FLASH_Erase_Sector+0x8c>)
 800233c:	f423 7340 	bic.w	r3, r3, #768	; 0x300
 8002340:	6113      	str	r3, [r2, #16]
  FLASH->CR |= tmp_psize;
 8002342:	4b10      	ldr	r3, [pc, #64]	; (8002384 <FLASH_Erase_Sector+0x8c>)
 8002344:	691a      	ldr	r2, [r3, #16]
 8002346:	490f      	ldr	r1, [pc, #60]	; (8002384 <FLASH_Erase_Sector+0x8c>)
 8002348:	68fb      	ldr	r3, [r7, #12]
 800234a:	4313      	orrs	r3, r2
 800234c:	610b      	str	r3, [r1, #16]
  CLEAR_BIT(FLASH->CR, FLASH_CR_SNB);
 800234e:	4b0d      	ldr	r3, [pc, #52]	; (8002384 <FLASH_Erase_Sector+0x8c>)
 8002350:	691b      	ldr	r3, [r3, #16]
 8002352:	4a0c      	ldr	r2, [pc, #48]	; (8002384 <FLASH_Erase_Sector+0x8c>)
 8002354:	f023 03f8 	bic.w	r3, r3, #248	; 0xf8
 8002358:	6113      	str	r3, [r2, #16]
  FLASH->CR |= FLASH_CR_SER | (Sector << FLASH_CR_SNB_Pos);
 800235a:	4b0a      	ldr	r3, [pc, #40]	; (8002384 <FLASH_Erase_Sector+0x8c>)
 800235c:	691a      	ldr	r2, [r3, #16]
 800235e:	687b      	ldr	r3, [r7, #4]
 8002360:	00db      	lsls	r3, r3, #3
 8002362:	4313      	orrs	r3, r2
 8002364:	4a07      	ldr	r2, [pc, #28]	; (8002384 <FLASH_Erase_Sector+0x8c>)
 8002366:	f043 0302 	orr.w	r3, r3, #2
 800236a:	6113      	str	r3, [r2, #16]
  FLASH->CR |= FLASH_CR_STRT;
 800236c:	4b05      	ldr	r3, [pc, #20]	; (8002384 <FLASH_Erase_Sector+0x8c>)
 800236e:	691b      	ldr	r3, [r3, #16]
 8002370:	4a04      	ldr	r2, [pc, #16]	; (8002384 <FLASH_Erase_Sector+0x8c>)
 8002372:	f443 3380 	orr.w	r3, r3, #65536	; 0x10000
 8002376:	6113      	str	r3, [r2, #16]
}
 8002378:	bf00      	nop
 800237a:	3714      	adds	r7, #20
 800237c:	46bd      	mov	sp, r7
 800237e:	f85d 7b04 	ldr.w	r7, [sp], #4
 8002382:	4770      	bx	lr
 8002384:	40023c00 	.word	0x40023c00

08002388 <FLASH_FlushCaches>:
/**
  * @brief  Flush the instruction and data caches
  * @retval None
  */
void FLASH_FlushCaches(void)
{
 8002388:	b480      	push	{r7}
 800238a:	af00      	add	r7, sp, #0
  /* Flush instruction cache  */
  if(READ_BIT(FLASH->ACR, FLASH_ACR_ICEN)!= RESET)
 800238c:	4b20      	ldr	r3, [pc, #128]	; (8002410 <FLASH_FlushCaches+0x88>)
 800238e:	681b      	ldr	r3, [r3, #0]
 8002390:	f403 7300 	and.w	r3, r3, #512	; 0x200
 8002394:	2b00      	cmp	r3, #0
 8002396:	d017      	beq.n	80023c8 <FLASH_FlushCaches+0x40>
  {
    /* Disable instruction cache  */
    __HAL_FLASH_INSTRUCTION_CACHE_DISABLE();
 8002398:	4b1d      	ldr	r3, [pc, #116]	; (8002410 <FLASH_FlushCaches+0x88>)
 800239a:	681b      	ldr	r3, [r3, #0]
 800239c:	4a1c      	ldr	r2, [pc, #112]	; (8002410 <FLASH_FlushCaches+0x88>)
 800239e:	f423 7300 	bic.w	r3, r3, #512	; 0x200
 80023a2:	6013      	str	r3, [r2, #0]
    /* Reset instruction cache */
    __HAL_FLASH_INSTRUCTION_CACHE_RESET();
 80023a4:	4b1a      	ldr	r3, [pc, #104]	; (8002410 <FLASH_FlushCaches+0x88>)
 80023a6:	681b      	ldr	r3, [r3, #0]
 80023a8:	4a19      	ldr	r2, [pc, #100]	; (8002410 <FLASH_FlushCaches+0x88>)
 80023aa:	f443 6300 	orr.w	r3, r3, #2048	; 0x800
 80023ae:	6013      	str	r3, [r2, #0]
 80023b0:	4b17      	ldr	r3, [pc, #92]	; (8002410 <FLASH_FlushCaches+0x88>)
 80023b2:	681b      	ldr	r3, [r3, #0]
 80023b4:	4a16      	ldr	r2, [pc, #88]	; (8002410 <FLASH_FlushCaches+0x88>)
 80023b6:	f423 6300 	bic.w	r3, r3, #2048	; 0x800
 80023ba:	6013      	str	r3, [r2, #0]
    /* Enable instruction cache */
    __HAL_FLASH_INSTRUCTION_CACHE_ENABLE();
 80023bc:	4b14      	ldr	r3, [pc, #80]	; (8002410 <FLASH_FlushCaches+0x88>)
 80023be:	681b      	ldr	r3, [r3, #0]
 80023c0:	4a13      	ldr	r2, [pc, #76]	; (8002410 <FLASH_FlushCaches+0x88>)
 80023c2:	f443 7300 	orr.w	r3, r3, #512	; 0x200
 80023c6:	6013      	str	r3, [r2, #0]
  }
  
  /* Flush data cache */
  if(READ_BIT(FLASH->ACR, FLASH_ACR_DCEN) != RESET)
 80023c8:	4b11      	ldr	r3, [pc, #68]	; (8002410 <FLASH_FlushCaches+0x88>)
 80023ca:	681b      	ldr	r3, [r3, #0]
 80023cc:	f403 6380 	and.w	r3, r3, #1024	; 0x400
 80023d0:	2b00      	cmp	r3, #0
 80023d2:	d017      	beq.n	8002404 <FLASH_FlushCaches+0x7c>
  {
    /* Disable data cache  */
    __HAL_FLASH_DATA_CACHE_DISABLE();
 80023d4:	4b0e      	ldr	r3, [pc, #56]	; (8002410 <FLASH_FlushCaches+0x88>)
 80023d6:	681b      	ldr	r3, [r3, #0]
 80023d8:	4a0d      	ldr	r2, [pc, #52]	; (8002410 <FLASH_FlushCaches+0x88>)
 80023da:	f423 6380 	bic.w	r3, r3, #1024	; 0x400
 80023de:	6013      	str	r3, [r2, #0]
    /* Reset data cache */
    __HAL_FLASH_DATA_CACHE_RESET();
 80023e0:	4b0b      	ldr	r3, [pc, #44]	; (8002410 <FLASH_FlushCaches+0x88>)
 80023e2:	681b      	ldr	r3, [r3, #0]
 80023e4:	4a0a      	ldr	r2, [pc, #40]	; (8002410 <FLASH_FlushCaches+0x88>)
 80023e6:	f443 5380 	orr.w	r3, r3, #4096	; 0x1000
 80023ea:	6013      	str	r3, [r2, #0]
 80023ec:	4b08      	ldr	r3, [pc, #32]	; (8002410 <FLASH_FlushCaches+0x88>)
 80023ee:	681b      	ldr	r3, [r3, #0]
 80023f0:	4a07      	ldr	r2, [pc, #28]	; (8002410 <FLASH_FlushCaches+0x88>)
 80023f2:	f423 5380 	bic.w	r3, r3, #4096	; 0x1000
 80023f6:	6013      	str	r3, [r2, #0]
    /* Enable data cache */
    __HAL_FLASH_DATA_CACHE_ENABLE();
 80023f8:	4b05      	ldr	r3, [pc, #20]	; (8002410 <FLASH_FlushCaches+0x88>)
 80023fa:	681b      	ldr	r3, [r3, #0]
 80023fc:	4a04      	ldr	r2, [pc, #16]	; (8002410 <FLASH_FlushCaches+0x88>)
 80023fe:	f443 6380 	orr.w	r3, r3, #1024	; 0x400
 8002402:	6013      	str	r3, [r2, #0]
  }
}
 8002404:	bf00      	nop
 8002406:	46bd      	mov	sp, r7
 8002408:	f85d 7b04 	ldr.w	r7, [sp], #4
 800240c:	4770      	bx	lr
 800240e:	bf00      	nop
 8002410:	40023c00 	.word	0x40023c00

08002414 <HAL_GPIO_Init>:
  * @param  GPIO_Init pointer to a GPIO_InitTypeDef structure that contains
  *         the configuration information for the specified GPIO peripheral.
  * @retval None
  */
void HAL_GPIO_Init(GPIO_TypeDef  *GPIOx, GPIO_InitTypeDef *GPIO_Init)
{
 8002414:	b480      	push	{r7}
 8002416:	b089      	sub	sp, #36	; 0x24
 8002418:	af00      	add	r7, sp, #0
 800241a:	6078      	str	r0, [r7, #4]
 800241c:	6039      	str	r1, [r7, #0]
  uint32_t position;
  uint32_t ioposition = 0x00U;
 800241e:	2300      	movs	r3, #0
 8002420:	617b      	str	r3, [r7, #20]
  uint32_t iocurrent = 0x00U;
 8002422:	2300      	movs	r3, #0
 8002424:	613b      	str	r3, [r7, #16]
  uint32_t temp = 0x00U;
 8002426:	2300      	movs	r3, #0
 8002428:	61bb      	str	r3, [r7, #24]
  assert_param(IS_GPIO_PIN(GPIO_Init->Pin));
  assert_param(IS_GPIO_MODE(GPIO_Init->Mode));
  assert_param(IS_GPIO_PULL(GPIO_Init->Pull));

  /* Configure the port pins */
  for(position = 0U; position < GPIO_NUMBER; position++)
 800242a:	2300      	movs	r3, #0
 800242c:	61fb      	str	r3, [r7, #28]
 800242e:	e165      	b.n	80026fc <HAL_GPIO_Init+0x2e8>
  {
    /* Get the IO position */
    ioposition = 0x01U << position;
 8002430:	2201      	movs	r2, #1
 8002432:	69fb      	ldr	r3, [r7, #28]
 8002434:	fa02 f303 	lsl.w	r3, r2, r3
 8002438:	617b      	str	r3, [r7, #20]
    /* Get the current IO position */
    iocurrent = (uint32_t)(GPIO_Init->Pin) & ioposition;
 800243a:	683b      	ldr	r3, [r7, #0]
 800243c:	681b      	ldr	r3, [r3, #0]
 800243e:	697a      	ldr	r2, [r7, #20]
 8002440:	4013      	ands	r3, r2
 8002442:	613b      	str	r3, [r7, #16]

    if(iocurrent == ioposition)
 8002444:	693a      	ldr	r2, [r7, #16]
 8002446:	697b      	ldr	r3, [r7, #20]
 8002448:	429a      	cmp	r2, r3
 800244a:	f040 8154 	bne.w	80026f6 <HAL_GPIO_Init+0x2e2>
    {
      /*--------------------- GPIO Mode Configuration ------------------------*/
      /* In case of Output or Alternate function mode selection */
      if((GPIO_Init->Mode == GPIO_MODE_OUTPUT_PP) || (GPIO_Init->Mode == GPIO_MODE_AF_PP) ||
 800244e:	683b      	ldr	r3, [r7, #0]
 8002450:	685b      	ldr	r3, [r3, #4]
 8002452:	2b01      	cmp	r3, #1
 8002454:	d00b      	beq.n	800246e <HAL_GPIO_Init+0x5a>
 8002456:	683b      	ldr	r3, [r7, #0]
 8002458:	685b      	ldr	r3, [r3, #4]
 800245a:	2b02      	cmp	r3, #2
 800245c:	d007      	beq.n	800246e <HAL_GPIO_Init+0x5a>
         (GPIO_Init->Mode == GPIO_MODE_OUTPUT_OD) || (GPIO_Init->Mode == GPIO_MODE_AF_OD))
 800245e:	683b      	ldr	r3, [r7, #0]
 8002460:	685b      	ldr	r3, [r3, #4]
      if((GPIO_Init->Mode == GPIO_MODE_OUTPUT_PP) || (GPIO_Init->Mode == GPIO_MODE_AF_PP) ||
 8002462:	2b11      	cmp	r3, #17
 8002464:	d003      	beq.n	800246e <HAL_GPIO_Init+0x5a>
         (GPIO_Init->Mode == GPIO_MODE_OUTPUT_OD) || (GPIO_Init->Mode == GPIO_MODE_AF_OD))
 8002466:	683b      	ldr	r3, [r7, #0]
 8002468:	685b      	ldr	r3, [r3, #4]
 800246a:	2b12      	cmp	r3, #18
 800246c:	d130      	bne.n	80024d0 <HAL_GPIO_Init+0xbc>
      {
        /* Check the Speed parameter */
        assert_param(IS_GPIO_SPEED(GPIO_Init->Speed));
        /* Configure the IO Speed */
        temp = GPIOx->OSPEEDR; 
 800246e:	687b      	ldr	r3, [r7, #4]
 8002470:	689b      	ldr	r3, [r3, #8]
 8002472:	61bb      	str	r3, [r7, #24]
        temp &= ~(GPIO_OSPEEDER_OSPEEDR0 << (position * 2U));
 8002474:	69fb      	ldr	r3, [r7, #28]
 8002476:	005b      	lsls	r3, r3, #1
 8002478:	2203      	movs	r2, #3
 800247a:	fa02 f303 	lsl.w	r3, r2, r3
 800247e:	43db      	mvns	r3, r3
 8002480:	69ba      	ldr	r2, [r7, #24]
 8002482:	4013      	ands	r3, r2
 8002484:	61bb      	str	r3, [r7, #24]
        temp |= (GPIO_Init->Speed << (position * 2U));
 8002486:	683b      	ldr	r3, [r7, #0]
 8002488:	68da      	ldr	r2, [r3, #12]
 800248a:	69fb      	ldr	r3, [r7, #28]
 800248c:	005b      	lsls	r3, r3, #1
 800248e:	fa02 f303 	lsl.w	r3, r2, r3
 8002492:	69ba      	ldr	r2, [r7, #24]
 8002494:	4313      	orrs	r3, r2
 8002496:	61bb      	str	r3, [r7, #24]
        GPIOx->OSPEEDR = temp;
 8002498:	687b      	ldr	r3, [r7, #4]
 800249a:	69ba      	ldr	r2, [r7, #24]
 800249c:	609a      	str	r2, [r3, #8]

        /* Configure the IO Output Type */
        temp = GPIOx->OTYPER;
 800249e:	687b      	ldr	r3, [r7, #4]
 80024a0:	685b      	ldr	r3, [r3, #4]
 80024a2:	61bb      	str	r3, [r7, #24]
        temp &= ~(GPIO_OTYPER_OT_0 << position) ;
 80024a4:	2201      	movs	r2, #1
 80024a6:	69fb      	ldr	r3, [r7, #28]
 80024a8:	fa02 f303 	lsl.w	r3, r2, r3
 80024ac:	43db      	mvns	r3, r3
 80024ae:	69ba      	ldr	r2, [r7, #24]
 80024b0:	4013      	ands	r3, r2
 80024b2:	61bb      	str	r3, [r7, #24]
        temp |= (((GPIO_Init->Mode & GPIO_OUTPUT_TYPE) >> 4U) << position);
 80024b4:	683b      	ldr	r3, [r7, #0]
 80024b6:	685b      	ldr	r3, [r3, #4]
 80024b8:	091b      	lsrs	r3, r3, #4
 80024ba:	f003 0201 	and.w	r2, r3, #1
 80024be:	69fb      	ldr	r3, [r7, #28]
 80024c0:	fa02 f303 	lsl.w	r3, r2, r3
 80024c4:	69ba      	ldr	r2, [r7, #24]
 80024c6:	4313      	orrs	r3, r2
 80024c8:	61bb      	str	r3, [r7, #24]
        GPIOx->OTYPER = temp;
 80024ca:	687b      	ldr	r3, [r7, #4]
 80024cc:	69ba      	ldr	r2, [r7, #24]
 80024ce:	605a      	str	r2, [r3, #4]
       }

      /* Activate the Pull-up or Pull down resistor for the current IO */
      temp = GPIOx->PUPDR;
 80024d0:	687b      	ldr	r3, [r7, #4]
 80024d2:	68db      	ldr	r3, [r3, #12]
 80024d4:	61bb      	str	r3, [r7, #24]
      temp &= ~(GPIO_PUPDR_PUPDR0 << (position * 2U));
 80024d6:	69fb      	ldr	r3, [r7, #28]
 80024d8:	005b      	lsls	r3, r3, #1
 80024da:	2203      	movs	r2, #3
 80024dc:	fa02 f303 	lsl.w	r3, r2, r3
 80024e0:	43db      	mvns	r3, r3
 80024e2:	69ba      	ldr	r2, [r7, #24]
 80024e4:	4013      	ands	r3, r2
 80024e6:	61bb      	str	r3, [r7, #24]
      temp |= ((GPIO_Init->Pull) << (position * 2U));
 80024e8:	683b      	ldr	r3, [r7, #0]
 80024ea:	689a      	ldr	r2, [r3, #8]
 80024ec:	69fb      	ldr	r3, [r7, #28]
 80024ee:	005b      	lsls	r3, r3, #1
 80024f0:	fa02 f303 	lsl.w	r3, r2, r3
 80024f4:	69ba      	ldr	r2, [r7, #24]
 80024f6:	4313      	orrs	r3, r2
 80024f8:	61bb      	str	r3, [r7, #24]
      GPIOx->PUPDR = temp;
 80024fa:	687b      	ldr	r3, [r7, #4]
 80024fc:	69ba      	ldr	r2, [r7, #24]
 80024fe:	60da      	str	r2, [r3, #12]

      /* In case of Alternate function mode selection */
      if((GPIO_Init->Mode == GPIO_MODE_AF_PP) || (GPIO_Init->Mode == GPIO_MODE_AF_OD))
 8002500:	683b      	ldr	r3, [r7, #0]
 8002502:	685b      	ldr	r3, [r3, #4]
 8002504:	2b02      	cmp	r3, #2
 8002506:	d003      	beq.n	8002510 <HAL_GPIO_Init+0xfc>
 8002508:	683b      	ldr	r3, [r7, #0]
 800250a:	685b      	ldr	r3, [r3, #4]
 800250c:	2b12      	cmp	r3, #18
 800250e:	d123      	bne.n	8002558 <HAL_GPIO_Init+0x144>
      {
        /* Check the Alternate function parameter */
        assert_param(IS_GPIO_AF(GPIO_Init->Alternate));
        /* Configure Alternate function mapped with the current IO */
        temp = GPIOx->AFR[position >> 3U];
 8002510:	69fb      	ldr	r3, [r7, #28]
 8002512:	08da      	lsrs	r2, r3, #3
 8002514:	687b      	ldr	r3, [r7, #4]
 8002516:	3208      	adds	r2, #8
 8002518:	f853 3022 	ldr.w	r3, [r3, r2, lsl #2]
 800251c:	61bb      	str	r3, [r7, #24]
        temp &= ~(0xFU << ((uint32_t)(position & 0x07U) * 4U)) ;
 800251e:	69fb      	ldr	r3, [r7, #28]
 8002520:	f003 0307 	and.w	r3, r3, #7
 8002524:	009b      	lsls	r3, r3, #2
 8002526:	220f      	movs	r2, #15
 8002528:	fa02 f303 	lsl.w	r3, r2, r3
 800252c:	43db      	mvns	r3, r3
 800252e:	69ba      	ldr	r2, [r7, #24]
 8002530:	4013      	ands	r3, r2
 8002532:	61bb      	str	r3, [r7, #24]
        temp |= ((uint32_t)(GPIO_Init->Alternate) << (((uint32_t)position & 0x07U) * 4U));
 8002534:	683b      	ldr	r3, [r7, #0]
 8002536:	691a      	ldr	r2, [r3, #16]
 8002538:	69fb      	ldr	r3, [r7, #28]
 800253a:	f003 0307 	and.w	r3, r3, #7
 800253e:	009b      	lsls	r3, r3, #2
 8002540:	fa02 f303 	lsl.w	r3, r2, r3
 8002544:	69ba      	ldr	r2, [r7, #24]
 8002546:	4313      	orrs	r3, r2
 8002548:	61bb      	str	r3, [r7, #24]
        GPIOx->AFR[position >> 3U] = temp;
 800254a:	69fb      	ldr	r3, [r7, #28]
 800254c:	08da      	lsrs	r2, r3, #3
 800254e:	687b      	ldr	r3, [r7, #4]
 8002550:	3208      	adds	r2, #8
 8002552:	69b9      	ldr	r1, [r7, #24]
 8002554:	f843 1022 	str.w	r1, [r3, r2, lsl #2]
      }

      /* Configure IO Direction mode (Input, Output, Alternate or Analog) */
      temp = GPIOx->MODER;
 8002558:	687b      	ldr	r3, [r7, #4]
 800255a:	681b      	ldr	r3, [r3, #0]
 800255c:	61bb      	str	r3, [r7, #24]
      temp &= ~(GPIO_MODER_MODER0 << (position * 2U));
 800255e:	69fb      	ldr	r3, [r7, #28]
 8002560:	005b      	lsls	r3, r3, #1
 8002562:	2203      	movs	r2, #3
 8002564:	fa02 f303 	lsl.w	r3, r2, r3
 8002568:	43db      	mvns	r3, r3
 800256a:	69ba      	ldr	r2, [r7, #24]
 800256c:	4013      	ands	r3, r2
 800256e:	61bb      	str	r3, [r7, #24]
      temp |= ((GPIO_Init->Mode & GPIO_MODE) << (position * 2U));
 8002570:	683b      	ldr	r3, [r7, #0]
 8002572:	685b      	ldr	r3, [r3, #4]
 8002574:	f003 0203 	and.w	r2, r3, #3
 8002578:	69fb      	ldr	r3, [r7, #28]
 800257a:	005b      	lsls	r3, r3, #1
 800257c:	fa02 f303 	lsl.w	r3, r2, r3
 8002580:	69ba      	ldr	r2, [r7, #24]
 8002582:	4313      	orrs	r3, r2
 8002584:	61bb      	str	r3, [r7, #24]
      GPIOx->MODER = temp;
 8002586:	687b      	ldr	r3, [r7, #4]
 8002588:	69ba      	ldr	r2, [r7, #24]
 800258a:	601a      	str	r2, [r3, #0]

      /*--------------------- EXTI Mode Configuration ------------------------*/
      /* Configure the External Interrupt or event for the current IO */
      if((GPIO_Init->Mode & EXTI_MODE) == EXTI_MODE)
 800258c:	683b      	ldr	r3, [r7, #0]
 800258e:	685b      	ldr	r3, [r3, #4]
 8002590:	f003 5380 	and.w	r3, r3, #268435456	; 0x10000000
 8002594:	2b00      	cmp	r3, #0
 8002596:	f000 80ae 	beq.w	80026f6 <HAL_GPIO_Init+0x2e2>
      {
        /* Enable SYSCFG Clock */
        __HAL_RCC_SYSCFG_CLK_ENABLE();
 800259a:	2300      	movs	r3, #0
 800259c:	60fb      	str	r3, [r7, #12]
 800259e:	4b5c      	ldr	r3, [pc, #368]	; (8002710 <HAL_GPIO_Init+0x2fc>)
 80025a0:	6c5b      	ldr	r3, [r3, #68]	; 0x44
 80025a2:	4a5b      	ldr	r2, [pc, #364]	; (8002710 <HAL_GPIO_Init+0x2fc>)
 80025a4:	f443 4380 	orr.w	r3, r3, #16384	; 0x4000
 80025a8:	6453      	str	r3, [r2, #68]	; 0x44
 80025aa:	4b59      	ldr	r3, [pc, #356]	; (8002710 <HAL_GPIO_Init+0x2fc>)
 80025ac:	6c5b      	ldr	r3, [r3, #68]	; 0x44
 80025ae:	f403 4380 	and.w	r3, r3, #16384	; 0x4000
 80025b2:	60fb      	str	r3, [r7, #12]
 80025b4:	68fb      	ldr	r3, [r7, #12]

        temp = SYSCFG->EXTICR[position >> 2U];
 80025b6:	4a57      	ldr	r2, [pc, #348]	; (8002714 <HAL_GPIO_Init+0x300>)
 80025b8:	69fb      	ldr	r3, [r7, #28]
 80025ba:	089b      	lsrs	r3, r3, #2
 80025bc:	3302      	adds	r3, #2
 80025be:	f852 3023 	ldr.w	r3, [r2, r3, lsl #2]
 80025c2:	61bb      	str	r3, [r7, #24]
        temp &= ~(0x0FU << (4U * (position & 0x03U)));
 80025c4:	69fb      	ldr	r3, [r7, #28]
 80025c6:	f003 0303 	and.w	r3, r3, #3
 80025ca:	009b      	lsls	r3, r3, #2
 80025cc:	220f      	movs	r2, #15
 80025ce:	fa02 f303 	lsl.w	r3, r2, r3
 80025d2:	43db      	mvns	r3, r3
 80025d4:	69ba      	ldr	r2, [r7, #24]
 80025d6:	4013      	ands	r3, r2
 80025d8:	61bb      	str	r3, [r7, #24]
        temp |= ((uint32_t)(GPIO_GET_INDEX(GPIOx)) << (4U * (position & 0x03U)));
 80025da:	687b      	ldr	r3, [r7, #4]
 80025dc:	4a4e      	ldr	r2, [pc, #312]	; (8002718 <HAL_GPIO_Init+0x304>)
 80025de:	4293      	cmp	r3, r2
 80025e0:	d025      	beq.n	800262e <HAL_GPIO_Init+0x21a>
 80025e2:	687b      	ldr	r3, [r7, #4]
 80025e4:	4a4d      	ldr	r2, [pc, #308]	; (800271c <HAL_GPIO_Init+0x308>)
 80025e6:	4293      	cmp	r3, r2
 80025e8:	d01f      	beq.n	800262a <HAL_GPIO_Init+0x216>
 80025ea:	687b      	ldr	r3, [r7, #4]
 80025ec:	4a4c      	ldr	r2, [pc, #304]	; (8002720 <HAL_GPIO_Init+0x30c>)
 80025ee:	4293      	cmp	r3, r2
 80025f0:	d019      	beq.n	8002626 <HAL_GPIO_Init+0x212>
 80025f2:	687b      	ldr	r3, [r7, #4]
 80025f4:	4a4b      	ldr	r2, [pc, #300]	; (8002724 <HAL_GPIO_Init+0x310>)
 80025f6:	4293      	cmp	r3, r2
 80025f8:	d013      	beq.n	8002622 <HAL_GPIO_Init+0x20e>
 80025fa:	687b      	ldr	r3, [r7, #4]
 80025fc:	4a4a      	ldr	r2, [pc, #296]	; (8002728 <HAL_GPIO_Init+0x314>)
 80025fe:	4293      	cmp	r3, r2
 8002600:	d00d      	beq.n	800261e <HAL_GPIO_Init+0x20a>
 8002602:	687b      	ldr	r3, [r7, #4]
 8002604:	4a49      	ldr	r2, [pc, #292]	; (800272c <HAL_GPIO_Init+0x318>)
 8002606:	4293      	cmp	r3, r2
 8002608:	d007      	beq.n	800261a <HAL_GPIO_Init+0x206>
 800260a:	687b      	ldr	r3, [r7, #4]
 800260c:	4a48      	ldr	r2, [pc, #288]	; (8002730 <HAL_GPIO_Init+0x31c>)
 800260e:	4293      	cmp	r3, r2
 8002610:	d101      	bne.n	8002616 <HAL_GPIO_Init+0x202>
 8002612:	2306      	movs	r3, #6
 8002614:	e00c      	b.n	8002630 <HAL_GPIO_Init+0x21c>
 8002616:	2307      	movs	r3, #7
 8002618:	e00a      	b.n	8002630 <HAL_GPIO_Init+0x21c>
 800261a:	2305      	movs	r3, #5
 800261c:	e008      	b.n	8002630 <HAL_GPIO_Init+0x21c>
 800261e:	2304      	movs	r3, #4
 8002620:	e006      	b.n	8002630 <HAL_GPIO_Init+0x21c>
 8002622:	2303      	movs	r3, #3
 8002624:	e004      	b.n	8002630 <HAL_GPIO_Init+0x21c>
 8002626:	2302      	movs	r3, #2
 8002628:	e002      	b.n	8002630 <HAL_GPIO_Init+0x21c>
 800262a:	2301      	movs	r3, #1
 800262c:	e000      	b.n	8002630 <HAL_GPIO_Init+0x21c>
 800262e:	2300      	movs	r3, #0
 8002630:	69fa      	ldr	r2, [r7, #28]
 8002632:	f002 0203 	and.w	r2, r2, #3
 8002636:	0092      	lsls	r2, r2, #2
 8002638:	4093      	lsls	r3, r2
 800263a:	69ba      	ldr	r2, [r7, #24]
 800263c:	4313      	orrs	r3, r2
 800263e:	61bb      	str	r3, [r7, #24]
        SYSCFG->EXTICR[position >> 2U] = temp;
 8002640:	4934      	ldr	r1, [pc, #208]	; (8002714 <HAL_GPIO_Init+0x300>)
 8002642:	69fb      	ldr	r3, [r7, #28]
 8002644:	089b      	lsrs	r3, r3, #2
 8002646:	3302      	adds	r3, #2
 8002648:	69ba      	ldr	r2, [r7, #24]
 800264a:	f841 2023 	str.w	r2, [r1, r3, lsl #2]

        /* Clear EXTI line configuration */
        temp = EXTI->IMR;
 800264e:	4b39      	ldr	r3, [pc, #228]	; (8002734 <HAL_GPIO_Init+0x320>)
 8002650:	681b      	ldr	r3, [r3, #0]
 8002652:	61bb      	str	r3, [r7, #24]
        temp &= ~((uint32_t)iocurrent);
 8002654:	693b      	ldr	r3, [r7, #16]
 8002656:	43db      	mvns	r3, r3
 8002658:	69ba      	ldr	r2, [r7, #24]
 800265a:	4013      	ands	r3, r2
 800265c:	61bb      	str	r3, [r7, #24]
        if((GPIO_Init->Mode & GPIO_MODE_IT) == GPIO_MODE_IT)
 800265e:	683b      	ldr	r3, [r7, #0]
 8002660:	685b      	ldr	r3, [r3, #4]
 8002662:	f403 3380 	and.w	r3, r3, #65536	; 0x10000
 8002666:	2b00      	cmp	r3, #0
 8002668:	d003      	beq.n	8002672 <HAL_GPIO_Init+0x25e>
        {
          temp |= iocurrent;
 800266a:	69ba      	ldr	r2, [r7, #24]
 800266c:	693b      	ldr	r3, [r7, #16]
 800266e:	4313      	orrs	r3, r2
 8002670:	61bb      	str	r3, [r7, #24]
        }
        EXTI->IMR = temp;
 8002672:	4a30      	ldr	r2, [pc, #192]	; (8002734 <HAL_GPIO_Init+0x320>)
 8002674:	69bb      	ldr	r3, [r7, #24]
 8002676:	6013      	str	r3, [r2, #0]

        temp = EXTI->EMR;
 8002678:	4b2e      	ldr	r3, [pc, #184]	; (8002734 <HAL_GPIO_Init+0x320>)
 800267a:	685b      	ldr	r3, [r3, #4]
 800267c:	61bb      	str	r3, [r7, #24]
        temp &= ~((uint32_t)iocurrent);
 800267e:	693b      	ldr	r3, [r7, #16]
 8002680:	43db      	mvns	r3, r3
 8002682:	69ba      	ldr	r2, [r7, #24]
 8002684:	4013      	ands	r3, r2
 8002686:	61bb      	str	r3, [r7, #24]
        if((GPIO_Init->Mode & GPIO_MODE_EVT) == GPIO_MODE_EVT)
 8002688:	683b      	ldr	r3, [r7, #0]
 800268a:	685b      	ldr	r3, [r3, #4]
 800268c:	f403 3300 	and.w	r3, r3, #131072	; 0x20000
 8002690:	2b00      	cmp	r3, #0
 8002692:	d003      	beq.n	800269c <HAL_GPIO_Init+0x288>
        {
          temp |= iocurrent;
 8002694:	69ba      	ldr	r2, [r7, #24]
 8002696:	693b      	ldr	r3, [r7, #16]
 8002698:	4313      	orrs	r3, r2
 800269a:	61bb      	str	r3, [r7, #24]
        }
        EXTI->EMR = temp;
 800269c:	4a25      	ldr	r2, [pc, #148]	; (8002734 <HAL_GPIO_Init+0x320>)
 800269e:	69bb      	ldr	r3, [r7, #24]
 80026a0:	6053      	str	r3, [r2, #4]

        /* Clear Rising Falling edge configuration */
        temp = EXTI->RTSR;
 80026a2:	4b24      	ldr	r3, [pc, #144]	; (8002734 <HAL_GPIO_Init+0x320>)
 80026a4:	689b      	ldr	r3, [r3, #8]
 80026a6:	61bb      	str	r3, [r7, #24]
        temp &= ~((uint32_t)iocurrent);
 80026a8:	693b      	ldr	r3, [r7, #16]
 80026aa:	43db      	mvns	r3, r3
 80026ac:	69ba      	ldr	r2, [r7, #24]
 80026ae:	4013      	ands	r3, r2
 80026b0:	61bb      	str	r3, [r7, #24]
        if((GPIO_Init->Mode & RISING_EDGE) == RISING_EDGE)
 80026b2:	683b      	ldr	r3, [r7, #0]
 80026b4:	685b      	ldr	r3, [r3, #4]
 80026b6:	f403 1380 	and.w	r3, r3, #1048576	; 0x100000
 80026ba:	2b00      	cmp	r3, #0
 80026bc:	d003      	beq.n	80026c6 <HAL_GPIO_Init+0x2b2>
        {
          temp |= iocurrent;
 80026be:	69ba      	ldr	r2, [r7, #24]
 80026c0:	693b      	ldr	r3, [r7, #16]
 80026c2:	4313      	orrs	r3, r2
 80026c4:	61bb      	str	r3, [r7, #24]
        }
        EXTI->RTSR = temp;
 80026c6:	4a1b      	ldr	r2, [pc, #108]	; (8002734 <HAL_GPIO_Init+0x320>)
 80026c8:	69bb      	ldr	r3, [r7, #24]
 80026ca:	6093      	str	r3, [r2, #8]

        temp = EXTI->FTSR;
 80026cc:	4b19      	ldr	r3, [pc, #100]	; (8002734 <HAL_GPIO_Init+0x320>)
 80026ce:	68db      	ldr	r3, [r3, #12]
 80026d0:	61bb      	str	r3, [r7, #24]
        temp &= ~((uint32_t)iocurrent);
 80026d2:	693b      	ldr	r3, [r7, #16]
 80026d4:	43db      	mvns	r3, r3
 80026d6:	69ba      	ldr	r2, [r7, #24]
 80026d8:	4013      	ands	r3, r2
 80026da:	61bb      	str	r3, [r7, #24]
        if((GPIO_Init->Mode & FALLING_EDGE) == FALLING_EDGE)
 80026dc:	683b      	ldr	r3, [r7, #0]
 80026de:	685b      	ldr	r3, [r3, #4]
 80026e0:	f403 1300 	and.w	r3, r3, #2097152	; 0x200000
 80026e4:	2b00      	cmp	r3, #0
 80026e6:	d003      	beq.n	80026f0 <HAL_GPIO_Init+0x2dc>
        {
          temp |= iocurrent;
 80026e8:	69ba      	ldr	r2, [r7, #24]
 80026ea:	693b      	ldr	r3, [r7, #16]
 80026ec:	4313      	orrs	r3, r2
 80026ee:	61bb      	str	r3, [r7, #24]
        }
        EXTI->FTSR = temp;
 80026f0:	4a10      	ldr	r2, [pc, #64]	; (8002734 <HAL_GPIO_Init+0x320>)
 80026f2:	69bb      	ldr	r3, [r7, #24]
 80026f4:	60d3      	str	r3, [r2, #12]
  for(position = 0U; position < GPIO_NUMBER; position++)
 80026f6:	69fb      	ldr	r3, [r7, #28]
 80026f8:	3301      	adds	r3, #1
 80026fa:	61fb      	str	r3, [r7, #28]
 80026fc:	69fb      	ldr	r3, [r7, #28]
 80026fe:	2b0f      	cmp	r3, #15
 8002700:	f67f ae96 	bls.w	8002430 <HAL_GPIO_Init+0x1c>
      }
    }
  }
}
 8002704:	bf00      	nop
 8002706:	3724      	adds	r7, #36	; 0x24
 8002708:	46bd      	mov	sp, r7
 800270a:	f85d 7b04 	ldr.w	r7, [sp], #4
 800270e:	4770      	bx	lr
 8002710:	40023800 	.word	0x40023800
 8002714:	40013800 	.word	0x40013800
 8002718:	40020000 	.word	0x40020000
 800271c:	40020400 	.word	0x40020400
 8002720:	40020800 	.word	0x40020800
 8002724:	40020c00 	.word	0x40020c00
 8002728:	40021000 	.word	0x40021000
 800272c:	40021400 	.word	0x40021400
 8002730:	40021800 	.word	0x40021800
 8002734:	40013c00 	.word	0x40013c00

08002738 <HAL_GPIO_WritePin>:
  *            @arg GPIO_PIN_RESET: to clear the port pin
  *            @arg GPIO_PIN_SET: to set the port pin
  * @retval None
  */
void HAL_GPIO_WritePin(GPIO_TypeDef* GPIOx, uint16_t GPIO_Pin, GPIO_PinState PinState)
{
 8002738:	b480      	push	{r7}
 800273a:	b083      	sub	sp, #12
 800273c:	af00      	add	r7, sp, #0
 800273e:	6078      	str	r0, [r7, #4]
 8002740:	460b      	mov	r3, r1
 8002742:	807b      	strh	r3, [r7, #2]
 8002744:	4613      	mov	r3, r2
 8002746:	707b      	strb	r3, [r7, #1]
  /* Check the parameters */
  assert_param(IS_GPIO_PIN(GPIO_Pin));
  assert_param(IS_GPIO_PIN_ACTION(PinState));

  if(PinState != GPIO_PIN_RESET)
 8002748:	787b      	ldrb	r3, [r7, #1]
 800274a:	2b00      	cmp	r3, #0
 800274c:	d003      	beq.n	8002756 <HAL_GPIO_WritePin+0x1e>
  {
    GPIOx->BSRR = GPIO_Pin;
 800274e:	887a      	ldrh	r2, [r7, #2]
 8002750:	687b      	ldr	r3, [r7, #4]
 8002752:	619a      	str	r2, [r3, #24]
  }
  else
  {
    GPIOx->BSRR = (uint32_t)GPIO_Pin << 16U;
  }
}
 8002754:	e003      	b.n	800275e <HAL_GPIO_WritePin+0x26>
    GPIOx->BSRR = (uint32_t)GPIO_Pin << 16U;
 8002756:	887b      	ldrh	r3, [r7, #2]
 8002758:	041a      	lsls	r2, r3, #16
 800275a:	687b      	ldr	r3, [r7, #4]
 800275c:	619a      	str	r2, [r3, #24]
}
 800275e:	bf00      	nop
 8002760:	370c      	adds	r7, #12
 8002762:	46bd      	mov	sp, r7
 8002764:	f85d 7b04 	ldr.w	r7, [sp], #4
 8002768:	4770      	bx	lr

0800276a <HAL_GPIO_TogglePin>:
  *                      x can be (A..I) to select the GPIO peripheral for STM32F40XX and STM32F427X devices.
  * @param  GPIO_Pin Specifies the pins to be toggled.
  * @retval None
  */
void HAL_GPIO_TogglePin(GPIO_TypeDef* GPIOx, uint16_t GPIO_Pin)
{
 800276a:	b480      	push	{r7}
 800276c:	b083      	sub	sp, #12
 800276e:	af00      	add	r7, sp, #0
 8002770:	6078      	str	r0, [r7, #4]
 8002772:	460b      	mov	r3, r1
 8002774:	807b      	strh	r3, [r7, #2]
  /* Check the parameters */
  assert_param(IS_GPIO_PIN(GPIO_Pin));

  if ((GPIOx->ODR & GPIO_Pin) == GPIO_Pin)
 8002776:	687b      	ldr	r3, [r7, #4]
 8002778:	695a      	ldr	r2, [r3, #20]
 800277a:	887b      	ldrh	r3, [r7, #2]
 800277c:	401a      	ands	r2, r3
 800277e:	887b      	ldrh	r3, [r7, #2]
 8002780:	429a      	cmp	r2, r3
 8002782:	d104      	bne.n	800278e <HAL_GPIO_TogglePin+0x24>
  {
    GPIOx->BSRR = (uint32_t)GPIO_Pin << GPIO_NUMBER;
 8002784:	887b      	ldrh	r3, [r7, #2]
 8002786:	041a      	lsls	r2, r3, #16
 8002788:	687b      	ldr	r3, [r7, #4]
 800278a:	619a      	str	r2, [r3, #24]
  }
  else
  {
    GPIOx->BSRR = GPIO_Pin;
  }
}
 800278c:	e002      	b.n	8002794 <HAL_GPIO_TogglePin+0x2a>
    GPIOx->BSRR = GPIO_Pin;
 800278e:	887a      	ldrh	r2, [r7, #2]
 8002790:	687b      	ldr	r3, [r7, #4]
 8002792:	619a      	str	r2, [r3, #24]
}
 8002794:	bf00      	nop
 8002796:	370c      	adds	r7, #12
 8002798:	46bd      	mov	sp, r7
 800279a:	f85d 7b04 	ldr.w	r7, [sp], #4
 800279e:	4770      	bx	lr

080027a0 <HAL_GPIO_EXTI_IRQHandler>:
  * @brief  This function handles EXTI interrupt request.
  * @param  GPIO_Pin Specifies the pins connected EXTI line
  * @retval None
  */
void HAL_GPIO_EXTI_IRQHandler(uint16_t GPIO_Pin)
{
 80027a0:	b580      	push	{r7, lr}
 80027a2:	b082      	sub	sp, #8
 80027a4:	af00      	add	r7, sp, #0
 80027a6:	4603      	mov	r3, r0
 80027a8:	80fb      	strh	r3, [r7, #6]
  /* EXTI line interrupt detected */
  if(__HAL_GPIO_EXTI_GET_IT(GPIO_Pin) != RESET)
 80027aa:	4b08      	ldr	r3, [pc, #32]	; (80027cc <HAL_GPIO_EXTI_IRQHandler+0x2c>)
 80027ac:	695a      	ldr	r2, [r3, #20]
 80027ae:	88fb      	ldrh	r3, [r7, #6]
 80027b0:	4013      	ands	r3, r2
 80027b2:	2b00      	cmp	r3, #0
 80027b4:	d006      	beq.n	80027c4 <HAL_GPIO_EXTI_IRQHandler+0x24>
  {
    __HAL_GPIO_EXTI_CLEAR_IT(GPIO_Pin);
 80027b6:	4a05      	ldr	r2, [pc, #20]	; (80027cc <HAL_GPIO_EXTI_IRQHandler+0x2c>)
 80027b8:	88fb      	ldrh	r3, [r7, #6]
 80027ba:	6153      	str	r3, [r2, #20]
    HAL_GPIO_EXTI_Callback(GPIO_Pin);
 80027bc:	88fb      	ldrh	r3, [r7, #6]
 80027be:	4618      	mov	r0, r3
 80027c0:	f7ff f8b6 	bl	8001930 <HAL_GPIO_EXTI_Callback>
  }
}
 80027c4:	bf00      	nop
 80027c6:	3708      	adds	r7, #8
 80027c8:	46bd      	mov	sp, r7
 80027ca:	bd80      	pop	{r7, pc}
 80027cc:	40013c00 	.word	0x40013c00

080027d0 <HAL_I2C_Init>:
  * @param  hi2c Pointer to a I2C_HandleTypeDef structure that contains
  *                the configuration information for the specified I2C.
  * @retval HAL status
  */
HAL_StatusTypeDef HAL_I2C_Init(I2C_HandleTypeDef *hi2c)
{
 80027d0:	b580      	push	{r7, lr}
 80027d2:	b084      	sub	sp, #16
 80027d4:	af00      	add	r7, sp, #0
 80027d6:	6078      	str	r0, [r7, #4]
  uint32_t freqrange;
  uint32_t pclk1;

  /* Check the I2C handle allocation */
  if (hi2c == NULL)
 80027d8:	687b      	ldr	r3, [r7, #4]
 80027da:	2b00      	cmp	r3, #0
 80027dc:	d101      	bne.n	80027e2 <HAL_I2C_Init+0x12>
  {
    return HAL_ERROR;
 80027de:	2301      	movs	r3, #1
 80027e0:	e11f      	b.n	8002a22 <HAL_I2C_Init+0x252>
  assert_param(IS_I2C_DUAL_ADDRESS(hi2c->Init.DualAddressMode));
  assert_param(IS_I2C_OWN_ADDRESS2(hi2c->Init.OwnAddress2));
  assert_param(IS_I2C_GENERAL_CALL(hi2c->Init.GeneralCallMode));
  assert_param(IS_I2C_NO_STRETCH(hi2c->Init.NoStretchMode));

  if (hi2c->State == HAL_I2C_STATE_RESET)
 80027e2:	687b      	ldr	r3, [r7, #4]
 80027e4:	f893 303d 	ldrb.w	r3, [r3, #61]	; 0x3d
 80027e8:	b2db      	uxtb	r3, r3
 80027ea:	2b00      	cmp	r3, #0
 80027ec:	d106      	bne.n	80027fc <HAL_I2C_Init+0x2c>
  {
    /* Allocate lock resource and initialize it */
    hi2c->Lock = HAL_UNLOCKED;
 80027ee:	687b      	ldr	r3, [r7, #4]
 80027f0:	2200      	movs	r2, #0
 80027f2:	f883 203c 	strb.w	r2, [r3, #60]	; 0x3c

    /* Init the low level hardware : GPIO, CLOCK, NVIC */
    hi2c->MspInitCallback(hi2c);
#else
    /* Init the low level hardware : GPIO, CLOCK, NVIC */
    HAL_I2C_MspInit(hi2c);
 80027f6:	6878      	ldr	r0, [r7, #4]
 80027f8:	f7ff f908 	bl	8001a0c <HAL_I2C_MspInit>
#endif /* USE_HAL_I2C_REGISTER_CALLBACKS */
  }

  hi2c->State = HAL_I2C_STATE_BUSY;
 80027fc:	687b      	ldr	r3, [r7, #4]
 80027fe:	2224      	movs	r2, #36	; 0x24
 8002800:	f883 203d 	strb.w	r2, [r3, #61]	; 0x3d

  /* Disable the selected I2C peripheral */
  __HAL_I2C_DISABLE(hi2c);
 8002804:	687b      	ldr	r3, [r7, #4]
 8002806:	681b      	ldr	r3, [r3, #0]
 8002808:	681a      	ldr	r2, [r3, #0]
 800280a:	687b      	ldr	r3, [r7, #4]
 800280c:	681b      	ldr	r3, [r3, #0]
 800280e:	f022 0201 	bic.w	r2, r2, #1
 8002812:	601a      	str	r2, [r3, #0]

  /*Reset I2C*/
  hi2c->Instance->CR1 |= I2C_CR1_SWRST;
 8002814:	687b      	ldr	r3, [r7, #4]
 8002816:	681b      	ldr	r3, [r3, #0]
 8002818:	681a      	ldr	r2, [r3, #0]
 800281a:	687b      	ldr	r3, [r7, #4]
 800281c:	681b      	ldr	r3, [r3, #0]
 800281e:	f442 4200 	orr.w	r2, r2, #32768	; 0x8000
 8002822:	601a      	str	r2, [r3, #0]
  hi2c->Instance->CR1 &= ~I2C_CR1_SWRST;
 8002824:	687b      	ldr	r3, [r7, #4]
 8002826:	681b      	ldr	r3, [r3, #0]
 8002828:	681a      	ldr	r2, [r3, #0]
 800282a:	687b      	ldr	r3, [r7, #4]
 800282c:	681b      	ldr	r3, [r3, #0]
 800282e:	f422 4200 	bic.w	r2, r2, #32768	; 0x8000
 8002832:	601a      	str	r2, [r3, #0]

  /* Get PCLK1 frequency */
  pclk1 = HAL_RCC_GetPCLK1Freq();
 8002834:	f001 f872 	bl	800391c <HAL_RCC_GetPCLK1Freq>
 8002838:	60f8      	str	r0, [r7, #12]

  /* Check the minimum allowed PCLK1 frequency */
  if (I2C_MIN_PCLK_FREQ(pclk1, hi2c->Init.ClockSpeed) == 1U)
 800283a:	687b      	ldr	r3, [r7, #4]
 800283c:	685b      	ldr	r3, [r3, #4]
 800283e:	4a7b      	ldr	r2, [pc, #492]	; (8002a2c <HAL_I2C_Init+0x25c>)
 8002840:	4293      	cmp	r3, r2
 8002842:	d807      	bhi.n	8002854 <HAL_I2C_Init+0x84>
 8002844:	68fb      	ldr	r3, [r7, #12]
 8002846:	4a7a      	ldr	r2, [pc, #488]	; (8002a30 <HAL_I2C_Init+0x260>)
 8002848:	4293      	cmp	r3, r2
 800284a:	bf94      	ite	ls
 800284c:	2301      	movls	r3, #1
 800284e:	2300      	movhi	r3, #0
 8002850:	b2db      	uxtb	r3, r3
 8002852:	e006      	b.n	8002862 <HAL_I2C_Init+0x92>
 8002854:	68fb      	ldr	r3, [r7, #12]
 8002856:	4a77      	ldr	r2, [pc, #476]	; (8002a34 <HAL_I2C_Init+0x264>)
 8002858:	4293      	cmp	r3, r2
 800285a:	bf94      	ite	ls
 800285c:	2301      	movls	r3, #1
 800285e:	2300      	movhi	r3, #0
 8002860:	b2db      	uxtb	r3, r3
 8002862:	2b00      	cmp	r3, #0
 8002864:	d001      	beq.n	800286a <HAL_I2C_Init+0x9a>
  {
    return HAL_ERROR;
 8002866:	2301      	movs	r3, #1
 8002868:	e0db      	b.n	8002a22 <HAL_I2C_Init+0x252>
  }

  /* Calculate frequency range */
  freqrange = I2C_FREQRANGE(pclk1);
 800286a:	68fb      	ldr	r3, [r7, #12]
 800286c:	4a72      	ldr	r2, [pc, #456]	; (8002a38 <HAL_I2C_Init+0x268>)
 800286e:	fba2 2303 	umull	r2, r3, r2, r3
 8002872:	0c9b      	lsrs	r3, r3, #18
 8002874:	60bb      	str	r3, [r7, #8]

  /*---------------------------- I2Cx CR2 Configuration ----------------------*/
  /* Configure I2Cx: Frequency range */
  MODIFY_REG(hi2c->Instance->CR2, I2C_CR2_FREQ, freqrange);
 8002876:	687b      	ldr	r3, [r7, #4]
 8002878:	681b      	ldr	r3, [r3, #0]
 800287a:	685b      	ldr	r3, [r3, #4]
 800287c:	f023 013f 	bic.w	r1, r3, #63	; 0x3f
 8002880:	687b      	ldr	r3, [r7, #4]
 8002882:	681b      	ldr	r3, [r3, #0]
 8002884:	68ba      	ldr	r2, [r7, #8]
 8002886:	430a      	orrs	r2, r1
 8002888:	605a      	str	r2, [r3, #4]

  /*---------------------------- I2Cx TRISE Configuration --------------------*/
  /* Configure I2Cx: Rise Time */
  MODIFY_REG(hi2c->Instance->TRISE, I2C_TRISE_TRISE, I2C_RISE_TIME(freqrange, hi2c->Init.ClockSpeed));
 800288a:	687b      	ldr	r3, [r7, #4]
 800288c:	681b      	ldr	r3, [r3, #0]
 800288e:	6a1b      	ldr	r3, [r3, #32]
 8002890:	f023 013f 	bic.w	r1, r3, #63	; 0x3f
 8002894:	687b      	ldr	r3, [r7, #4]
 8002896:	685b      	ldr	r3, [r3, #4]
 8002898:	4a64      	ldr	r2, [pc, #400]	; (8002a2c <HAL_I2C_Init+0x25c>)
 800289a:	4293      	cmp	r3, r2
 800289c:	d802      	bhi.n	80028a4 <HAL_I2C_Init+0xd4>
 800289e:	68bb      	ldr	r3, [r7, #8]
 80028a0:	3301      	adds	r3, #1
 80028a2:	e009      	b.n	80028b8 <HAL_I2C_Init+0xe8>
 80028a4:	68bb      	ldr	r3, [r7, #8]
 80028a6:	f44f 7296 	mov.w	r2, #300	; 0x12c
 80028aa:	fb02 f303 	mul.w	r3, r2, r3
 80028ae:	4a63      	ldr	r2, [pc, #396]	; (8002a3c <HAL_I2C_Init+0x26c>)
 80028b0:	fba2 2303 	umull	r2, r3, r2, r3
 80028b4:	099b      	lsrs	r3, r3, #6
 80028b6:	3301      	adds	r3, #1
 80028b8:	687a      	ldr	r2, [r7, #4]
 80028ba:	6812      	ldr	r2, [r2, #0]
 80028bc:	430b      	orrs	r3, r1
 80028be:	6213      	str	r3, [r2, #32]

  /*---------------------------- I2Cx CCR Configuration ----------------------*/
  /* Configure I2Cx: Speed */
  MODIFY_REG(hi2c->Instance->CCR, (I2C_CCR_FS | I2C_CCR_DUTY | I2C_CCR_CCR), I2C_SPEED(pclk1, hi2c->Init.ClockSpeed, hi2c->Init.DutyCycle));
 80028c0:	687b      	ldr	r3, [r7, #4]
 80028c2:	681b      	ldr	r3, [r3, #0]
 80028c4:	69db      	ldr	r3, [r3, #28]
 80028c6:	f423 424f 	bic.w	r2, r3, #52992	; 0xcf00
 80028ca:	f022 02ff 	bic.w	r2, r2, #255	; 0xff
 80028ce:	687b      	ldr	r3, [r7, #4]
 80028d0:	685b      	ldr	r3, [r3, #4]
 80028d2:	4956      	ldr	r1, [pc, #344]	; (8002a2c <HAL_I2C_Init+0x25c>)
 80028d4:	428b      	cmp	r3, r1
 80028d6:	d80d      	bhi.n	80028f4 <HAL_I2C_Init+0x124>
 80028d8:	68fb      	ldr	r3, [r7, #12]
 80028da:	1e59      	subs	r1, r3, #1
 80028dc:	687b      	ldr	r3, [r7, #4]
 80028de:	685b      	ldr	r3, [r3, #4]
 80028e0:	005b      	lsls	r3, r3, #1
 80028e2:	fbb1 f3f3 	udiv	r3, r1, r3
 80028e6:	3301      	adds	r3, #1
 80028e8:	f3c3 030b 	ubfx	r3, r3, #0, #12
 80028ec:	2b04      	cmp	r3, #4
 80028ee:	bf38      	it	cc
 80028f0:	2304      	movcc	r3, #4
 80028f2:	e04f      	b.n	8002994 <HAL_I2C_Init+0x1c4>
 80028f4:	687b      	ldr	r3, [r7, #4]
 80028f6:	689b      	ldr	r3, [r3, #8]
 80028f8:	2b00      	cmp	r3, #0
 80028fa:	d111      	bne.n	8002920 <HAL_I2C_Init+0x150>
 80028fc:	68fb      	ldr	r3, [r7, #12]
 80028fe:	1e58      	subs	r0, r3, #1
 8002900:	687b      	ldr	r3, [r7, #4]
 8002902:	6859      	ldr	r1, [r3, #4]
 8002904:	460b      	mov	r3, r1
 8002906:	005b      	lsls	r3, r3, #1
 8002908:	440b      	add	r3, r1
 800290a:	fbb0 f3f3 	udiv	r3, r0, r3
 800290e:	3301      	adds	r3, #1
 8002910:	f3c3 030b 	ubfx	r3, r3, #0, #12
 8002914:	2b00      	cmp	r3, #0
 8002916:	bf0c      	ite	eq
 8002918:	2301      	moveq	r3, #1
 800291a:	2300      	movne	r3, #0
 800291c:	b2db      	uxtb	r3, r3
 800291e:	e012      	b.n	8002946 <HAL_I2C_Init+0x176>
 8002920:	68fb      	ldr	r3, [r7, #12]
 8002922:	1e58      	subs	r0, r3, #1
 8002924:	687b      	ldr	r3, [r7, #4]
 8002926:	6859      	ldr	r1, [r3, #4]
 8002928:	460b      	mov	r3, r1
 800292a:	009b      	lsls	r3, r3, #2
 800292c:	440b      	add	r3, r1
 800292e:	0099      	lsls	r1, r3, #2
 8002930:	440b      	add	r3, r1
 8002932:	fbb0 f3f3 	udiv	r3, r0, r3
 8002936:	3301      	adds	r3, #1
 8002938:	f3c3 030b 	ubfx	r3, r3, #0, #12
 800293c:	2b00      	cmp	r3, #0
 800293e:	bf0c      	ite	eq
 8002940:	2301      	moveq	r3, #1
 8002942:	2300      	movne	r3, #0
 8002944:	b2db      	uxtb	r3, r3
 8002946:	2b00      	cmp	r3, #0
 8002948:	d001      	beq.n	800294e <HAL_I2C_Init+0x17e>
 800294a:	2301      	movs	r3, #1
 800294c:	e022      	b.n	8002994 <HAL_I2C_Init+0x1c4>
 800294e:	687b      	ldr	r3, [r7, #4]
 8002950:	689b      	ldr	r3, [r3, #8]
 8002952:	2b00      	cmp	r3, #0
 8002954:	d10e      	bne.n	8002974 <HAL_I2C_Init+0x1a4>
 8002956:	68fb      	ldr	r3, [r7, #12]
 8002958:	1e58      	subs	r0, r3, #1
 800295a:	687b      	ldr	r3, [r7, #4]
 800295c:	6859      	ldr	r1, [r3, #4]
 800295e:	460b      	mov	r3, r1
 8002960:	005b      	lsls	r3, r3, #1
 8002962:	440b      	add	r3, r1
 8002964:	fbb0 f3f3 	udiv	r3, r0, r3
 8002968:	3301      	adds	r3, #1
 800296a:	f3c3 030b 	ubfx	r3, r3, #0, #12
 800296e:	f443 4300 	orr.w	r3, r3, #32768	; 0x8000
 8002972:	e00f      	b.n	8002994 <HAL_I2C_Init+0x1c4>
 8002974:	68fb      	ldr	r3, [r7, #12]
 8002976:	1e58      	subs	r0, r3, #1
 8002978:	687b      	ldr	r3, [r7, #4]
 800297a:	6859      	ldr	r1, [r3, #4]
 800297c:	460b      	mov	r3, r1
 800297e:	009b      	lsls	r3, r3, #2
 8002980:	440b      	add	r3, r1
 8002982:	0099      	lsls	r1, r3, #2
 8002984:	440b      	add	r3, r1
 8002986:	fbb0 f3f3 	udiv	r3, r0, r3
 800298a:	3301      	adds	r3, #1
 800298c:	f3c3 030b 	ubfx	r3, r3, #0, #12
 8002990:	f443 4340 	orr.w	r3, r3, #49152	; 0xc000
 8002994:	6879      	ldr	r1, [r7, #4]
 8002996:	6809      	ldr	r1, [r1, #0]
 8002998:	4313      	orrs	r3, r2
 800299a:	61cb      	str	r3, [r1, #28]

  /*---------------------------- I2Cx CR1 Configuration ----------------------*/
  /* Configure I2Cx: Generalcall and NoStretch mode */
  MODIFY_REG(hi2c->Instance->CR1, (I2C_CR1_ENGC | I2C_CR1_NOSTRETCH), (hi2c->Init.GeneralCallMode | hi2c->Init.NoStretchMode));
 800299c:	687b      	ldr	r3, [r7, #4]
 800299e:	681b      	ldr	r3, [r3, #0]
 80029a0:	681b      	ldr	r3, [r3, #0]
 80029a2:	f023 01c0 	bic.w	r1, r3, #192	; 0xc0
 80029a6:	687b      	ldr	r3, [r7, #4]
 80029a8:	69da      	ldr	r2, [r3, #28]
 80029aa:	687b      	ldr	r3, [r7, #4]
 80029ac:	6a1b      	ldr	r3, [r3, #32]
 80029ae:	431a      	orrs	r2, r3
 80029b0:	687b      	ldr	r3, [r7, #4]
 80029b2:	681b      	ldr	r3, [r3, #0]
 80029b4:	430a      	orrs	r2, r1
 80029b6:	601a      	str	r2, [r3, #0]

  /*---------------------------- I2Cx OAR1 Configuration ---------------------*/
  /* Configure I2Cx: Own Address1 and addressing mode */
  MODIFY_REG(hi2c->Instance->OAR1, (I2C_OAR1_ADDMODE | I2C_OAR1_ADD8_9 | I2C_OAR1_ADD1_7 | I2C_OAR1_ADD0), (hi2c->Init.AddressingMode | hi2c->Init.OwnAddress1));
 80029b8:	687b      	ldr	r3, [r7, #4]
 80029ba:	681b      	ldr	r3, [r3, #0]
 80029bc:	689b      	ldr	r3, [r3, #8]
 80029be:	f423 4303 	bic.w	r3, r3, #33536	; 0x8300
 80029c2:	f023 03ff 	bic.w	r3, r3, #255	; 0xff
 80029c6:	687a      	ldr	r2, [r7, #4]
 80029c8:	6911      	ldr	r1, [r2, #16]
 80029ca:	687a      	ldr	r2, [r7, #4]
 80029cc:	68d2      	ldr	r2, [r2, #12]
 80029ce:	4311      	orrs	r1, r2
 80029d0:	687a      	ldr	r2, [r7, #4]
 80029d2:	6812      	ldr	r2, [r2, #0]
 80029d4:	430b      	orrs	r3, r1
 80029d6:	6093      	str	r3, [r2, #8]

  /*---------------------------- I2Cx OAR2 Configuration ---------------------*/
  /* Configure I2Cx: Dual mode and Own Address2 */
  MODIFY_REG(hi2c->Instance->OAR2, (I2C_OAR2_ENDUAL | I2C_OAR2_ADD2), (hi2c->Init.DualAddressMode | hi2c->Init.OwnAddress2));
 80029d8:	687b      	ldr	r3, [r7, #4]
 80029da:	681b      	ldr	r3, [r3, #0]
 80029dc:	68db      	ldr	r3, [r3, #12]
 80029de:	f023 01ff 	bic.w	r1, r3, #255	; 0xff
 80029e2:	687b      	ldr	r3, [r7, #4]
 80029e4:	695a      	ldr	r2, [r3, #20]
 80029e6:	687b      	ldr	r3, [r7, #4]
 80029e8:	699b      	ldr	r3, [r3, #24]
 80029ea:	431a      	orrs	r2, r3
 80029ec:	687b      	ldr	r3, [r7, #4]
 80029ee:	681b      	ldr	r3, [r3, #0]
 80029f0:	430a      	orrs	r2, r1
 80029f2:	60da      	str	r2, [r3, #12]

  /* Enable the selected I2C peripheral */
  __HAL_I2C_ENABLE(hi2c);
 80029f4:	687b      	ldr	r3, [r7, #4]
 80029f6:	681b      	ldr	r3, [r3, #0]
 80029f8:	681a      	ldr	r2, [r3, #0]
 80029fa:	687b      	ldr	r3, [r7, #4]
 80029fc:	681b      	ldr	r3, [r3, #0]
 80029fe:	f042 0201 	orr.w	r2, r2, #1
 8002a02:	601a      	str	r2, [r3, #0]

  hi2c->ErrorCode = HAL_I2C_ERROR_NONE;
 8002a04:	687b      	ldr	r3, [r7, #4]
 8002a06:	2200      	movs	r2, #0
 8002a08:	641a      	str	r2, [r3, #64]	; 0x40
  hi2c->State = HAL_I2C_STATE_READY;
 8002a0a:	687b      	ldr	r3, [r7, #4]
 8002a0c:	2220      	movs	r2, #32
 8002a0e:	f883 203d 	strb.w	r2, [r3, #61]	; 0x3d
  hi2c->PreviousState = I2C_STATE_NONE;
 8002a12:	687b      	ldr	r3, [r7, #4]
 8002a14:	2200      	movs	r2, #0
 8002a16:	631a      	str	r2, [r3, #48]	; 0x30
  hi2c->Mode = HAL_I2C_MODE_NONE;
 8002a18:	687b      	ldr	r3, [r7, #4]
 8002a1a:	2200      	movs	r2, #0
 8002a1c:	f883 203e 	strb.w	r2, [r3, #62]	; 0x3e

  return HAL_OK;
 8002a20:	2300      	movs	r3, #0
}
 8002a22:	4618      	mov	r0, r3
 8002a24:	3710      	adds	r7, #16
 8002a26:	46bd      	mov	sp, r7
 8002a28:	bd80      	pop	{r7, pc}
 8002a2a:	bf00      	nop
 8002a2c:	000186a0 	.word	0x000186a0
 8002a30:	001e847f 	.word	0x001e847f
 8002a34:	003d08ff 	.word	0x003d08ff
 8002a38:	431bde83 	.word	0x431bde83
 8002a3c:	10624dd3 	.word	0x10624dd3

08002a40 <HAL_I2C_Mem_Write>:
  * @param  Size Amount of data to be sent
  * @param  Timeout Timeout duration
  * @retval HAL status
  */
HAL_StatusTypeDef HAL_I2C_Mem_Write(I2C_HandleTypeDef *hi2c, uint16_t DevAddress, uint16_t MemAddress, uint16_t MemAddSize, uint8_t *pData, uint16_t Size, uint32_t Timeout)
{
 8002a40:	b580      	push	{r7, lr}
 8002a42:	b088      	sub	sp, #32
 8002a44:	af02      	add	r7, sp, #8
 8002a46:	60f8      	str	r0, [r7, #12]
 8002a48:	4608      	mov	r0, r1
 8002a4a:	4611      	mov	r1, r2
 8002a4c:	461a      	mov	r2, r3
 8002a4e:	4603      	mov	r3, r0
 8002a50:	817b      	strh	r3, [r7, #10]
 8002a52:	460b      	mov	r3, r1
 8002a54:	813b      	strh	r3, [r7, #8]
 8002a56:	4613      	mov	r3, r2
 8002a58:	80fb      	strh	r3, [r7, #6]
  /* Init tickstart for timeout management*/
  uint32_t tickstart = HAL_GetTick();
 8002a5a:	f7ff f9f3 	bl	8001e44 <HAL_GetTick>
 8002a5e:	6178      	str	r0, [r7, #20]

  /* Check the parameters */
  assert_param(IS_I2C_MEMADD_SIZE(MemAddSize));

  if (hi2c->State == HAL_I2C_STATE_READY)
 8002a60:	68fb      	ldr	r3, [r7, #12]
 8002a62:	f893 303d 	ldrb.w	r3, [r3, #61]	; 0x3d
 8002a66:	b2db      	uxtb	r3, r3
 8002a68:	2b20      	cmp	r3, #32
 8002a6a:	f040 80d9 	bne.w	8002c20 <HAL_I2C_Mem_Write+0x1e0>
  {
    /* Wait until BUSY flag is reset */
    if (I2C_WaitOnFlagUntilTimeout(hi2c, I2C_FLAG_BUSY, SET, I2C_TIMEOUT_BUSY_FLAG, tickstart) != HAL_OK)
 8002a6e:	697b      	ldr	r3, [r7, #20]
 8002a70:	9300      	str	r3, [sp, #0]
 8002a72:	2319      	movs	r3, #25
 8002a74:	2201      	movs	r2, #1
 8002a76:	496d      	ldr	r1, [pc, #436]	; (8002c2c <HAL_I2C_Mem_Write+0x1ec>)
 8002a78:	68f8      	ldr	r0, [r7, #12]
 8002a7a:	f000 fc7f 	bl	800337c <I2C_WaitOnFlagUntilTimeout>
 8002a7e:	4603      	mov	r3, r0
 8002a80:	2b00      	cmp	r3, #0
 8002a82:	d001      	beq.n	8002a88 <HAL_I2C_Mem_Write+0x48>
    {
      return HAL_BUSY;
 8002a84:	2302      	movs	r3, #2
 8002a86:	e0cc      	b.n	8002c22 <HAL_I2C_Mem_Write+0x1e2>
    }

    /* Process Locked */
    __HAL_LOCK(hi2c);
 8002a88:	68fb      	ldr	r3, [r7, #12]
 8002a8a:	f893 303c 	ldrb.w	r3, [r3, #60]	; 0x3c
 8002a8e:	2b01      	cmp	r3, #1
 8002a90:	d101      	bne.n	8002a96 <HAL_I2C_Mem_Write+0x56>
 8002a92:	2302      	movs	r3, #2
 8002a94:	e0c5      	b.n	8002c22 <HAL_I2C_Mem_Write+0x1e2>
 8002a96:	68fb      	ldr	r3, [r7, #12]
 8002a98:	2201      	movs	r2, #1
 8002a9a:	f883 203c 	strb.w	r2, [r3, #60]	; 0x3c

    /* Check if the I2C is already enabled */
    if ((hi2c->Instance->CR1 & I2C_CR1_PE) != I2C_CR1_PE)
 8002a9e:	68fb      	ldr	r3, [r7, #12]
 8002aa0:	681b      	ldr	r3, [r3, #0]
 8002aa2:	681b      	ldr	r3, [r3, #0]
 8002aa4:	f003 0301 	and.w	r3, r3, #1
 8002aa8:	2b01      	cmp	r3, #1
 8002aaa:	d007      	beq.n	8002abc <HAL_I2C_Mem_Write+0x7c>
    {
      /* Enable I2C peripheral */
      __HAL_I2C_ENABLE(hi2c);
 8002aac:	68fb      	ldr	r3, [r7, #12]
 8002aae:	681b      	ldr	r3, [r3, #0]
 8002ab0:	681a      	ldr	r2, [r3, #0]
 8002ab2:	68fb      	ldr	r3, [r7, #12]
 8002ab4:	681b      	ldr	r3, [r3, #0]
 8002ab6:	f042 0201 	orr.w	r2, r2, #1
 8002aba:	601a      	str	r2, [r3, #0]
    }

    /* Disable Pos */
    CLEAR_BIT(hi2c->Instance->CR1, I2C_CR1_POS);
 8002abc:	68fb      	ldr	r3, [r7, #12]
 8002abe:	681b      	ldr	r3, [r3, #0]
 8002ac0:	681a      	ldr	r2, [r3, #0]
 8002ac2:	68fb      	ldr	r3, [r7, #12]
 8002ac4:	681b      	ldr	r3, [r3, #0]
 8002ac6:	f422 6200 	bic.w	r2, r2, #2048	; 0x800
 8002aca:	601a      	str	r2, [r3, #0]

    hi2c->State     = HAL_I2C_STATE_BUSY_TX;
 8002acc:	68fb      	ldr	r3, [r7, #12]
 8002ace:	2221      	movs	r2, #33	; 0x21
 8002ad0:	f883 203d 	strb.w	r2, [r3, #61]	; 0x3d
    hi2c->Mode      = HAL_I2C_MODE_MEM;
 8002ad4:	68fb      	ldr	r3, [r7, #12]
 8002ad6:	2240      	movs	r2, #64	; 0x40
 8002ad8:	f883 203e 	strb.w	r2, [r3, #62]	; 0x3e
    hi2c->ErrorCode = HAL_I2C_ERROR_NONE;
 8002adc:	68fb      	ldr	r3, [r7, #12]
 8002ade:	2200      	movs	r2, #0
 8002ae0:	641a      	str	r2, [r3, #64]	; 0x40

    /* Prepare transfer parameters */
    hi2c->pBuffPtr    = pData;
 8002ae2:	68fb      	ldr	r3, [r7, #12]
 8002ae4:	6a3a      	ldr	r2, [r7, #32]
 8002ae6:	625a      	str	r2, [r3, #36]	; 0x24
    hi2c->XferCount   = Size;
 8002ae8:	68fb      	ldr	r3, [r7, #12]
 8002aea:	8cba      	ldrh	r2, [r7, #36]	; 0x24
 8002aec:	855a      	strh	r2, [r3, #42]	; 0x2a
    hi2c->XferSize    = hi2c->XferCount;
 8002aee:	68fb      	ldr	r3, [r7, #12]
 8002af0:	8d5b      	ldrh	r3, [r3, #42]	; 0x2a
 8002af2:	b29a      	uxth	r2, r3
 8002af4:	68fb      	ldr	r3, [r7, #12]
 8002af6:	851a      	strh	r2, [r3, #40]	; 0x28
    hi2c->XferOptions = I2C_NO_OPTION_FRAME;
 8002af8:	68fb      	ldr	r3, [r7, #12]
 8002afa:	4a4d      	ldr	r2, [pc, #308]	; (8002c30 <HAL_I2C_Mem_Write+0x1f0>)
 8002afc:	62da      	str	r2, [r3, #44]	; 0x2c

    /* Send Slave Address and Memory Address */
    if (I2C_RequestMemoryWrite(hi2c, DevAddress, MemAddress, MemAddSize, Timeout, tickstart) != HAL_OK)
 8002afe:	88f8      	ldrh	r0, [r7, #6]
 8002b00:	893a      	ldrh	r2, [r7, #8]
 8002b02:	8979      	ldrh	r1, [r7, #10]
 8002b04:	697b      	ldr	r3, [r7, #20]
 8002b06:	9301      	str	r3, [sp, #4]
 8002b08:	6abb      	ldr	r3, [r7, #40]	; 0x28
 8002b0a:	9300      	str	r3, [sp, #0]
 8002b0c:	4603      	mov	r3, r0
 8002b0e:	68f8      	ldr	r0, [r7, #12]
 8002b10:	f000 fab6 	bl	8003080 <I2C_RequestMemoryWrite>
 8002b14:	4603      	mov	r3, r0
 8002b16:	2b00      	cmp	r3, #0
 8002b18:	d052      	beq.n	8002bc0 <HAL_I2C_Mem_Write+0x180>
    {
      return HAL_ERROR;
 8002b1a:	2301      	movs	r3, #1
 8002b1c:	e081      	b.n	8002c22 <HAL_I2C_Mem_Write+0x1e2>
    }

    while (hi2c->XferSize > 0U)
    {
      /* Wait until TXE flag is set */
      if (I2C_WaitOnTXEFlagUntilTimeout(hi2c, Timeout, tickstart) != HAL_OK)
 8002b1e:	697a      	ldr	r2, [r7, #20]
 8002b20:	6ab9      	ldr	r1, [r7, #40]	; 0x28
 8002b22:	68f8      	ldr	r0, [r7, #12]
 8002b24:	f000 fd00 	bl	8003528 <I2C_WaitOnTXEFlagUntilTimeout>
 8002b28:	4603      	mov	r3, r0
 8002b2a:	2b00      	cmp	r3, #0
 8002b2c:	d00d      	beq.n	8002b4a <HAL_I2C_Mem_Write+0x10a>
      {
        if (hi2c->ErrorCode == HAL_I2C_ERROR_AF)
 8002b2e:	68fb      	ldr	r3, [r7, #12]
 8002b30:	6c1b      	ldr	r3, [r3, #64]	; 0x40
 8002b32:	2b04      	cmp	r3, #4
 8002b34:	d107      	bne.n	8002b46 <HAL_I2C_Mem_Write+0x106>
        {
          /* Generate Stop */
          SET_BIT(hi2c->Instance->CR1, I2C_CR1_STOP);
 8002b36:	68fb      	ldr	r3, [r7, #12]
 8002b38:	681b      	ldr	r3, [r3, #0]
 8002b3a:	681a      	ldr	r2, [r3, #0]
 8002b3c:	68fb      	ldr	r3, [r7, #12]
 8002b3e:	681b      	ldr	r3, [r3, #0]
 8002b40:	f442 7200 	orr.w	r2, r2, #512	; 0x200
 8002b44:	601a      	str	r2, [r3, #0]
        }
        return HAL_ERROR;
 8002b46:	2301      	movs	r3, #1
 8002b48:	e06b      	b.n	8002c22 <HAL_I2C_Mem_Write+0x1e2>
      }

      /* Write data to DR */
      hi2c->Instance->DR = *hi2c->pBuffPtr;
 8002b4a:	68fb      	ldr	r3, [r7, #12]
 8002b4c:	6a5b      	ldr	r3, [r3, #36]	; 0x24
 8002b4e:	781a      	ldrb	r2, [r3, #0]
 8002b50:	68fb      	ldr	r3, [r7, #12]
 8002b52:	681b      	ldr	r3, [r3, #0]
 8002b54:	611a      	str	r2, [r3, #16]

      /* Increment Buffer pointer */
      hi2c->pBuffPtr++;
 8002b56:	68fb      	ldr	r3, [r7, #12]
 8002b58:	6a5b      	ldr	r3, [r3, #36]	; 0x24
 8002b5a:	1c5a      	adds	r2, r3, #1
 8002b5c:	68fb      	ldr	r3, [r7, #12]
 8002b5e:	625a      	str	r2, [r3, #36]	; 0x24

      /* Update counter */
      hi2c->XferSize--;
 8002b60:	68fb      	ldr	r3, [r7, #12]
 8002b62:	8d1b      	ldrh	r3, [r3, #40]	; 0x28
 8002b64:	3b01      	subs	r3, #1
 8002b66:	b29a      	uxth	r2, r3
 8002b68:	68fb      	ldr	r3, [r7, #12]
 8002b6a:	851a      	strh	r2, [r3, #40]	; 0x28
      hi2c->XferCount--;
 8002b6c:	68fb      	ldr	r3, [r7, #12]
 8002b6e:	8d5b      	ldrh	r3, [r3, #42]	; 0x2a
 8002b70:	b29b      	uxth	r3, r3
 8002b72:	3b01      	subs	r3, #1
 8002b74:	b29a      	uxth	r2, r3
 8002b76:	68fb      	ldr	r3, [r7, #12]
 8002b78:	855a      	strh	r2, [r3, #42]	; 0x2a

      if ((__HAL_I2C_GET_FLAG(hi2c, I2C_FLAG_BTF) == SET) && (hi2c->XferSize != 0U))
 8002b7a:	68fb      	ldr	r3, [r7, #12]
 8002b7c:	681b      	ldr	r3, [r3, #0]
 8002b7e:	695b      	ldr	r3, [r3, #20]
 8002b80:	f003 0304 	and.w	r3, r3, #4
 8002b84:	2b04      	cmp	r3, #4
 8002b86:	d11b      	bne.n	8002bc0 <HAL_I2C_Mem_Write+0x180>
 8002b88:	68fb      	ldr	r3, [r7, #12]
 8002b8a:	8d1b      	ldrh	r3, [r3, #40]	; 0x28
 8002b8c:	2b00      	cmp	r3, #0
 8002b8e:	d017      	beq.n	8002bc0 <HAL_I2C_Mem_Write+0x180>
      {
        /* Write data to DR */
        hi2c->Instance->DR = *hi2c->pBuffPtr;
 8002b90:	68fb      	ldr	r3, [r7, #12]
 8002b92:	6a5b      	ldr	r3, [r3, #36]	; 0x24
 8002b94:	781a      	ldrb	r2, [r3, #0]
 8002b96:	68fb      	ldr	r3, [r7, #12]
 8002b98:	681b      	ldr	r3, [r3, #0]
 8002b9a:	611a      	str	r2, [r3, #16]

        /* Increment Buffer pointer */
        hi2c->pBuffPtr++;
 8002b9c:	68fb      	ldr	r3, [r7, #12]
 8002b9e:	6a5b      	ldr	r3, [r3, #36]	; 0x24
 8002ba0:	1c5a      	adds	r2, r3, #1
 8002ba2:	68fb      	ldr	r3, [r7, #12]
 8002ba4:	625a      	str	r2, [r3, #36]	; 0x24

        /* Update counter */
        hi2c->XferSize--;
 8002ba6:	68fb      	ldr	r3, [r7, #12]
 8002ba8:	8d1b      	ldrh	r3, [r3, #40]	; 0x28
 8002baa:	3b01      	subs	r3, #1
 8002bac:	b29a      	uxth	r2, r3
 8002bae:	68fb      	ldr	r3, [r7, #12]
 8002bb0:	851a      	strh	r2, [r3, #40]	; 0x28
        hi2c->XferCount--;
 8002bb2:	68fb      	ldr	r3, [r7, #12]
 8002bb4:	8d5b      	ldrh	r3, [r3, #42]	; 0x2a
 8002bb6:	b29b      	uxth	r3, r3
 8002bb8:	3b01      	subs	r3, #1
 8002bba:	b29a      	uxth	r2, r3
 8002bbc:	68fb      	ldr	r3, [r7, #12]
 8002bbe:	855a      	strh	r2, [r3, #42]	; 0x2a
    while (hi2c->XferSize > 0U)
 8002bc0:	68fb      	ldr	r3, [r7, #12]
 8002bc2:	8d1b      	ldrh	r3, [r3, #40]	; 0x28
 8002bc4:	2b00      	cmp	r3, #0
 8002bc6:	d1aa      	bne.n	8002b1e <HAL_I2C_Mem_Write+0xde>
      }
    }

    /* Wait until BTF flag is set */
    if (I2C_WaitOnBTFFlagUntilTimeout(hi2c, Timeout, tickstart) != HAL_OK)
 8002bc8:	697a      	ldr	r2, [r7, #20]
 8002bca:	6ab9      	ldr	r1, [r7, #40]	; 0x28
 8002bcc:	68f8      	ldr	r0, [r7, #12]
 8002bce:	f000 fcec 	bl	80035aa <I2C_WaitOnBTFFlagUntilTimeout>
 8002bd2:	4603      	mov	r3, r0
 8002bd4:	2b00      	cmp	r3, #0
 8002bd6:	d00d      	beq.n	8002bf4 <HAL_I2C_Mem_Write+0x1b4>
    {
      if (hi2c->ErrorCode == HAL_I2C_ERROR_AF)
 8002bd8:	68fb      	ldr	r3, [r7, #12]
 8002bda:	6c1b      	ldr	r3, [r3, #64]	; 0x40
 8002bdc:	2b04      	cmp	r3, #4
 8002bde:	d107      	bne.n	8002bf0 <HAL_I2C_Mem_Write+0x1b0>
      {
        /* Generate Stop */
        SET_BIT(hi2c->Instance->CR1, I2C_CR1_STOP);
 8002be0:	68fb      	ldr	r3, [r7, #12]
 8002be2:	681b      	ldr	r3, [r3, #0]
 8002be4:	681a      	ldr	r2, [r3, #0]
 8002be6:	68fb      	ldr	r3, [r7, #12]
 8002be8:	681b      	ldr	r3, [r3, #0]
 8002bea:	f442 7200 	orr.w	r2, r2, #512	; 0x200
 8002bee:	601a      	str	r2, [r3, #0]
      }
      return HAL_ERROR;
 8002bf0:	2301      	movs	r3, #1
 8002bf2:	e016      	b.n	8002c22 <HAL_I2C_Mem_Write+0x1e2>
    }

    /* Generate Stop */
    SET_BIT(hi2c->Instance->CR1, I2C_CR1_STOP);
 8002bf4:	68fb      	ldr	r3, [r7, #12]
 8002bf6:	681b      	ldr	r3, [r3, #0]
 8002bf8:	681a      	ldr	r2, [r3, #0]
 8002bfa:	68fb      	ldr	r3, [r7, #12]
 8002bfc:	681b      	ldr	r3, [r3, #0]
 8002bfe:	f442 7200 	orr.w	r2, r2, #512	; 0x200
 8002c02:	601a      	str	r2, [r3, #0]

    hi2c->State = HAL_I2C_STATE_READY;
 8002c04:	68fb      	ldr	r3, [r7, #12]
 8002c06:	2220      	movs	r2, #32
 8002c08:	f883 203d 	strb.w	r2, [r3, #61]	; 0x3d
    hi2c->Mode = HAL_I2C_MODE_NONE;
 8002c0c:	68fb      	ldr	r3, [r7, #12]
 8002c0e:	2200      	movs	r2, #0
 8002c10:	f883 203e 	strb.w	r2, [r3, #62]	; 0x3e

    /* Process Unlocked */
    __HAL_UNLOCK(hi2c);
 8002c14:	68fb      	ldr	r3, [r7, #12]
 8002c16:	2200      	movs	r2, #0
 8002c18:	f883 203c 	strb.w	r2, [r3, #60]	; 0x3c

    return HAL_OK;
 8002c1c:	2300      	movs	r3, #0
 8002c1e:	e000      	b.n	8002c22 <HAL_I2C_Mem_Write+0x1e2>
  }
  else
  {
    return HAL_BUSY;
 8002c20:	2302      	movs	r3, #2
  }
}
 8002c22:	4618      	mov	r0, r3
 8002c24:	3718      	adds	r7, #24
 8002c26:	46bd      	mov	sp, r7
 8002c28:	bd80      	pop	{r7, pc}
 8002c2a:	bf00      	nop
 8002c2c:	00100002 	.word	0x00100002
 8002c30:	ffff0000 	.word	0xffff0000

08002c34 <HAL_I2C_Mem_Read>:
  * @param  Size Amount of data to be sent
  * @param  Timeout Timeout duration
  * @retval HAL status
  */
HAL_StatusTypeDef HAL_I2C_Mem_Read(I2C_HandleTypeDef *hi2c, uint16_t DevAddress, uint16_t MemAddress, uint16_t MemAddSize, uint8_t *pData, uint16_t Size, uint32_t Timeout)
{
 8002c34:	b580      	push	{r7, lr}
 8002c36:	b08c      	sub	sp, #48	; 0x30
 8002c38:	af02      	add	r7, sp, #8
 8002c3a:	60f8      	str	r0, [r7, #12]
 8002c3c:	4608      	mov	r0, r1
 8002c3e:	4611      	mov	r1, r2
 8002c40:	461a      	mov	r2, r3
 8002c42:	4603      	mov	r3, r0
 8002c44:	817b      	strh	r3, [r7, #10]
 8002c46:	460b      	mov	r3, r1
 8002c48:	813b      	strh	r3, [r7, #8]
 8002c4a:	4613      	mov	r3, r2
 8002c4c:	80fb      	strh	r3, [r7, #6]
  /* Init tickstart for timeout management*/
  uint32_t tickstart = HAL_GetTick();
 8002c4e:	f7ff f8f9 	bl	8001e44 <HAL_GetTick>
 8002c52:	6278      	str	r0, [r7, #36]	; 0x24

  /* Check the parameters */
  assert_param(IS_I2C_MEMADD_SIZE(MemAddSize));

  if (hi2c->State == HAL_I2C_STATE_READY)
 8002c54:	68fb      	ldr	r3, [r7, #12]
 8002c56:	f893 303d 	ldrb.w	r3, [r3, #61]	; 0x3d
 8002c5a:	b2db      	uxtb	r3, r3
 8002c5c:	2b20      	cmp	r3, #32
 8002c5e:	f040 8208 	bne.w	8003072 <HAL_I2C_Mem_Read+0x43e>
  {
    /* Wait until BUSY flag is reset */
    if (I2C_WaitOnFlagUntilTimeout(hi2c, I2C_FLAG_BUSY, SET, I2C_TIMEOUT_BUSY_FLAG, tickstart) != HAL_OK)
 8002c62:	6a7b      	ldr	r3, [r7, #36]	; 0x24
 8002c64:	9300      	str	r3, [sp, #0]
 8002c66:	2319      	movs	r3, #25
 8002c68:	2201      	movs	r2, #1
 8002c6a:	497b      	ldr	r1, [pc, #492]	; (8002e58 <HAL_I2C_Mem_Read+0x224>)
 8002c6c:	68f8      	ldr	r0, [r7, #12]
 8002c6e:	f000 fb85 	bl	800337c <I2C_WaitOnFlagUntilTimeout>
 8002c72:	4603      	mov	r3, r0
 8002c74:	2b00      	cmp	r3, #0
 8002c76:	d001      	beq.n	8002c7c <HAL_I2C_Mem_Read+0x48>
    {
      return HAL_BUSY;
 8002c78:	2302      	movs	r3, #2
 8002c7a:	e1fb      	b.n	8003074 <HAL_I2C_Mem_Read+0x440>
    }

    /* Process Locked */
    __HAL_LOCK(hi2c);
 8002c7c:	68fb      	ldr	r3, [r7, #12]
 8002c7e:	f893 303c 	ldrb.w	r3, [r3, #60]	; 0x3c
 8002c82:	2b01      	cmp	r3, #1
 8002c84:	d101      	bne.n	8002c8a <HAL_I2C_Mem_Read+0x56>
 8002c86:	2302      	movs	r3, #2
 8002c88:	e1f4      	b.n	8003074 <HAL_I2C_Mem_Read+0x440>
 8002c8a:	68fb      	ldr	r3, [r7, #12]
 8002c8c:	2201      	movs	r2, #1
 8002c8e:	f883 203c 	strb.w	r2, [r3, #60]	; 0x3c

    /* Check if the I2C is already enabled */
    if ((hi2c->Instance->CR1 & I2C_CR1_PE) != I2C_CR1_PE)
 8002c92:	68fb      	ldr	r3, [r7, #12]
 8002c94:	681b      	ldr	r3, [r3, #0]
 8002c96:	681b      	ldr	r3, [r3, #0]
 8002c98:	f003 0301 	and.w	r3, r3, #1
 8002c9c:	2b01      	cmp	r3, #1
 8002c9e:	d007      	beq.n	8002cb0 <HAL_I2C_Mem_Read+0x7c>
    {
      /* Enable I2C peripheral */
      __HAL_I2C_ENABLE(hi2c);
 8002ca0:	68fb      	ldr	r3, [r7, #12]
 8002ca2:	681b      	ldr	r3, [r3, #0]
 8002ca4:	681a      	ldr	r2, [r3, #0]
 8002ca6:	68fb      	ldr	r3, [r7, #12]
 8002ca8:	681b      	ldr	r3, [r3, #0]
 8002caa:	f042 0201 	orr.w	r2, r2, #1
 8002cae:	601a      	str	r2, [r3, #0]
    }

    /* Disable Pos */
    CLEAR_BIT(hi2c->Instance->CR1, I2C_CR1_POS);
 8002cb0:	68fb      	ldr	r3, [r7, #12]
 8002cb2:	681b      	ldr	r3, [r3, #0]
 8002cb4:	681a      	ldr	r2, [r3, #0]
 8002cb6:	68fb      	ldr	r3, [r7, #12]
 8002cb8:	681b      	ldr	r3, [r3, #0]
 8002cba:	f422 6200 	bic.w	r2, r2, #2048	; 0x800
 8002cbe:	601a      	str	r2, [r3, #0]

    hi2c->State     = HAL_I2C_STATE_BUSY_RX;
 8002cc0:	68fb      	ldr	r3, [r7, #12]
 8002cc2:	2222      	movs	r2, #34	; 0x22
 8002cc4:	f883 203d 	strb.w	r2, [r3, #61]	; 0x3d
    hi2c->Mode      = HAL_I2C_MODE_MEM;
 8002cc8:	68fb      	ldr	r3, [r7, #12]
 8002cca:	2240      	movs	r2, #64	; 0x40
 8002ccc:	f883 203e 	strb.w	r2, [r3, #62]	; 0x3e
    hi2c->ErrorCode = HAL_I2C_ERROR_NONE;
 8002cd0:	68fb      	ldr	r3, [r7, #12]
 8002cd2:	2200      	movs	r2, #0
 8002cd4:	641a      	str	r2, [r3, #64]	; 0x40

    /* Prepare transfer parameters */
    hi2c->pBuffPtr    = pData;
 8002cd6:	68fb      	ldr	r3, [r7, #12]
 8002cd8:	6b3a      	ldr	r2, [r7, #48]	; 0x30
 8002cda:	625a      	str	r2, [r3, #36]	; 0x24
    hi2c->XferCount   = Size;
 8002cdc:	68fb      	ldr	r3, [r7, #12]
 8002cde:	8eba      	ldrh	r2, [r7, #52]	; 0x34
 8002ce0:	855a      	strh	r2, [r3, #42]	; 0x2a
    hi2c->XferSize    = hi2c->XferCount;
 8002ce2:	68fb      	ldr	r3, [r7, #12]
 8002ce4:	8d5b      	ldrh	r3, [r3, #42]	; 0x2a
 8002ce6:	b29a      	uxth	r2, r3
 8002ce8:	68fb      	ldr	r3, [r7, #12]
 8002cea:	851a      	strh	r2, [r3, #40]	; 0x28
    hi2c->XferOptions = I2C_NO_OPTION_FRAME;
 8002cec:	68fb      	ldr	r3, [r7, #12]
 8002cee:	4a5b      	ldr	r2, [pc, #364]	; (8002e5c <HAL_I2C_Mem_Read+0x228>)
 8002cf0:	62da      	str	r2, [r3, #44]	; 0x2c

    /* Send Slave Address and Memory Address */
    if (I2C_RequestMemoryRead(hi2c, DevAddress, MemAddress, MemAddSize, Timeout, tickstart) != HAL_OK)
 8002cf2:	88f8      	ldrh	r0, [r7, #6]
 8002cf4:	893a      	ldrh	r2, [r7, #8]
 8002cf6:	8979      	ldrh	r1, [r7, #10]
 8002cf8:	6a7b      	ldr	r3, [r7, #36]	; 0x24
 8002cfa:	9301      	str	r3, [sp, #4]
 8002cfc:	6bbb      	ldr	r3, [r7, #56]	; 0x38
 8002cfe:	9300      	str	r3, [sp, #0]
 8002d00:	4603      	mov	r3, r0
 8002d02:	68f8      	ldr	r0, [r7, #12]
 8002d04:	f000 fa52 	bl	80031ac <I2C_RequestMemoryRead>
 8002d08:	4603      	mov	r3, r0
 8002d0a:	2b00      	cmp	r3, #0
 8002d0c:	d001      	beq.n	8002d12 <HAL_I2C_Mem_Read+0xde>
    {
      return HAL_ERROR;
 8002d0e:	2301      	movs	r3, #1
 8002d10:	e1b0      	b.n	8003074 <HAL_I2C_Mem_Read+0x440>
    }

    if (hi2c->XferSize == 0U)
 8002d12:	68fb      	ldr	r3, [r7, #12]
 8002d14:	8d1b      	ldrh	r3, [r3, #40]	; 0x28
 8002d16:	2b00      	cmp	r3, #0
 8002d18:	d113      	bne.n	8002d42 <HAL_I2C_Mem_Read+0x10e>
    {
      /* Clear ADDR flag */
      __HAL_I2C_CLEAR_ADDRFLAG(hi2c);
 8002d1a:	2300      	movs	r3, #0
 8002d1c:	623b      	str	r3, [r7, #32]
 8002d1e:	68fb      	ldr	r3, [r7, #12]
 8002d20:	681b      	ldr	r3, [r3, #0]
 8002d22:	695b      	ldr	r3, [r3, #20]
 8002d24:	623b      	str	r3, [r7, #32]
 8002d26:	68fb      	ldr	r3, [r7, #12]
 8002d28:	681b      	ldr	r3, [r3, #0]
 8002d2a:	699b      	ldr	r3, [r3, #24]
 8002d2c:	623b      	str	r3, [r7, #32]
 8002d2e:	6a3b      	ldr	r3, [r7, #32]

      /* Generate Stop */
      SET_BIT(hi2c->Instance->CR1, I2C_CR1_STOP);
 8002d30:	68fb      	ldr	r3, [r7, #12]
 8002d32:	681b      	ldr	r3, [r3, #0]
 8002d34:	681a      	ldr	r2, [r3, #0]
 8002d36:	68fb      	ldr	r3, [r7, #12]
 8002d38:	681b      	ldr	r3, [r3, #0]
 8002d3a:	f442 7200 	orr.w	r2, r2, #512	; 0x200
 8002d3e:	601a      	str	r2, [r3, #0]
 8002d40:	e184      	b.n	800304c <HAL_I2C_Mem_Read+0x418>
    }
    else if (hi2c->XferSize == 1U)
 8002d42:	68fb      	ldr	r3, [r7, #12]
 8002d44:	8d1b      	ldrh	r3, [r3, #40]	; 0x28
 8002d46:	2b01      	cmp	r3, #1
 8002d48:	d11b      	bne.n	8002d82 <HAL_I2C_Mem_Read+0x14e>
    {
      /* Disable Acknowledge */
      CLEAR_BIT(hi2c->Instance->CR1, I2C_CR1_ACK);
 8002d4a:	68fb      	ldr	r3, [r7, #12]
 8002d4c:	681b      	ldr	r3, [r3, #0]
 8002d4e:	681a      	ldr	r2, [r3, #0]
 8002d50:	68fb      	ldr	r3, [r7, #12]
 8002d52:	681b      	ldr	r3, [r3, #0]
 8002d54:	f422 6280 	bic.w	r2, r2, #1024	; 0x400
 8002d58:	601a      	str	r2, [r3, #0]

      /* Clear ADDR flag */
      __HAL_I2C_CLEAR_ADDRFLAG(hi2c);
 8002d5a:	2300      	movs	r3, #0
 8002d5c:	61fb      	str	r3, [r7, #28]
 8002d5e:	68fb      	ldr	r3, [r7, #12]
 8002d60:	681b      	ldr	r3, [r3, #0]
 8002d62:	695b      	ldr	r3, [r3, #20]
 8002d64:	61fb      	str	r3, [r7, #28]
 8002d66:	68fb      	ldr	r3, [r7, #12]
 8002d68:	681b      	ldr	r3, [r3, #0]
 8002d6a:	699b      	ldr	r3, [r3, #24]
 8002d6c:	61fb      	str	r3, [r7, #28]
 8002d6e:	69fb      	ldr	r3, [r7, #28]

      /* Generate Stop */
      SET_BIT(hi2c->Instance->CR1, I2C_CR1_STOP);
 8002d70:	68fb      	ldr	r3, [r7, #12]
 8002d72:	681b      	ldr	r3, [r3, #0]
 8002d74:	681a      	ldr	r2, [r3, #0]
 8002d76:	68fb      	ldr	r3, [r7, #12]
 8002d78:	681b      	ldr	r3, [r3, #0]
 8002d7a:	f442 7200 	orr.w	r2, r2, #512	; 0x200
 8002d7e:	601a      	str	r2, [r3, #0]
 8002d80:	e164      	b.n	800304c <HAL_I2C_Mem_Read+0x418>
    }
    else if (hi2c->XferSize == 2U)
 8002d82:	68fb      	ldr	r3, [r7, #12]
 8002d84:	8d1b      	ldrh	r3, [r3, #40]	; 0x28
 8002d86:	2b02      	cmp	r3, #2
 8002d88:	d11b      	bne.n	8002dc2 <HAL_I2C_Mem_Read+0x18e>
    {
      /* Disable Acknowledge */
      CLEAR_BIT(hi2c->Instance->CR1, I2C_CR1_ACK);
 8002d8a:	68fb      	ldr	r3, [r7, #12]
 8002d8c:	681b      	ldr	r3, [r3, #0]
 8002d8e:	681a      	ldr	r2, [r3, #0]
 8002d90:	68fb      	ldr	r3, [r7, #12]
 8002d92:	681b      	ldr	r3, [r3, #0]
 8002d94:	f422 6280 	bic.w	r2, r2, #1024	; 0x400
 8002d98:	601a      	str	r2, [r3, #0]

      /* Enable Pos */
      SET_BIT(hi2c->Instance->CR1, I2C_CR1_POS);
 8002d9a:	68fb      	ldr	r3, [r7, #12]
 8002d9c:	681b      	ldr	r3, [r3, #0]
 8002d9e:	681a      	ldr	r2, [r3, #0]
 8002da0:	68fb      	ldr	r3, [r7, #12]
 8002da2:	681b      	ldr	r3, [r3, #0]
 8002da4:	f442 6200 	orr.w	r2, r2, #2048	; 0x800
 8002da8:	601a      	str	r2, [r3, #0]

      /* Clear ADDR flag */
      __HAL_I2C_CLEAR_ADDRFLAG(hi2c);
 8002daa:	2300      	movs	r3, #0
 8002dac:	61bb      	str	r3, [r7, #24]
 8002dae:	68fb      	ldr	r3, [r7, #12]
 8002db0:	681b      	ldr	r3, [r3, #0]
 8002db2:	695b      	ldr	r3, [r3, #20]
 8002db4:	61bb      	str	r3, [r7, #24]
 8002db6:	68fb      	ldr	r3, [r7, #12]
 8002db8:	681b      	ldr	r3, [r3, #0]
 8002dba:	699b      	ldr	r3, [r3, #24]
 8002dbc:	61bb      	str	r3, [r7, #24]
 8002dbe:	69bb      	ldr	r3, [r7, #24]
 8002dc0:	e144      	b.n	800304c <HAL_I2C_Mem_Read+0x418>
    }
    else
    {
      /* Clear ADDR flag */
      __HAL_I2C_CLEAR_ADDRFLAG(hi2c);
 8002dc2:	2300      	movs	r3, #0
 8002dc4:	617b      	str	r3, [r7, #20]
 8002dc6:	68fb      	ldr	r3, [r7, #12]
 8002dc8:	681b      	ldr	r3, [r3, #0]
 8002dca:	695b      	ldr	r3, [r3, #20]
 8002dcc:	617b      	str	r3, [r7, #20]
 8002dce:	68fb      	ldr	r3, [r7, #12]
 8002dd0:	681b      	ldr	r3, [r3, #0]
 8002dd2:	699b      	ldr	r3, [r3, #24]
 8002dd4:	617b      	str	r3, [r7, #20]
 8002dd6:	697b      	ldr	r3, [r7, #20]
    }

    while (hi2c->XferSize > 0U)
 8002dd8:	e138      	b.n	800304c <HAL_I2C_Mem_Read+0x418>
    {
      if (hi2c->XferSize <= 3U)
 8002dda:	68fb      	ldr	r3, [r7, #12]
 8002ddc:	8d1b      	ldrh	r3, [r3, #40]	; 0x28
 8002dde:	2b03      	cmp	r3, #3
 8002de0:	f200 80f1 	bhi.w	8002fc6 <HAL_I2C_Mem_Read+0x392>
      {
        /* One byte */
        if (hi2c->XferSize == 1U)
 8002de4:	68fb      	ldr	r3, [r7, #12]
 8002de6:	8d1b      	ldrh	r3, [r3, #40]	; 0x28
 8002de8:	2b01      	cmp	r3, #1
 8002dea:	d123      	bne.n	8002e34 <HAL_I2C_Mem_Read+0x200>
        {
          /* Wait until RXNE flag is set */
          if (I2C_WaitOnRXNEFlagUntilTimeout(hi2c, Timeout, tickstart) != HAL_OK)
 8002dec:	6a7a      	ldr	r2, [r7, #36]	; 0x24
 8002dee:	6bb9      	ldr	r1, [r7, #56]	; 0x38
 8002df0:	68f8      	ldr	r0, [r7, #12]
 8002df2:	f000 fc1b 	bl	800362c <I2C_WaitOnRXNEFlagUntilTimeout>
 8002df6:	4603      	mov	r3, r0
 8002df8:	2b00      	cmp	r3, #0
 8002dfa:	d001      	beq.n	8002e00 <HAL_I2C_Mem_Read+0x1cc>
          {
            return HAL_ERROR;
 8002dfc:	2301      	movs	r3, #1
 8002dfe:	e139      	b.n	8003074 <HAL_I2C_Mem_Read+0x440>
          }

          /* Read data from DR */
          *hi2c->pBuffPtr = (uint8_t)hi2c->Instance->DR;
 8002e00:	68fb      	ldr	r3, [r7, #12]
 8002e02:	681b      	ldr	r3, [r3, #0]
 8002e04:	691a      	ldr	r2, [r3, #16]
 8002e06:	68fb      	ldr	r3, [r7, #12]
 8002e08:	6a5b      	ldr	r3, [r3, #36]	; 0x24
 8002e0a:	b2d2      	uxtb	r2, r2
 8002e0c:	701a      	strb	r2, [r3, #0]

          /* Increment Buffer pointer */
          hi2c->pBuffPtr++;
 8002e0e:	68fb      	ldr	r3, [r7, #12]
 8002e10:	6a5b      	ldr	r3, [r3, #36]	; 0x24
 8002e12:	1c5a      	adds	r2, r3, #1
 8002e14:	68fb      	ldr	r3, [r7, #12]
 8002e16:	625a      	str	r2, [r3, #36]	; 0x24

          /* Update counter */
          hi2c->XferSize--;
 8002e18:	68fb      	ldr	r3, [r7, #12]
 8002e1a:	8d1b      	ldrh	r3, [r3, #40]	; 0x28
 8002e1c:	3b01      	subs	r3, #1
 8002e1e:	b29a      	uxth	r2, r3
 8002e20:	68fb      	ldr	r3, [r7, #12]
 8002e22:	851a      	strh	r2, [r3, #40]	; 0x28
          hi2c->XferCount--;
 8002e24:	68fb      	ldr	r3, [r7, #12]
 8002e26:	8d5b      	ldrh	r3, [r3, #42]	; 0x2a
 8002e28:	b29b      	uxth	r3, r3
 8002e2a:	3b01      	subs	r3, #1
 8002e2c:	b29a      	uxth	r2, r3
 8002e2e:	68fb      	ldr	r3, [r7, #12]
 8002e30:	855a      	strh	r2, [r3, #42]	; 0x2a
 8002e32:	e10b      	b.n	800304c <HAL_I2C_Mem_Read+0x418>
        }
        /* Two bytes */
        else if (hi2c->XferSize == 2U)
 8002e34:	68fb      	ldr	r3, [r7, #12]
 8002e36:	8d1b      	ldrh	r3, [r3, #40]	; 0x28
 8002e38:	2b02      	cmp	r3, #2
 8002e3a:	d14e      	bne.n	8002eda <HAL_I2C_Mem_Read+0x2a6>
        {
          /* Wait until BTF flag is set */
          if (I2C_WaitOnFlagUntilTimeout(hi2c, I2C_FLAG_BTF, RESET, Timeout, tickstart) != HAL_OK)
 8002e3c:	6a7b      	ldr	r3, [r7, #36]	; 0x24
 8002e3e:	9300      	str	r3, [sp, #0]
 8002e40:	6bbb      	ldr	r3, [r7, #56]	; 0x38
 8002e42:	2200      	movs	r2, #0
 8002e44:	4906      	ldr	r1, [pc, #24]	; (8002e60 <HAL_I2C_Mem_Read+0x22c>)
 8002e46:	68f8      	ldr	r0, [r7, #12]
 8002e48:	f000 fa98 	bl	800337c <I2C_WaitOnFlagUntilTimeout>
 8002e4c:	4603      	mov	r3, r0
 8002e4e:	2b00      	cmp	r3, #0
 8002e50:	d008      	beq.n	8002e64 <HAL_I2C_Mem_Read+0x230>
          {
            return HAL_ERROR;
 8002e52:	2301      	movs	r3, #1
 8002e54:	e10e      	b.n	8003074 <HAL_I2C_Mem_Read+0x440>
 8002e56:	bf00      	nop
 8002e58:	00100002 	.word	0x00100002
 8002e5c:	ffff0000 	.word	0xffff0000
 8002e60:	00010004 	.word	0x00010004
          }

          /* Generate Stop */
          SET_BIT(hi2c->Instance->CR1, I2C_CR1_STOP);
 8002e64:	68fb      	ldr	r3, [r7, #12]
 8002e66:	681b      	ldr	r3, [r3, #0]
 8002e68:	681a      	ldr	r2, [r3, #0]
 8002e6a:	68fb      	ldr	r3, [r7, #12]
 8002e6c:	681b      	ldr	r3, [r3, #0]
 8002e6e:	f442 7200 	orr.w	r2, r2, #512	; 0x200
 8002e72:	601a      	str	r2, [r3, #0]

          /* Read data from DR */
          *hi2c->pBuffPtr = (uint8_t)hi2c->Instance->DR;
 8002e74:	68fb      	ldr	r3, [r7, #12]
 8002e76:	681b      	ldr	r3, [r3, #0]
 8002e78:	691a      	ldr	r2, [r3, #16]
 8002e7a:	68fb      	ldr	r3, [r7, #12]
 8002e7c:	6a5b      	ldr	r3, [r3, #36]	; 0x24
 8002e7e:	b2d2      	uxtb	r2, r2
 8002e80:	701a      	strb	r2, [r3, #0]

          /* Increment Buffer pointer */
          hi2c->pBuffPtr++;
 8002e82:	68fb      	ldr	r3, [r7, #12]
 8002e84:	6a5b      	ldr	r3, [r3, #36]	; 0x24
 8002e86:	1c5a      	adds	r2, r3, #1
 8002e88:	68fb      	ldr	r3, [r7, #12]
 8002e8a:	625a      	str	r2, [r3, #36]	; 0x24

          /* Update counter */
          hi2c->XferSize--;
 8002e8c:	68fb      	ldr	r3, [r7, #12]
 8002e8e:	8d1b      	ldrh	r3, [r3, #40]	; 0x28
 8002e90:	3b01      	subs	r3, #1
 8002e92:	b29a      	uxth	r2, r3
 8002e94:	68fb      	ldr	r3, [r7, #12]
 8002e96:	851a      	strh	r2, [r3, #40]	; 0x28
          hi2c->XferCount--;
 8002e98:	68fb      	ldr	r3, [r7, #12]
 8002e9a:	8d5b      	ldrh	r3, [r3, #42]	; 0x2a
 8002e9c:	b29b      	uxth	r3, r3
 8002e9e:	3b01      	subs	r3, #1
 8002ea0:	b29a      	uxth	r2, r3
 8002ea2:	68fb      	ldr	r3, [r7, #12]
 8002ea4:	855a      	strh	r2, [r3, #42]	; 0x2a

          /* Read data from DR */
          *hi2c->pBuffPtr = (uint8_t)hi2c->Instance->DR;
 8002ea6:	68fb      	ldr	r3, [r7, #12]
 8002ea8:	681b      	ldr	r3, [r3, #0]
 8002eaa:	691a      	ldr	r2, [r3, #16]
 8002eac:	68fb      	ldr	r3, [r7, #12]
 8002eae:	6a5b      	ldr	r3, [r3, #36]	; 0x24
 8002eb0:	b2d2      	uxtb	r2, r2
 8002eb2:	701a      	strb	r2, [r3, #0]

          /* Increment Buffer pointer */
          hi2c->pBuffPtr++;
 8002eb4:	68fb      	ldr	r3, [r7, #12]
 8002eb6:	6a5b      	ldr	r3, [r3, #36]	; 0x24
 8002eb8:	1c5a      	adds	r2, r3, #1
 8002eba:	68fb      	ldr	r3, [r7, #12]
 8002ebc:	625a      	str	r2, [r3, #36]	; 0x24

          /* Update counter */
          hi2c->XferSize--;
 8002ebe:	68fb      	ldr	r3, [r7, #12]
 8002ec0:	8d1b      	ldrh	r3, [r3, #40]	; 0x28
 8002ec2:	3b01      	subs	r3, #1
 8002ec4:	b29a      	uxth	r2, r3
 8002ec6:	68fb      	ldr	r3, [r7, #12]
 8002ec8:	851a      	strh	r2, [r3, #40]	; 0x28
          hi2c->XferCount--;
 8002eca:	68fb      	ldr	r3, [r7, #12]
 8002ecc:	8d5b      	ldrh	r3, [r3, #42]	; 0x2a
 8002ece:	b29b      	uxth	r3, r3
 8002ed0:	3b01      	subs	r3, #1
 8002ed2:	b29a      	uxth	r2, r3
 8002ed4:	68fb      	ldr	r3, [r7, #12]
 8002ed6:	855a      	strh	r2, [r3, #42]	; 0x2a
 8002ed8:	e0b8      	b.n	800304c <HAL_I2C_Mem_Read+0x418>
        }
        /* 3 Last bytes */
        else
        {
          /* Wait until BTF flag is set */
          if (I2C_WaitOnFlagUntilTimeout(hi2c, I2C_FLAG_BTF, RESET, Timeout, tickstart) != HAL_OK)
 8002eda:	6a7b      	ldr	r3, [r7, #36]	; 0x24
 8002edc:	9300      	str	r3, [sp, #0]
 8002ede:	6bbb      	ldr	r3, [r7, #56]	; 0x38
 8002ee0:	2200      	movs	r2, #0
 8002ee2:	4966      	ldr	r1, [pc, #408]	; (800307c <HAL_I2C_Mem_Read+0x448>)
 8002ee4:	68f8      	ldr	r0, [r7, #12]
 8002ee6:	f000 fa49 	bl	800337c <I2C_WaitOnFlagUntilTimeout>
 8002eea:	4603      	mov	r3, r0
 8002eec:	2b00      	cmp	r3, #0
 8002eee:	d001      	beq.n	8002ef4 <HAL_I2C_Mem_Read+0x2c0>
          {
            return HAL_ERROR;
 8002ef0:	2301      	movs	r3, #1
 8002ef2:	e0bf      	b.n	8003074 <HAL_I2C_Mem_Read+0x440>
          }

          /* Disable Acknowledge */
          CLEAR_BIT(hi2c->Instance->CR1, I2C_CR1_ACK);
 8002ef4:	68fb      	ldr	r3, [r7, #12]
 8002ef6:	681b      	ldr	r3, [r3, #0]
 8002ef8:	681a      	ldr	r2, [r3, #0]
 8002efa:	68fb      	ldr	r3, [r7, #12]
 8002efc:	681b      	ldr	r3, [r3, #0]
 8002efe:	f422 6280 	bic.w	r2, r2, #1024	; 0x400
 8002f02:	601a      	str	r2, [r3, #0]

          /* Read data from DR */
          *hi2c->pBuffPtr = (uint8_t)hi2c->Instance->DR;
 8002f04:	68fb      	ldr	r3, [r7, #12]
 8002f06:	681b      	ldr	r3, [r3, #0]
 8002f08:	691a      	ldr	r2, [r3, #16]
 8002f0a:	68fb      	ldr	r3, [r7, #12]
 8002f0c:	6a5b      	ldr	r3, [r3, #36]	; 0x24
 8002f0e:	b2d2      	uxtb	r2, r2
 8002f10:	701a      	strb	r2, [r3, #0]

          /* Increment Buffer pointer */
          hi2c->pBuffPtr++;
 8002f12:	68fb      	ldr	r3, [r7, #12]
 8002f14:	6a5b      	ldr	r3, [r3, #36]	; 0x24
 8002f16:	1c5a      	adds	r2, r3, #1
 8002f18:	68fb      	ldr	r3, [r7, #12]
 8002f1a:	625a      	str	r2, [r3, #36]	; 0x24

          /* Update counter */
          hi2c->XferSize--;
 8002f1c:	68fb      	ldr	r3, [r7, #12]
 8002f1e:	8d1b      	ldrh	r3, [r3, #40]	; 0x28
 8002f20:	3b01      	subs	r3, #1
 8002f22:	b29a      	uxth	r2, r3
 8002f24:	68fb      	ldr	r3, [r7, #12]
 8002f26:	851a      	strh	r2, [r3, #40]	; 0x28
          hi2c->XferCount--;
 8002f28:	68fb      	ldr	r3, [r7, #12]
 8002f2a:	8d5b      	ldrh	r3, [r3, #42]	; 0x2a
 8002f2c:	b29b      	uxth	r3, r3
 8002f2e:	3b01      	subs	r3, #1
 8002f30:	b29a      	uxth	r2, r3
 8002f32:	68fb      	ldr	r3, [r7, #12]
 8002f34:	855a      	strh	r2, [r3, #42]	; 0x2a

          /* Wait until BTF flag is set */
          if (I2C_WaitOnFlagUntilTimeout(hi2c, I2C_FLAG_BTF, RESET, Timeout, tickstart) != HAL_OK)
 8002f36:	6a7b      	ldr	r3, [r7, #36]	; 0x24
 8002f38:	9300      	str	r3, [sp, #0]
 8002f3a:	6bbb      	ldr	r3, [r7, #56]	; 0x38
 8002f3c:	2200      	movs	r2, #0
 8002f3e:	494f      	ldr	r1, [pc, #316]	; (800307c <HAL_I2C_Mem_Read+0x448>)
 8002f40:	68f8      	ldr	r0, [r7, #12]
 8002f42:	f000 fa1b 	bl	800337c <I2C_WaitOnFlagUntilTimeout>
 8002f46:	4603      	mov	r3, r0
 8002f48:	2b00      	cmp	r3, #0
 8002f4a:	d001      	beq.n	8002f50 <HAL_I2C_Mem_Read+0x31c>
          {
            return HAL_ERROR;
 8002f4c:	2301      	movs	r3, #1
 8002f4e:	e091      	b.n	8003074 <HAL_I2C_Mem_Read+0x440>
          }

          /* Generate Stop */
          SET_BIT(hi2c->Instance->CR1, I2C_CR1_STOP);
 8002f50:	68fb      	ldr	r3, [r7, #12]
 8002f52:	681b      	ldr	r3, [r3, #0]
 8002f54:	681a      	ldr	r2, [r3, #0]
 8002f56:	68fb      	ldr	r3, [r7, #12]
 8002f58:	681b      	ldr	r3, [r3, #0]
 8002f5a:	f442 7200 	orr.w	r2, r2, #512	; 0x200
 8002f5e:	601a      	str	r2, [r3, #0]

          /* Read data from DR */
          *hi2c->pBuffPtr = (uint8_t)hi2c->Instance->DR;
 8002f60:	68fb      	ldr	r3, [r7, #12]
 8002f62:	681b      	ldr	r3, [r3, #0]
 8002f64:	691a      	ldr	r2, [r3, #16]
 8002f66:	68fb      	ldr	r3, [r7, #12]
 8002f68:	6a5b      	ldr	r3, [r3, #36]	; 0x24
 8002f6a:	b2d2      	uxtb	r2, r2
 8002f6c:	701a      	strb	r2, [r3, #0]

          /* Increment Buffer pointer */
          hi2c->pBuffPtr++;
 8002f6e:	68fb      	ldr	r3, [r7, #12]
 8002f70:	6a5b      	ldr	r3, [r3, #36]	; 0x24
 8002f72:	1c5a      	adds	r2, r3, #1
 8002f74:	68fb      	ldr	r3, [r7, #12]
 8002f76:	625a      	str	r2, [r3, #36]	; 0x24

          /* Update counter */
          hi2c->XferSize--;
 8002f78:	68fb      	ldr	r3, [r7, #12]
 8002f7a:	8d1b      	ldrh	r3, [r3, #40]	; 0x28
 8002f7c:	3b01      	subs	r3, #1
 8002f7e:	b29a      	uxth	r2, r3
 8002f80:	68fb      	ldr	r3, [r7, #12]
 8002f82:	851a      	strh	r2, [r3, #40]	; 0x28
          hi2c->XferCount--;
 8002f84:	68fb      	ldr	r3, [r7, #12]
 8002f86:	8d5b      	ldrh	r3, [r3, #42]	; 0x2a
 8002f88:	b29b      	uxth	r3, r3
 8002f8a:	3b01      	subs	r3, #1
 8002f8c:	b29a      	uxth	r2, r3
 8002f8e:	68fb      	ldr	r3, [r7, #12]
 8002f90:	855a      	strh	r2, [r3, #42]	; 0x2a

          /* Read data from DR */
          *hi2c->pBuffPtr = (uint8_t)hi2c->Instance->DR;
 8002f92:	68fb      	ldr	r3, [r7, #12]
 8002f94:	681b      	ldr	r3, [r3, #0]
 8002f96:	691a      	ldr	r2, [r3, #16]
 8002f98:	68fb      	ldr	r3, [r7, #12]
 8002f9a:	6a5b      	ldr	r3, [r3, #36]	; 0x24
 8002f9c:	b2d2      	uxtb	r2, r2
 8002f9e:	701a      	strb	r2, [r3, #0]

          /* Increment Buffer pointer */
          hi2c->pBuffPtr++;
 8002fa0:	68fb      	ldr	r3, [r7, #12]
 8002fa2:	6a5b      	ldr	r3, [r3, #36]	; 0x24
 8002fa4:	1c5a      	adds	r2, r3, #1
 8002fa6:	68fb      	ldr	r3, [r7, #12]
 8002fa8:	625a      	str	r2, [r3, #36]	; 0x24

          /* Update counter */
          hi2c->XferSize--;
 8002faa:	68fb      	ldr	r3, [r7, #12]
 8002fac:	8d1b      	ldrh	r3, [r3, #40]	; 0x28
 8002fae:	3b01      	subs	r3, #1
 8002fb0:	b29a      	uxth	r2, r3
 8002fb2:	68fb      	ldr	r3, [r7, #12]
 8002fb4:	851a      	strh	r2, [r3, #40]	; 0x28
          hi2c->XferCount--;
 8002fb6:	68fb      	ldr	r3, [r7, #12]
 8002fb8:	8d5b      	ldrh	r3, [r3, #42]	; 0x2a
 8002fba:	b29b      	uxth	r3, r3
 8002fbc:	3b01      	subs	r3, #1
 8002fbe:	b29a      	uxth	r2, r3
 8002fc0:	68fb      	ldr	r3, [r7, #12]
 8002fc2:	855a      	strh	r2, [r3, #42]	; 0x2a
 8002fc4:	e042      	b.n	800304c <HAL_I2C_Mem_Read+0x418>
        }
      }
      else
      {
        /* Wait until RXNE flag is set */
        if (I2C_WaitOnRXNEFlagUntilTimeout(hi2c, Timeout, tickstart) != HAL_OK)
 8002fc6:	6a7a      	ldr	r2, [r7, #36]	; 0x24
 8002fc8:	6bb9      	ldr	r1, [r7, #56]	; 0x38
 8002fca:	68f8      	ldr	r0, [r7, #12]
 8002fcc:	f000 fb2e 	bl	800362c <I2C_WaitOnRXNEFlagUntilTimeout>
 8002fd0:	4603      	mov	r3, r0
 8002fd2:	2b00      	cmp	r3, #0
 8002fd4:	d001      	beq.n	8002fda <HAL_I2C_Mem_Read+0x3a6>
        {
          return HAL_ERROR;
 8002fd6:	2301      	movs	r3, #1
 8002fd8:	e04c      	b.n	8003074 <HAL_I2C_Mem_Read+0x440>
        }

        /* Read data from DR */
        *hi2c->pBuffPtr = (uint8_t)hi2c->Instance->DR;
 8002fda:	68fb      	ldr	r3, [r7, #12]
 8002fdc:	681b      	ldr	r3, [r3, #0]
 8002fde:	691a      	ldr	r2, [r3, #16]
 8002fe0:	68fb      	ldr	r3, [r7, #12]
 8002fe2:	6a5b      	ldr	r3, [r3, #36]	; 0x24
 8002fe4:	b2d2      	uxtb	r2, r2
 8002fe6:	701a      	strb	r2, [r3, #0]

        /* Increment Buffer pointer */
        hi2c->pBuffPtr++;
 8002fe8:	68fb      	ldr	r3, [r7, #12]
 8002fea:	6a5b      	ldr	r3, [r3, #36]	; 0x24
 8002fec:	1c5a      	adds	r2, r3, #1
 8002fee:	68fb      	ldr	r3, [r7, #12]
 8002ff0:	625a      	str	r2, [r3, #36]	; 0x24

        /* Update counter */
        hi2c->XferSize--;
 8002ff2:	68fb      	ldr	r3, [r7, #12]
 8002ff4:	8d1b      	ldrh	r3, [r3, #40]	; 0x28
 8002ff6:	3b01      	subs	r3, #1
 8002ff8:	b29a      	uxth	r2, r3
 8002ffa:	68fb      	ldr	r3, [r7, #12]
 8002ffc:	851a      	strh	r2, [r3, #40]	; 0x28
        hi2c->XferCount--;
 8002ffe:	68fb      	ldr	r3, [r7, #12]
 8003000:	8d5b      	ldrh	r3, [r3, #42]	; 0x2a
 8003002:	b29b      	uxth	r3, r3
 8003004:	3b01      	subs	r3, #1
 8003006:	b29a      	uxth	r2, r3
 8003008:	68fb      	ldr	r3, [r7, #12]
 800300a:	855a      	strh	r2, [r3, #42]	; 0x2a

        if (__HAL_I2C_GET_FLAG(hi2c, I2C_FLAG_BTF) == SET)
 800300c:	68fb      	ldr	r3, [r7, #12]
 800300e:	681b      	ldr	r3, [r3, #0]
 8003010:	695b      	ldr	r3, [r3, #20]
 8003012:	f003 0304 	and.w	r3, r3, #4
 8003016:	2b04      	cmp	r3, #4
 8003018:	d118      	bne.n	800304c <HAL_I2C_Mem_Read+0x418>
        {
          /* Read data from DR */
          *hi2c->pBuffPtr = (uint8_t)hi2c->Instance->DR;
 800301a:	68fb      	ldr	r3, [r7, #12]
 800301c:	681b      	ldr	r3, [r3, #0]
 800301e:	691a      	ldr	r2, [r3, #16]
 8003020:	68fb      	ldr	r3, [r7, #12]
 8003022:	6a5b      	ldr	r3, [r3, #36]	; 0x24
 8003024:	b2d2      	uxtb	r2, r2
 8003026:	701a      	strb	r2, [r3, #0]

          /* Increment Buffer pointer */
          hi2c->pBuffPtr++;
 8003028:	68fb      	ldr	r3, [r7, #12]
 800302a:	6a5b      	ldr	r3, [r3, #36]	; 0x24
 800302c:	1c5a      	adds	r2, r3, #1
 800302e:	68fb      	ldr	r3, [r7, #12]
 8003030:	625a      	str	r2, [r3, #36]	; 0x24

          /* Update counter */
          hi2c->XferSize--;
 8003032:	68fb      	ldr	r3, [r7, #12]
 8003034:	8d1b      	ldrh	r3, [r3, #40]	; 0x28
 8003036:	3b01      	subs	r3, #1
 8003038:	b29a      	uxth	r2, r3
 800303a:	68fb      	ldr	r3, [r7, #12]
 800303c:	851a      	strh	r2, [r3, #40]	; 0x28
          hi2c->XferCount--;
 800303e:	68fb      	ldr	r3, [r7, #12]
 8003040:	8d5b      	ldrh	r3, [r3, #42]	; 0x2a
 8003042:	b29b      	uxth	r3, r3
 8003044:	3b01      	subs	r3, #1
 8003046:	b29a      	uxth	r2, r3
 8003048:	68fb      	ldr	r3, [r7, #12]
 800304a:	855a      	strh	r2, [r3, #42]	; 0x2a
    while (hi2c->XferSize > 0U)
 800304c:	68fb      	ldr	r3, [r7, #12]
 800304e:	8d1b      	ldrh	r3, [r3, #40]	; 0x28
 8003050:	2b00      	cmp	r3, #0
 8003052:	f47f aec2 	bne.w	8002dda <HAL_I2C_Mem_Read+0x1a6>
        }
      }
    }

    hi2c->State = HAL_I2C_STATE_READY;
 8003056:	68fb      	ldr	r3, [r7, #12]
 8003058:	2220      	movs	r2, #32
 800305a:	f883 203d 	strb.w	r2, [r3, #61]	; 0x3d
    hi2c->Mode = HAL_I2C_MODE_NONE;
 800305e:	68fb      	ldr	r3, [r7, #12]
 8003060:	2200      	movs	r2, #0
 8003062:	f883 203e 	strb.w	r2, [r3, #62]	; 0x3e

    /* Process Unlocked */
    __HAL_UNLOCK(hi2c);
 8003066:	68fb      	ldr	r3, [r7, #12]
 8003068:	2200      	movs	r2, #0
 800306a:	f883 203c 	strb.w	r2, [r3, #60]	; 0x3c

    return HAL_OK;
 800306e:	2300      	movs	r3, #0
 8003070:	e000      	b.n	8003074 <HAL_I2C_Mem_Read+0x440>
  }
  else
  {
    return HAL_BUSY;
 8003072:	2302      	movs	r3, #2
  }
}
 8003074:	4618      	mov	r0, r3
 8003076:	3728      	adds	r7, #40	; 0x28
 8003078:	46bd      	mov	sp, r7
 800307a:	bd80      	pop	{r7, pc}
 800307c:	00010004 	.word	0x00010004

08003080 <I2C_RequestMemoryWrite>:
  * @param  Timeout Timeout duration
  * @param  Tickstart Tick start value
  * @retval HAL status
  */
static HAL_StatusTypeDef I2C_RequestMemoryWrite(I2C_HandleTypeDef *hi2c, uint16_t DevAddress, uint16_t MemAddress, uint16_t MemAddSize, uint32_t Timeout, uint32_t Tickstart)
{
 8003080:	b580      	push	{r7, lr}
 8003082:	b088      	sub	sp, #32
 8003084:	af02      	add	r7, sp, #8
 8003086:	60f8      	str	r0, [r7, #12]
 8003088:	4608      	mov	r0, r1
 800308a:	4611      	mov	r1, r2
 800308c:	461a      	mov	r2, r3
 800308e:	4603      	mov	r3, r0
 8003090:	817b      	strh	r3, [r7, #10]
 8003092:	460b      	mov	r3, r1
 8003094:	813b      	strh	r3, [r7, #8]
 8003096:	4613      	mov	r3, r2
 8003098:	80fb      	strh	r3, [r7, #6]
  /* Generate Start */
  SET_BIT(hi2c->Instance->CR1, I2C_CR1_START);
 800309a:	68fb      	ldr	r3, [r7, #12]
 800309c:	681b      	ldr	r3, [r3, #0]
 800309e:	681a      	ldr	r2, [r3, #0]
 80030a0:	68fb      	ldr	r3, [r7, #12]
 80030a2:	681b      	ldr	r3, [r3, #0]
 80030a4:	f442 7280 	orr.w	r2, r2, #256	; 0x100
 80030a8:	601a      	str	r2, [r3, #0]

  /* Wait until SB flag is set */
  if (I2C_WaitOnFlagUntilTimeout(hi2c, I2C_FLAG_SB, RESET, Timeout, Tickstart) != HAL_OK)
 80030aa:	6a7b      	ldr	r3, [r7, #36]	; 0x24
 80030ac:	9300      	str	r3, [sp, #0]
 80030ae:	6a3b      	ldr	r3, [r7, #32]
 80030b0:	2200      	movs	r2, #0
 80030b2:	f04f 1101 	mov.w	r1, #65537	; 0x10001
 80030b6:	68f8      	ldr	r0, [r7, #12]
 80030b8:	f000 f960 	bl	800337c <I2C_WaitOnFlagUntilTimeout>
 80030bc:	4603      	mov	r3, r0
 80030be:	2b00      	cmp	r3, #0
 80030c0:	d00d      	beq.n	80030de <I2C_RequestMemoryWrite+0x5e>
  {
    if (READ_BIT(hi2c->Instance->CR1, I2C_CR1_START) == I2C_CR1_START)
 80030c2:	68fb      	ldr	r3, [r7, #12]
 80030c4:	681b      	ldr	r3, [r3, #0]
 80030c6:	681b      	ldr	r3, [r3, #0]
 80030c8:	f403 7380 	and.w	r3, r3, #256	; 0x100
 80030cc:	f5b3 7f80 	cmp.w	r3, #256	; 0x100
 80030d0:	d103      	bne.n	80030da <I2C_RequestMemoryWrite+0x5a>
    {
      hi2c->ErrorCode = HAL_I2C_WRONG_START;
 80030d2:	68fb      	ldr	r3, [r7, #12]
 80030d4:	f44f 7200 	mov.w	r2, #512	; 0x200
 80030d8:	641a      	str	r2, [r3, #64]	; 0x40
    }
    return HAL_TIMEOUT;
 80030da:	2303      	movs	r3, #3
 80030dc:	e05f      	b.n	800319e <I2C_RequestMemoryWrite+0x11e>
  }

  /* Send slave address */
  hi2c->Instance->DR = I2C_7BIT_ADD_WRITE(DevAddress);
 80030de:	897b      	ldrh	r3, [r7, #10]
 80030e0:	b2db      	uxtb	r3, r3
 80030e2:	461a      	mov	r2, r3
 80030e4:	68fb      	ldr	r3, [r7, #12]
 80030e6:	681b      	ldr	r3, [r3, #0]
 80030e8:	f002 02fe 	and.w	r2, r2, #254	; 0xfe
 80030ec:	611a      	str	r2, [r3, #16]

  /* Wait until ADDR flag is set */
  if (I2C_WaitOnMasterAddressFlagUntilTimeout(hi2c, I2C_FLAG_ADDR, Timeout, Tickstart) != HAL_OK)
 80030ee:	6a7b      	ldr	r3, [r7, #36]	; 0x24
 80030f0:	6a3a      	ldr	r2, [r7, #32]
 80030f2:	492d      	ldr	r1, [pc, #180]	; (80031a8 <I2C_RequestMemoryWrite+0x128>)
 80030f4:	68f8      	ldr	r0, [r7, #12]
 80030f6:	f000 f998 	bl	800342a <I2C_WaitOnMasterAddressFlagUntilTimeout>
 80030fa:	4603      	mov	r3, r0
 80030fc:	2b00      	cmp	r3, #0
 80030fe:	d001      	beq.n	8003104 <I2C_RequestMemoryWrite+0x84>
  {
    return HAL_ERROR;
 8003100:	2301      	movs	r3, #1
 8003102:	e04c      	b.n	800319e <I2C_RequestMemoryWrite+0x11e>
  }

  /* Clear ADDR flag */
  __HAL_I2C_CLEAR_ADDRFLAG(hi2c);
 8003104:	2300      	movs	r3, #0
 8003106:	617b      	str	r3, [r7, #20]
 8003108:	68fb      	ldr	r3, [r7, #12]
 800310a:	681b      	ldr	r3, [r3, #0]
 800310c:	695b      	ldr	r3, [r3, #20]
 800310e:	617b      	str	r3, [r7, #20]
 8003110:	68fb      	ldr	r3, [r7, #12]
 8003112:	681b      	ldr	r3, [r3, #0]
 8003114:	699b      	ldr	r3, [r3, #24]
 8003116:	617b      	str	r3, [r7, #20]
 8003118:	697b      	ldr	r3, [r7, #20]

  /* Wait until TXE flag is set */
  if (I2C_WaitOnTXEFlagUntilTimeout(hi2c, Timeout, Tickstart) != HAL_OK)
 800311a:	6a7a      	ldr	r2, [r7, #36]	; 0x24
 800311c:	6a39      	ldr	r1, [r7, #32]
 800311e:	68f8      	ldr	r0, [r7, #12]
 8003120:	f000 fa02 	bl	8003528 <I2C_WaitOnTXEFlagUntilTimeout>
 8003124:	4603      	mov	r3, r0
 8003126:	2b00      	cmp	r3, #0
 8003128:	d00d      	beq.n	8003146 <I2C_RequestMemoryWrite+0xc6>
  {
    if (hi2c->ErrorCode == HAL_I2C_ERROR_AF)
 800312a:	68fb      	ldr	r3, [r7, #12]
 800312c:	6c1b      	ldr	r3, [r3, #64]	; 0x40
 800312e:	2b04      	cmp	r3, #4
 8003130:	d107      	bne.n	8003142 <I2C_RequestMemoryWrite+0xc2>
    {
      /* Generate Stop */
      SET_BIT(hi2c->Instance->CR1, I2C_CR1_STOP);
 8003132:	68fb      	ldr	r3, [r7, #12]
 8003134:	681b      	ldr	r3, [r3, #0]
 8003136:	681a      	ldr	r2, [r3, #0]
 8003138:	68fb      	ldr	r3, [r7, #12]
 800313a:	681b      	ldr	r3, [r3, #0]
 800313c:	f442 7200 	orr.w	r2, r2, #512	; 0x200
 8003140:	601a      	str	r2, [r3, #0]
    }
    return HAL_ERROR;
 8003142:	2301      	movs	r3, #1
 8003144:	e02b      	b.n	800319e <I2C_RequestMemoryWrite+0x11e>
  }

  /* If Memory address size is 8Bit */
  if (MemAddSize == I2C_MEMADD_SIZE_8BIT)
 8003146:	88fb      	ldrh	r3, [r7, #6]
 8003148:	2b01      	cmp	r3, #1
 800314a:	d105      	bne.n	8003158 <I2C_RequestMemoryWrite+0xd8>
  {
    /* Send Memory Address */
    hi2c->Instance->DR = I2C_MEM_ADD_LSB(MemAddress);
 800314c:	893b      	ldrh	r3, [r7, #8]
 800314e:	b2da      	uxtb	r2, r3
 8003150:	68fb      	ldr	r3, [r7, #12]
 8003152:	681b      	ldr	r3, [r3, #0]
 8003154:	611a      	str	r2, [r3, #16]
 8003156:	e021      	b.n	800319c <I2C_RequestMemoryWrite+0x11c>
  }
  /* If Memory address size is 16Bit */
  else
  {
    /* Send MSB of Memory Address */
    hi2c->Instance->DR = I2C_MEM_ADD_MSB(MemAddress);
 8003158:	893b      	ldrh	r3, [r7, #8]
 800315a:	0a1b      	lsrs	r3, r3, #8
 800315c:	b29b      	uxth	r3, r3
 800315e:	b2da      	uxtb	r2, r3
 8003160:	68fb      	ldr	r3, [r7, #12]
 8003162:	681b      	ldr	r3, [r3, #0]
 8003164:	611a      	str	r2, [r3, #16]

    /* Wait until TXE flag is set */
    if (I2C_WaitOnTXEFlagUntilTimeout(hi2c, Timeout, Tickstart) != HAL_OK)
 8003166:	6a7a      	ldr	r2, [r7, #36]	; 0x24
 8003168:	6a39      	ldr	r1, [r7, #32]
 800316a:	68f8      	ldr	r0, [r7, #12]
 800316c:	f000 f9dc 	bl	8003528 <I2C_WaitOnTXEFlagUntilTimeout>
 8003170:	4603      	mov	r3, r0
 8003172:	2b00      	cmp	r3, #0
 8003174:	d00d      	beq.n	8003192 <I2C_RequestMemoryWrite+0x112>
    {
      if (hi2c->ErrorCode == HAL_I2C_ERROR_AF)
 8003176:	68fb      	ldr	r3, [r7, #12]
 8003178:	6c1b      	ldr	r3, [r3, #64]	; 0x40
 800317a:	2b04      	cmp	r3, #4
 800317c:	d107      	bne.n	800318e <I2C_RequestMemoryWrite+0x10e>
      {
        /* Generate Stop */
        SET_BIT(hi2c->Instance->CR1, I2C_CR1_STOP);
 800317e:	68fb      	ldr	r3, [r7, #12]
 8003180:	681b      	ldr	r3, [r3, #0]
 8003182:	681a      	ldr	r2, [r3, #0]
 8003184:	68fb      	ldr	r3, [r7, #12]
 8003186:	681b      	ldr	r3, [r3, #0]
 8003188:	f442 7200 	orr.w	r2, r2, #512	; 0x200
 800318c:	601a      	str	r2, [r3, #0]
      }
      return HAL_ERROR;
 800318e:	2301      	movs	r3, #1
 8003190:	e005      	b.n	800319e <I2C_RequestMemoryWrite+0x11e>
    }

    /* Send LSB of Memory Address */
    hi2c->Instance->DR = I2C_MEM_ADD_LSB(MemAddress);
 8003192:	893b      	ldrh	r3, [r7, #8]
 8003194:	b2da      	uxtb	r2, r3
 8003196:	68fb      	ldr	r3, [r7, #12]
 8003198:	681b      	ldr	r3, [r3, #0]
 800319a:	611a      	str	r2, [r3, #16]
  }

  return HAL_OK;
 800319c:	2300      	movs	r3, #0
}
 800319e:	4618      	mov	r0, r3
 80031a0:	3718      	adds	r7, #24
 80031a2:	46bd      	mov	sp, r7
 80031a4:	bd80      	pop	{r7, pc}
 80031a6:	bf00      	nop
 80031a8:	00010002 	.word	0x00010002

080031ac <I2C_RequestMemoryRead>:
  * @param  Timeout Timeout duration
  * @param  Tickstart Tick start value
  * @retval HAL status
  */
static HAL_StatusTypeDef I2C_RequestMemoryRead(I2C_HandleTypeDef *hi2c, uint16_t DevAddress, uint16_t MemAddress, uint16_t MemAddSize, uint32_t Timeout, uint32_t Tickstart)
{
 80031ac:	b580      	push	{r7, lr}
 80031ae:	b088      	sub	sp, #32
 80031b0:	af02      	add	r7, sp, #8
 80031b2:	60f8      	str	r0, [r7, #12]
 80031b4:	4608      	mov	r0, r1
 80031b6:	4611      	mov	r1, r2
 80031b8:	461a      	mov	r2, r3
 80031ba:	4603      	mov	r3, r0
 80031bc:	817b      	strh	r3, [r7, #10]
 80031be:	460b      	mov	r3, r1
 80031c0:	813b      	strh	r3, [r7, #8]
 80031c2:	4613      	mov	r3, r2
 80031c4:	80fb      	strh	r3, [r7, #6]
  /* Enable Acknowledge */
  SET_BIT(hi2c->Instance->CR1, I2C_CR1_ACK);
 80031c6:	68fb      	ldr	r3, [r7, #12]
 80031c8:	681b      	ldr	r3, [r3, #0]
 80031ca:	681a      	ldr	r2, [r3, #0]
 80031cc:	68fb      	ldr	r3, [r7, #12]
 80031ce:	681b      	ldr	r3, [r3, #0]
 80031d0:	f442 6280 	orr.w	r2, r2, #1024	; 0x400
 80031d4:	601a      	str	r2, [r3, #0]

  /* Generate Start */
  SET_BIT(hi2c->Instance->CR1, I2C_CR1_START);
 80031d6:	68fb      	ldr	r3, [r7, #12]
 80031d8:	681b      	ldr	r3, [r3, #0]
 80031da:	681a      	ldr	r2, [r3, #0]
 80031dc:	68fb      	ldr	r3, [r7, #12]
 80031de:	681b      	ldr	r3, [r3, #0]
 80031e0:	f442 7280 	orr.w	r2, r2, #256	; 0x100
 80031e4:	601a      	str	r2, [r3, #0]

  /* Wait until SB flag is set */
  if (I2C_WaitOnFlagUntilTimeout(hi2c, I2C_FLAG_SB, RESET, Timeout, Tickstart) != HAL_OK)
 80031e6:	6a7b      	ldr	r3, [r7, #36]	; 0x24
 80031e8:	9300      	str	r3, [sp, #0]
 80031ea:	6a3b      	ldr	r3, [r7, #32]
 80031ec:	2200      	movs	r2, #0
 80031ee:	f04f 1101 	mov.w	r1, #65537	; 0x10001
 80031f2:	68f8      	ldr	r0, [r7, #12]
 80031f4:	f000 f8c2 	bl	800337c <I2C_WaitOnFlagUntilTimeout>
 80031f8:	4603      	mov	r3, r0
 80031fa:	2b00      	cmp	r3, #0
 80031fc:	d00d      	beq.n	800321a <I2C_RequestMemoryRead+0x6e>
  {
    if (READ_BIT(hi2c->Instance->CR1, I2C_CR1_START) == I2C_CR1_START)
 80031fe:	68fb      	ldr	r3, [r7, #12]
 8003200:	681b      	ldr	r3, [r3, #0]
 8003202:	681b      	ldr	r3, [r3, #0]
 8003204:	f403 7380 	and.w	r3, r3, #256	; 0x100
 8003208:	f5b3 7f80 	cmp.w	r3, #256	; 0x100
 800320c:	d103      	bne.n	8003216 <I2C_RequestMemoryRead+0x6a>
    {
      hi2c->ErrorCode = HAL_I2C_WRONG_START;
 800320e:	68fb      	ldr	r3, [r7, #12]
 8003210:	f44f 7200 	mov.w	r2, #512	; 0x200
 8003214:	641a      	str	r2, [r3, #64]	; 0x40
    }
    return HAL_TIMEOUT;
 8003216:	2303      	movs	r3, #3
 8003218:	e0aa      	b.n	8003370 <I2C_RequestMemoryRead+0x1c4>
  }

  /* Send slave address */
  hi2c->Instance->DR = I2C_7BIT_ADD_WRITE(DevAddress);
 800321a:	897b      	ldrh	r3, [r7, #10]
 800321c:	b2db      	uxtb	r3, r3
 800321e:	461a      	mov	r2, r3
 8003220:	68fb      	ldr	r3, [r7, #12]
 8003222:	681b      	ldr	r3, [r3, #0]
 8003224:	f002 02fe 	and.w	r2, r2, #254	; 0xfe
 8003228:	611a      	str	r2, [r3, #16]

  /* Wait until ADDR flag is set */
  if (I2C_WaitOnMasterAddressFlagUntilTimeout(hi2c, I2C_FLAG_ADDR, Timeout, Tickstart) != HAL_OK)
 800322a:	6a7b      	ldr	r3, [r7, #36]	; 0x24
 800322c:	6a3a      	ldr	r2, [r7, #32]
 800322e:	4952      	ldr	r1, [pc, #328]	; (8003378 <I2C_RequestMemoryRead+0x1cc>)
 8003230:	68f8      	ldr	r0, [r7, #12]
 8003232:	f000 f8fa 	bl	800342a <I2C_WaitOnMasterAddressFlagUntilTimeout>
 8003236:	4603      	mov	r3, r0
 8003238:	2b00      	cmp	r3, #0
 800323a:	d001      	beq.n	8003240 <I2C_RequestMemoryRead+0x94>
  {
    return HAL_ERROR;
 800323c:	2301      	movs	r3, #1
 800323e:	e097      	b.n	8003370 <I2C_RequestMemoryRead+0x1c4>
  }

  /* Clear ADDR flag */
  __HAL_I2C_CLEAR_ADDRFLAG(hi2c);
 8003240:	2300      	movs	r3, #0
 8003242:	617b      	str	r3, [r7, #20]
 8003244:	68fb      	ldr	r3, [r7, #12]
 8003246:	681b      	ldr	r3, [r3, #0]
 8003248:	695b      	ldr	r3, [r3, #20]
 800324a:	617b      	str	r3, [r7, #20]
 800324c:	68fb      	ldr	r3, [r7, #12]
 800324e:	681b      	ldr	r3, [r3, #0]
 8003250:	699b      	ldr	r3, [r3, #24]
 8003252:	617b      	str	r3, [r7, #20]
 8003254:	697b      	ldr	r3, [r7, #20]

  /* Wait until TXE flag is set */
  if (I2C_WaitOnTXEFlagUntilTimeout(hi2c, Timeout, Tickstart) != HAL_OK)
 8003256:	6a7a      	ldr	r2, [r7, #36]	; 0x24
 8003258:	6a39      	ldr	r1, [r7, #32]
 800325a:	68f8      	ldr	r0, [r7, #12]
 800325c:	f000 f964 	bl	8003528 <I2C_WaitOnTXEFlagUntilTimeout>
 8003260:	4603      	mov	r3, r0
 8003262:	2b00      	cmp	r3, #0
 8003264:	d00d      	beq.n	8003282 <I2C_RequestMemoryRead+0xd6>
  {
    if (hi2c->ErrorCode == HAL_I2C_ERROR_AF)
 8003266:	68fb      	ldr	r3, [r7, #12]
 8003268:	6c1b      	ldr	r3, [r3, #64]	; 0x40
 800326a:	2b04      	cmp	r3, #4
 800326c:	d107      	bne.n	800327e <I2C_RequestMemoryRead+0xd2>
    {
      /* Generate Stop */
      SET_BIT(hi2c->Instance->CR1, I2C_CR1_STOP);
 800326e:	68fb      	ldr	r3, [r7, #12]
 8003270:	681b      	ldr	r3, [r3, #0]
 8003272:	681a      	ldr	r2, [r3, #0]
 8003274:	68fb      	ldr	r3, [r7, #12]
 8003276:	681b      	ldr	r3, [r3, #0]
 8003278:	f442 7200 	orr.w	r2, r2, #512	; 0x200
 800327c:	601a      	str	r2, [r3, #0]
    }
    return HAL_ERROR;
 800327e:	2301      	movs	r3, #1
 8003280:	e076      	b.n	8003370 <I2C_RequestMemoryRead+0x1c4>
  }

  /* If Memory address size is 8Bit */
  if (MemAddSize == I2C_MEMADD_SIZE_8BIT)
 8003282:	88fb      	ldrh	r3, [r7, #6]
 8003284:	2b01      	cmp	r3, #1
 8003286:	d105      	bne.n	8003294 <I2C_RequestMemoryRead+0xe8>
  {
    /* Send Memory Address */
    hi2c->Instance->DR = I2C_MEM_ADD_LSB(MemAddress);
 8003288:	893b      	ldrh	r3, [r7, #8]
 800328a:	b2da      	uxtb	r2, r3
 800328c:	68fb      	ldr	r3, [r7, #12]
 800328e:	681b      	ldr	r3, [r3, #0]
 8003290:	611a      	str	r2, [r3, #16]
 8003292:	e021      	b.n	80032d8 <I2C_RequestMemoryRead+0x12c>
  }
  /* If Memory address size is 16Bit */
  else
  {
    /* Send MSB of Memory Address */
    hi2c->Instance->DR = I2C_MEM_ADD_MSB(MemAddress);
 8003294:	893b      	ldrh	r3, [r7, #8]
 8003296:	0a1b      	lsrs	r3, r3, #8
 8003298:	b29b      	uxth	r3, r3
 800329a:	b2da      	uxtb	r2, r3
 800329c:	68fb      	ldr	r3, [r7, #12]
 800329e:	681b      	ldr	r3, [r3, #0]
 80032a0:	611a      	str	r2, [r3, #16]

    /* Wait until TXE flag is set */
    if (I2C_WaitOnTXEFlagUntilTimeout(hi2c, Timeout, Tickstart) != HAL_OK)
 80032a2:	6a7a      	ldr	r2, [r7, #36]	; 0x24
 80032a4:	6a39      	ldr	r1, [r7, #32]
 80032a6:	68f8      	ldr	r0, [r7, #12]
 80032a8:	f000 f93e 	bl	8003528 <I2C_WaitOnTXEFlagUntilTimeout>
 80032ac:	4603      	mov	r3, r0
 80032ae:	2b00      	cmp	r3, #0
 80032b0:	d00d      	beq.n	80032ce <I2C_RequestMemoryRead+0x122>
    {
      if (hi2c->ErrorCode == HAL_I2C_ERROR_AF)
 80032b2:	68fb      	ldr	r3, [r7, #12]
 80032b4:	6c1b      	ldr	r3, [r3, #64]	; 0x40
 80032b6:	2b04      	cmp	r3, #4
 80032b8:	d107      	bne.n	80032ca <I2C_RequestMemoryRead+0x11e>
      {
        /* Generate Stop */
        SET_BIT(hi2c->Instance->CR1, I2C_CR1_STOP);
 80032ba:	68fb      	ldr	r3, [r7, #12]
 80032bc:	681b      	ldr	r3, [r3, #0]
 80032be:	681a      	ldr	r2, [r3, #0]
 80032c0:	68fb      	ldr	r3, [r7, #12]
 80032c2:	681b      	ldr	r3, [r3, #0]
 80032c4:	f442 7200 	orr.w	r2, r2, #512	; 0x200
 80032c8:	601a      	str	r2, [r3, #0]
      }
      return HAL_ERROR;
 80032ca:	2301      	movs	r3, #1
 80032cc:	e050      	b.n	8003370 <I2C_RequestMemoryRead+0x1c4>
    }

    /* Send LSB of Memory Address */
    hi2c->Instance->DR = I2C_MEM_ADD_LSB(MemAddress);
 80032ce:	893b      	ldrh	r3, [r7, #8]
 80032d0:	b2da      	uxtb	r2, r3
 80032d2:	68fb      	ldr	r3, [r7, #12]
 80032d4:	681b      	ldr	r3, [r3, #0]
 80032d6:	611a      	str	r2, [r3, #16]
  }

  /* Wait until TXE flag is set */
  if (I2C_WaitOnTXEFlagUntilTimeout(hi2c, Timeout, Tickstart) != HAL_OK)
 80032d8:	6a7a      	ldr	r2, [r7, #36]	; 0x24
 80032da:	6a39      	ldr	r1, [r7, #32]
 80032dc:	68f8      	ldr	r0, [r7, #12]
 80032de:	f000 f923 	bl	8003528 <I2C_WaitOnTXEFlagUntilTimeout>
 80032e2:	4603      	mov	r3, r0
 80032e4:	2b00      	cmp	r3, #0
 80032e6:	d00d      	beq.n	8003304 <I2C_RequestMemoryRead+0x158>
  {
    if (hi2c->ErrorCode == HAL_I2C_ERROR_AF)
 80032e8:	68fb      	ldr	r3, [r7, #12]
 80032ea:	6c1b      	ldr	r3, [r3, #64]	; 0x40
 80032ec:	2b04      	cmp	r3, #4
 80032ee:	d107      	bne.n	8003300 <I2C_RequestMemoryRead+0x154>
    {
      /* Generate Stop */
      SET_BIT(hi2c->Instance->CR1, I2C_CR1_STOP);
 80032f0:	68fb      	ldr	r3, [r7, #12]
 80032f2:	681b      	ldr	r3, [r3, #0]
 80032f4:	681a      	ldr	r2, [r3, #0]
 80032f6:	68fb      	ldr	r3, [r7, #12]
 80032f8:	681b      	ldr	r3, [r3, #0]
 80032fa:	f442 7200 	orr.w	r2, r2, #512	; 0x200
 80032fe:	601a      	str	r2, [r3, #0]
    }
    return HAL_ERROR;
 8003300:	2301      	movs	r3, #1
 8003302:	e035      	b.n	8003370 <I2C_RequestMemoryRead+0x1c4>
  }

  /* Generate Restart */
  SET_BIT(hi2c->Instance->CR1, I2C_CR1_START);
 8003304:	68fb      	ldr	r3, [r7, #12]
 8003306:	681b      	ldr	r3, [r3, #0]
 8003308:	681a      	ldr	r2, [r3, #0]
 800330a:	68fb      	ldr	r3, [r7, #12]
 800330c:	681b      	ldr	r3, [r3, #0]
 800330e:	f442 7280 	orr.w	r2, r2, #256	; 0x100
 8003312:	601a      	str	r2, [r3, #0]

  /* Wait until SB flag is set */
  if (I2C_WaitOnFlagUntilTimeout(hi2c, I2C_FLAG_SB, RESET, Timeout, Tickstart) != HAL_OK)
 8003314:	6a7b      	ldr	r3, [r7, #36]	; 0x24
 8003316:	9300      	str	r3, [sp, #0]
 8003318:	6a3b      	ldr	r3, [r7, #32]
 800331a:	2200      	movs	r2, #0
 800331c:	f04f 1101 	mov.w	r1, #65537	; 0x10001
 8003320:	68f8      	ldr	r0, [r7, #12]
 8003322:	f000 f82b 	bl	800337c <I2C_WaitOnFlagUntilTimeout>
 8003326:	4603      	mov	r3, r0
 8003328:	2b00      	cmp	r3, #0
 800332a:	d00d      	beq.n	8003348 <I2C_RequestMemoryRead+0x19c>
  {
    if (READ_BIT(hi2c->Instance->CR1, I2C_CR1_START) == I2C_CR1_START)
 800332c:	68fb      	ldr	r3, [r7, #12]
 800332e:	681b      	ldr	r3, [r3, #0]
 8003330:	681b      	ldr	r3, [r3, #0]
 8003332:	f403 7380 	and.w	r3, r3, #256	; 0x100
 8003336:	f5b3 7f80 	cmp.w	r3, #256	; 0x100
 800333a:	d103      	bne.n	8003344 <I2C_RequestMemoryRead+0x198>
    {
      hi2c->ErrorCode = HAL_I2C_WRONG_START;
 800333c:	68fb      	ldr	r3, [r7, #12]
 800333e:	f44f 7200 	mov.w	r2, #512	; 0x200
 8003342:	641a      	str	r2, [r3, #64]	; 0x40
    }
    return HAL_TIMEOUT;
 8003344:	2303      	movs	r3, #3
 8003346:	e013      	b.n	8003370 <I2C_RequestMemoryRead+0x1c4>
  }

  /* Send slave address */
  hi2c->Instance->DR = I2C_7BIT_ADD_READ(DevAddress);
 8003348:	897b      	ldrh	r3, [r7, #10]
 800334a:	b2db      	uxtb	r3, r3
 800334c:	f043 0301 	orr.w	r3, r3, #1
 8003350:	b2da      	uxtb	r2, r3
 8003352:	68fb      	ldr	r3, [r7, #12]
 8003354:	681b      	ldr	r3, [r3, #0]
 8003356:	611a      	str	r2, [r3, #16]

  /* Wait until ADDR flag is set */
  if (I2C_WaitOnMasterAddressFlagUntilTimeout(hi2c, I2C_FLAG_ADDR, Timeout, Tickstart) != HAL_OK)
 8003358:	6a7b      	ldr	r3, [r7, #36]	; 0x24
 800335a:	6a3a      	ldr	r2, [r7, #32]
 800335c:	4906      	ldr	r1, [pc, #24]	; (8003378 <I2C_RequestMemoryRead+0x1cc>)
 800335e:	68f8      	ldr	r0, [r7, #12]
 8003360:	f000 f863 	bl	800342a <I2C_WaitOnMasterAddressFlagUntilTimeout>
 8003364:	4603      	mov	r3, r0
 8003366:	2b00      	cmp	r3, #0
 8003368:	d001      	beq.n	800336e <I2C_RequestMemoryRead+0x1c2>
  {
    return HAL_ERROR;
 800336a:	2301      	movs	r3, #1
 800336c:	e000      	b.n	8003370 <I2C_RequestMemoryRead+0x1c4>
  }

  return HAL_OK;
 800336e:	2300      	movs	r3, #0
}
 8003370:	4618      	mov	r0, r3
 8003372:	3718      	adds	r7, #24
 8003374:	46bd      	mov	sp, r7
 8003376:	bd80      	pop	{r7, pc}
 8003378:	00010002 	.word	0x00010002

0800337c <I2C_WaitOnFlagUntilTimeout>:
  * @param  Timeout Timeout duration
  * @param  Tickstart Tick start value
  * @retval HAL status
  */
static HAL_StatusTypeDef I2C_WaitOnFlagUntilTimeout(I2C_HandleTypeDef *hi2c, uint32_t Flag, FlagStatus Status, uint32_t Timeout, uint32_t Tickstart)
{
 800337c:	b580      	push	{r7, lr}
 800337e:	b084      	sub	sp, #16
 8003380:	af00      	add	r7, sp, #0
 8003382:	60f8      	str	r0, [r7, #12]
 8003384:	60b9      	str	r1, [r7, #8]
 8003386:	603b      	str	r3, [r7, #0]
 8003388:	4613      	mov	r3, r2
 800338a:	71fb      	strb	r3, [r7, #7]
  /* Wait until flag is set */
  while (__HAL_I2C_GET_FLAG(hi2c, Flag) == Status)
 800338c:	e025      	b.n	80033da <I2C_WaitOnFlagUntilTimeout+0x5e>
  {
    /* Check for the Timeout */
    if (Timeout != HAL_MAX_DELAY)
 800338e:	683b      	ldr	r3, [r7, #0]
 8003390:	f1b3 3fff 	cmp.w	r3, #4294967295
 8003394:	d021      	beq.n	80033da <I2C_WaitOnFlagUntilTimeout+0x5e>
    {
      if (((HAL_GetTick() - Tickstart) > Timeout) || (Timeout == 0U))
 8003396:	f7fe fd55 	bl	8001e44 <HAL_GetTick>
 800339a:	4602      	mov	r2, r0
 800339c:	69bb      	ldr	r3, [r7, #24]
 800339e:	1ad3      	subs	r3, r2, r3
 80033a0:	683a      	ldr	r2, [r7, #0]
 80033a2:	429a      	cmp	r2, r3
 80033a4:	d302      	bcc.n	80033ac <I2C_WaitOnFlagUntilTimeout+0x30>
 80033a6:	683b      	ldr	r3, [r7, #0]
 80033a8:	2b00      	cmp	r3, #0
 80033aa:	d116      	bne.n	80033da <I2C_WaitOnFlagUntilTimeout+0x5e>
      {
        hi2c->PreviousState     = I2C_STATE_NONE;
 80033ac:	68fb      	ldr	r3, [r7, #12]
 80033ae:	2200      	movs	r2, #0
 80033b0:	631a      	str	r2, [r3, #48]	; 0x30
        hi2c->State             = HAL_I2C_STATE_READY;
 80033b2:	68fb      	ldr	r3, [r7, #12]
 80033b4:	2220      	movs	r2, #32
 80033b6:	f883 203d 	strb.w	r2, [r3, #61]	; 0x3d
        hi2c->Mode              = HAL_I2C_MODE_NONE;
 80033ba:	68fb      	ldr	r3, [r7, #12]
 80033bc:	2200      	movs	r2, #0
 80033be:	f883 203e 	strb.w	r2, [r3, #62]	; 0x3e
        hi2c->ErrorCode         |= HAL_I2C_ERROR_TIMEOUT;
 80033c2:	68fb      	ldr	r3, [r7, #12]
 80033c4:	6c1b      	ldr	r3, [r3, #64]	; 0x40
 80033c6:	f043 0220 	orr.w	r2, r3, #32
 80033ca:	68fb      	ldr	r3, [r7, #12]
 80033cc:	641a      	str	r2, [r3, #64]	; 0x40

        /* Process Unlocked */
        __HAL_UNLOCK(hi2c);
 80033ce:	68fb      	ldr	r3, [r7, #12]
 80033d0:	2200      	movs	r2, #0
 80033d2:	f883 203c 	strb.w	r2, [r3, #60]	; 0x3c

        return HAL_ERROR;
 80033d6:	2301      	movs	r3, #1
 80033d8:	e023      	b.n	8003422 <I2C_WaitOnFlagUntilTimeout+0xa6>
  while (__HAL_I2C_GET_FLAG(hi2c, Flag) == Status)
 80033da:	68bb      	ldr	r3, [r7, #8]
 80033dc:	0c1b      	lsrs	r3, r3, #16
 80033de:	b2db      	uxtb	r3, r3
 80033e0:	2b01      	cmp	r3, #1
 80033e2:	d10d      	bne.n	8003400 <I2C_WaitOnFlagUntilTimeout+0x84>
 80033e4:	68fb      	ldr	r3, [r7, #12]
 80033e6:	681b      	ldr	r3, [r3, #0]
 80033e8:	695b      	ldr	r3, [r3, #20]
 80033ea:	43da      	mvns	r2, r3
 80033ec:	68bb      	ldr	r3, [r7, #8]
 80033ee:	4013      	ands	r3, r2
 80033f0:	b29b      	uxth	r3, r3
 80033f2:	2b00      	cmp	r3, #0
 80033f4:	bf0c      	ite	eq
 80033f6:	2301      	moveq	r3, #1
 80033f8:	2300      	movne	r3, #0
 80033fa:	b2db      	uxtb	r3, r3
 80033fc:	461a      	mov	r2, r3
 80033fe:	e00c      	b.n	800341a <I2C_WaitOnFlagUntilTimeout+0x9e>
 8003400:	68fb      	ldr	r3, [r7, #12]
 8003402:	681b      	ldr	r3, [r3, #0]
 8003404:	699b      	ldr	r3, [r3, #24]
 8003406:	43da      	mvns	r2, r3
 8003408:	68bb      	ldr	r3, [r7, #8]
 800340a:	4013      	ands	r3, r2
 800340c:	b29b      	uxth	r3, r3
 800340e:	2b00      	cmp	r3, #0
 8003410:	bf0c      	ite	eq
 8003412:	2301      	moveq	r3, #1
 8003414:	2300      	movne	r3, #0
 8003416:	b2db      	uxtb	r3, r3
 8003418:	461a      	mov	r2, r3
 800341a:	79fb      	ldrb	r3, [r7, #7]
 800341c:	429a      	cmp	r2, r3
 800341e:	d0b6      	beq.n	800338e <I2C_WaitOnFlagUntilTimeout+0x12>
      }
    }
  }
  return HAL_OK;
 8003420:	2300      	movs	r3, #0
}
 8003422:	4618      	mov	r0, r3
 8003424:	3710      	adds	r7, #16
 8003426:	46bd      	mov	sp, r7
 8003428:	bd80      	pop	{r7, pc}

0800342a <I2C_WaitOnMasterAddressFlagUntilTimeout>:
  * @param  Timeout Timeout duration
  * @param  Tickstart Tick start value
  * @retval HAL status
  */
static HAL_StatusTypeDef I2C_WaitOnMasterAddressFlagUntilTimeout(I2C_HandleTypeDef *hi2c, uint32_t Flag, uint32_t Timeout, uint32_t Tickstart)
{
 800342a:	b580      	push	{r7, lr}
 800342c:	b084      	sub	sp, #16
 800342e:	af00      	add	r7, sp, #0
 8003430:	60f8      	str	r0, [r7, #12]
 8003432:	60b9      	str	r1, [r7, #8]
 8003434:	607a      	str	r2, [r7, #4]
 8003436:	603b      	str	r3, [r7, #0]
  while (__HAL_I2C_GET_FLAG(hi2c, Flag) == RESET)
 8003438:	e051      	b.n	80034de <I2C_WaitOnMasterAddressFlagUntilTimeout+0xb4>
  {
    if (__HAL_I2C_GET_FLAG(hi2c, I2C_FLAG_AF) == SET)
 800343a:	68fb      	ldr	r3, [r7, #12]
 800343c:	681b      	ldr	r3, [r3, #0]
 800343e:	695b      	ldr	r3, [r3, #20]
 8003440:	f403 6380 	and.w	r3, r3, #1024	; 0x400
 8003444:	f5b3 6f80 	cmp.w	r3, #1024	; 0x400
 8003448:	d123      	bne.n	8003492 <I2C_WaitOnMasterAddressFlagUntilTimeout+0x68>
    {
      /* Generate Stop */
      SET_BIT(hi2c->Instance->CR1, I2C_CR1_STOP);
 800344a:	68fb      	ldr	r3, [r7, #12]
 800344c:	681b      	ldr	r3, [r3, #0]
 800344e:	681a      	ldr	r2, [r3, #0]
 8003450:	68fb      	ldr	r3, [r7, #12]
 8003452:	681b      	ldr	r3, [r3, #0]
 8003454:	f442 7200 	orr.w	r2, r2, #512	; 0x200
 8003458:	601a      	str	r2, [r3, #0]

      /* Clear AF Flag */
      __HAL_I2C_CLEAR_FLAG(hi2c, I2C_FLAG_AF);
 800345a:	68fb      	ldr	r3, [r7, #12]
 800345c:	681b      	ldr	r3, [r3, #0]
 800345e:	f46f 6280 	mvn.w	r2, #1024	; 0x400
 8003462:	615a      	str	r2, [r3, #20]

      hi2c->PreviousState       = I2C_STATE_NONE;
 8003464:	68fb      	ldr	r3, [r7, #12]
 8003466:	2200      	movs	r2, #0
 8003468:	631a      	str	r2, [r3, #48]	; 0x30
      hi2c->State               = HAL_I2C_STATE_READY;
 800346a:	68fb      	ldr	r3, [r7, #12]
 800346c:	2220      	movs	r2, #32
 800346e:	f883 203d 	strb.w	r2, [r3, #61]	; 0x3d
      hi2c->Mode                = HAL_I2C_MODE_NONE;
 8003472:	68fb      	ldr	r3, [r7, #12]
 8003474:	2200      	movs	r2, #0
 8003476:	f883 203e 	strb.w	r2, [r3, #62]	; 0x3e
      hi2c->ErrorCode           |= HAL_I2C_ERROR_AF;
 800347a:	68fb      	ldr	r3, [r7, #12]
 800347c:	6c1b      	ldr	r3, [r3, #64]	; 0x40
 800347e:	f043 0204 	orr.w	r2, r3, #4
 8003482:	68fb      	ldr	r3, [r7, #12]
 8003484:	641a      	str	r2, [r3, #64]	; 0x40

      /* Process Unlocked */
      __HAL_UNLOCK(hi2c);
 8003486:	68fb      	ldr	r3, [r7, #12]
 8003488:	2200      	movs	r2, #0
 800348a:	f883 203c 	strb.w	r2, [r3, #60]	; 0x3c

      return HAL_ERROR;
 800348e:	2301      	movs	r3, #1
 8003490:	e046      	b.n	8003520 <I2C_WaitOnMasterAddressFlagUntilTimeout+0xf6>
    }

    /* Check for the Timeout */
    if (Timeout != HAL_MAX_DELAY)
 8003492:	687b      	ldr	r3, [r7, #4]
 8003494:	f1b3 3fff 	cmp.w	r3, #4294967295
 8003498:	d021      	beq.n	80034de <I2C_WaitOnMasterAddressFlagUntilTimeout+0xb4>
    {
      if (((HAL_GetTick() - Tickstart) > Timeout) || (Timeout == 0U))
 800349a:	f7fe fcd3 	bl	8001e44 <HAL_GetTick>
 800349e:	4602      	mov	r2, r0
 80034a0:	683b      	ldr	r3, [r7, #0]
 80034a2:	1ad3      	subs	r3, r2, r3
 80034a4:	687a      	ldr	r2, [r7, #4]
 80034a6:	429a      	cmp	r2, r3
 80034a8:	d302      	bcc.n	80034b0 <I2C_WaitOnMasterAddressFlagUntilTimeout+0x86>
 80034aa:	687b      	ldr	r3, [r7, #4]
 80034ac:	2b00      	cmp	r3, #0
 80034ae:	d116      	bne.n	80034de <I2C_WaitOnMasterAddressFlagUntilTimeout+0xb4>
      {
        hi2c->PreviousState       = I2C_STATE_NONE;
 80034b0:	68fb      	ldr	r3, [r7, #12]
 80034b2:	2200      	movs	r2, #0
 80034b4:	631a      	str	r2, [r3, #48]	; 0x30
        hi2c->State               = HAL_I2C_STATE_READY;
 80034b6:	68fb      	ldr	r3, [r7, #12]
 80034b8:	2220      	movs	r2, #32
 80034ba:	f883 203d 	strb.w	r2, [r3, #61]	; 0x3d
        hi2c->Mode                = HAL_I2C_MODE_NONE;
 80034be:	68fb      	ldr	r3, [r7, #12]
 80034c0:	2200      	movs	r2, #0
 80034c2:	f883 203e 	strb.w	r2, [r3, #62]	; 0x3e
        hi2c->ErrorCode           |= HAL_I2C_ERROR_TIMEOUT;
 80034c6:	68fb      	ldr	r3, [r7, #12]
 80034c8:	6c1b      	ldr	r3, [r3, #64]	; 0x40
 80034ca:	f043 0220 	orr.w	r2, r3, #32
 80034ce:	68fb      	ldr	r3, [r7, #12]
 80034d0:	641a      	str	r2, [r3, #64]	; 0x40

        /* Process Unlocked */
        __HAL_UNLOCK(hi2c);
 80034d2:	68fb      	ldr	r3, [r7, #12]
 80034d4:	2200      	movs	r2, #0
 80034d6:	f883 203c 	strb.w	r2, [r3, #60]	; 0x3c

        return HAL_ERROR;
 80034da:	2301      	movs	r3, #1
 80034dc:	e020      	b.n	8003520 <I2C_WaitOnMasterAddressFlagUntilTimeout+0xf6>
  while (__HAL_I2C_GET_FLAG(hi2c, Flag) == RESET)
 80034de:	68bb      	ldr	r3, [r7, #8]
 80034e0:	0c1b      	lsrs	r3, r3, #16
 80034e2:	b2db      	uxtb	r3, r3
 80034e4:	2b01      	cmp	r3, #1
 80034e6:	d10c      	bne.n	8003502 <I2C_WaitOnMasterAddressFlagUntilTimeout+0xd8>
 80034e8:	68fb      	ldr	r3, [r7, #12]
 80034ea:	681b      	ldr	r3, [r3, #0]
 80034ec:	695b      	ldr	r3, [r3, #20]
 80034ee:	43da      	mvns	r2, r3
 80034f0:	68bb      	ldr	r3, [r7, #8]
 80034f2:	4013      	ands	r3, r2
 80034f4:	b29b      	uxth	r3, r3
 80034f6:	2b00      	cmp	r3, #0
 80034f8:	bf14      	ite	ne
 80034fa:	2301      	movne	r3, #1
 80034fc:	2300      	moveq	r3, #0
 80034fe:	b2db      	uxtb	r3, r3
 8003500:	e00b      	b.n	800351a <I2C_WaitOnMasterAddressFlagUntilTimeout+0xf0>
 8003502:	68fb      	ldr	r3, [r7, #12]
 8003504:	681b      	ldr	r3, [r3, #0]
 8003506:	699b      	ldr	r3, [r3, #24]
 8003508:	43da      	mvns	r2, r3
 800350a:	68bb      	ldr	r3, [r7, #8]
 800350c:	4013      	ands	r3, r2
 800350e:	b29b      	uxth	r3, r3
 8003510:	2b00      	cmp	r3, #0
 8003512:	bf14      	ite	ne
 8003514:	2301      	movne	r3, #1
 8003516:	2300      	moveq	r3, #0
 8003518:	b2db      	uxtb	r3, r3
 800351a:	2b00      	cmp	r3, #0
 800351c:	d18d      	bne.n	800343a <I2C_WaitOnMasterAddressFlagUntilTimeout+0x10>
      }
    }
  }
  return HAL_OK;
 800351e:	2300      	movs	r3, #0
}
 8003520:	4618      	mov	r0, r3
 8003522:	3710      	adds	r7, #16
 8003524:	46bd      	mov	sp, r7
 8003526:	bd80      	pop	{r7, pc}

08003528 <I2C_WaitOnTXEFlagUntilTimeout>:
  * @param  Timeout Timeout duration
  * @param  Tickstart Tick start value
  * @retval HAL status
  */
static HAL_StatusTypeDef I2C_WaitOnTXEFlagUntilTimeout(I2C_HandleTypeDef *hi2c, uint32_t Timeout, uint32_t Tickstart)
{
 8003528:	b580      	push	{r7, lr}
 800352a:	b084      	sub	sp, #16
 800352c:	af00      	add	r7, sp, #0
 800352e:	60f8      	str	r0, [r7, #12]
 8003530:	60b9      	str	r1, [r7, #8]
 8003532:	607a      	str	r2, [r7, #4]
  while (__HAL_I2C_GET_FLAG(hi2c, I2C_FLAG_TXE) == RESET)
 8003534:	e02d      	b.n	8003592 <I2C_WaitOnTXEFlagUntilTimeout+0x6a>
  {
    /* Check if a NACK is detected */
    if (I2C_IsAcknowledgeFailed(hi2c) != HAL_OK)
 8003536:	68f8      	ldr	r0, [r7, #12]
 8003538:	f000 f8ce 	bl	80036d8 <I2C_IsAcknowledgeFailed>
 800353c:	4603      	mov	r3, r0
 800353e:	2b00      	cmp	r3, #0
 8003540:	d001      	beq.n	8003546 <I2C_WaitOnTXEFlagUntilTimeout+0x1e>
    {
      return HAL_ERROR;
 8003542:	2301      	movs	r3, #1
 8003544:	e02d      	b.n	80035a2 <I2C_WaitOnTXEFlagUntilTimeout+0x7a>
    }

    /* Check for the Timeout */
    if (Timeout != HAL_MAX_DELAY)
 8003546:	68bb      	ldr	r3, [r7, #8]
 8003548:	f1b3 3fff 	cmp.w	r3, #4294967295
 800354c:	d021      	beq.n	8003592 <I2C_WaitOnTXEFlagUntilTimeout+0x6a>
    {
      if (((HAL_GetTick() - Tickstart) > Timeout) || (Timeout == 0U))
 800354e:	f7fe fc79 	bl	8001e44 <HAL_GetTick>
 8003552:	4602      	mov	r2, r0
 8003554:	687b      	ldr	r3, [r7, #4]
 8003556:	1ad3      	subs	r3, r2, r3
 8003558:	68ba      	ldr	r2, [r7, #8]
 800355a:	429a      	cmp	r2, r3
 800355c:	d302      	bcc.n	8003564 <I2C_WaitOnTXEFlagUntilTimeout+0x3c>
 800355e:	68bb      	ldr	r3, [r7, #8]
 8003560:	2b00      	cmp	r3, #0
 8003562:	d116      	bne.n	8003592 <I2C_WaitOnTXEFlagUntilTimeout+0x6a>
      {
        hi2c->PreviousState       = I2C_STATE_NONE;
 8003564:	68fb      	ldr	r3, [r7, #12]
 8003566:	2200      	movs	r2, #0
 8003568:	631a      	str	r2, [r3, #48]	; 0x30
        hi2c->State               = HAL_I2C_STATE_READY;
 800356a:	68fb      	ldr	r3, [r7, #12]
 800356c:	2220      	movs	r2, #32
 800356e:	f883 203d 	strb.w	r2, [r3, #61]	; 0x3d
        hi2c->Mode                = HAL_I2C_MODE_NONE;
 8003572:	68fb      	ldr	r3, [r7, #12]
 8003574:	2200      	movs	r2, #0
 8003576:	f883 203e 	strb.w	r2, [r3, #62]	; 0x3e
        hi2c->ErrorCode           |= HAL_I2C_ERROR_TIMEOUT;
 800357a:	68fb      	ldr	r3, [r7, #12]
 800357c:	6c1b      	ldr	r3, [r3, #64]	; 0x40
 800357e:	f043 0220 	orr.w	r2, r3, #32
 8003582:	68fb      	ldr	r3, [r7, #12]
 8003584:	641a      	str	r2, [r3, #64]	; 0x40

        /* Process Unlocked */
        __HAL_UNLOCK(hi2c);
 8003586:	68fb      	ldr	r3, [r7, #12]
 8003588:	2200      	movs	r2, #0
 800358a:	f883 203c 	strb.w	r2, [r3, #60]	; 0x3c

        return HAL_ERROR;
 800358e:	2301      	movs	r3, #1
 8003590:	e007      	b.n	80035a2 <I2C_WaitOnTXEFlagUntilTimeout+0x7a>
  while (__HAL_I2C_GET_FLAG(hi2c, I2C_FLAG_TXE) == RESET)
 8003592:	68fb      	ldr	r3, [r7, #12]
 8003594:	681b      	ldr	r3, [r3, #0]
 8003596:	695b      	ldr	r3, [r3, #20]
 8003598:	f003 0380 	and.w	r3, r3, #128	; 0x80
 800359c:	2b80      	cmp	r3, #128	; 0x80
 800359e:	d1ca      	bne.n	8003536 <I2C_WaitOnTXEFlagUntilTimeout+0xe>
      }
    }
  }
  return HAL_OK;
 80035a0:	2300      	movs	r3, #0
}
 80035a2:	4618      	mov	r0, r3
 80035a4:	3710      	adds	r7, #16
 80035a6:	46bd      	mov	sp, r7
 80035a8:	bd80      	pop	{r7, pc}

080035aa <I2C_WaitOnBTFFlagUntilTimeout>:
  * @param  Timeout Timeout duration
  * @param  Tickstart Tick start value
  * @retval HAL status
  */
static HAL_StatusTypeDef I2C_WaitOnBTFFlagUntilTimeout(I2C_HandleTypeDef *hi2c, uint32_t Timeout, uint32_t Tickstart)
{
 80035aa:	b580      	push	{r7, lr}
 80035ac:	b084      	sub	sp, #16
 80035ae:	af00      	add	r7, sp, #0
 80035b0:	60f8      	str	r0, [r7, #12]
 80035b2:	60b9      	str	r1, [r7, #8]
 80035b4:	607a      	str	r2, [r7, #4]
  while (__HAL_I2C_GET_FLAG(hi2c, I2C_FLAG_BTF) == RESET)
 80035b6:	e02d      	b.n	8003614 <I2C_WaitOnBTFFlagUntilTimeout+0x6a>
  {
    /* Check if a NACK is detected */
    if (I2C_IsAcknowledgeFailed(hi2c) != HAL_OK)
 80035b8:	68f8      	ldr	r0, [r7, #12]
 80035ba:	f000 f88d 	bl	80036d8 <I2C_IsAcknowledgeFailed>
 80035be:	4603      	mov	r3, r0
 80035c0:	2b00      	cmp	r3, #0
 80035c2:	d001      	beq.n	80035c8 <I2C_WaitOnBTFFlagUntilTimeout+0x1e>
    {
      return HAL_ERROR;
 80035c4:	2301      	movs	r3, #1
 80035c6:	e02d      	b.n	8003624 <I2C_WaitOnBTFFlagUntilTimeout+0x7a>
    }

    /* Check for the Timeout */
    if (Timeout != HAL_MAX_DELAY)
 80035c8:	68bb      	ldr	r3, [r7, #8]
 80035ca:	f1b3 3fff 	cmp.w	r3, #4294967295
 80035ce:	d021      	beq.n	8003614 <I2C_WaitOnBTFFlagUntilTimeout+0x6a>
    {
      if (((HAL_GetTick() - Tickstart) > Timeout) || (Timeout == 0U))
 80035d0:	f7fe fc38 	bl	8001e44 <HAL_GetTick>
 80035d4:	4602      	mov	r2, r0
 80035d6:	687b      	ldr	r3, [r7, #4]
 80035d8:	1ad3      	subs	r3, r2, r3
 80035da:	68ba      	ldr	r2, [r7, #8]
 80035dc:	429a      	cmp	r2, r3
 80035de:	d302      	bcc.n	80035e6 <I2C_WaitOnBTFFlagUntilTimeout+0x3c>
 80035e0:	68bb      	ldr	r3, [r7, #8]
 80035e2:	2b00      	cmp	r3, #0
 80035e4:	d116      	bne.n	8003614 <I2C_WaitOnBTFFlagUntilTimeout+0x6a>
      {
        hi2c->PreviousState       = I2C_STATE_NONE;
 80035e6:	68fb      	ldr	r3, [r7, #12]
 80035e8:	2200      	movs	r2, #0
 80035ea:	631a      	str	r2, [r3, #48]	; 0x30
        hi2c->State               = HAL_I2C_STATE_READY;
 80035ec:	68fb      	ldr	r3, [r7, #12]
 80035ee:	2220      	movs	r2, #32
 80035f0:	f883 203d 	strb.w	r2, [r3, #61]	; 0x3d
        hi2c->Mode                = HAL_I2C_MODE_NONE;
 80035f4:	68fb      	ldr	r3, [r7, #12]
 80035f6:	2200      	movs	r2, #0
 80035f8:	f883 203e 	strb.w	r2, [r3, #62]	; 0x3e
        hi2c->ErrorCode           |= HAL_I2C_ERROR_TIMEOUT;
 80035fc:	68fb      	ldr	r3, [r7, #12]
 80035fe:	6c1b      	ldr	r3, [r3, #64]	; 0x40
 8003600:	f043 0220 	orr.w	r2, r3, #32
 8003604:	68fb      	ldr	r3, [r7, #12]
 8003606:	641a      	str	r2, [r3, #64]	; 0x40

        /* Process Unlocked */
        __HAL_UNLOCK(hi2c);
 8003608:	68fb      	ldr	r3, [r7, #12]
 800360a:	2200      	movs	r2, #0
 800360c:	f883 203c 	strb.w	r2, [r3, #60]	; 0x3c

        return HAL_ERROR;
 8003610:	2301      	movs	r3, #1
 8003612:	e007      	b.n	8003624 <I2C_WaitOnBTFFlagUntilTimeout+0x7a>
  while (__HAL_I2C_GET_FLAG(hi2c, I2C_FLAG_BTF) == RESET)
 8003614:	68fb      	ldr	r3, [r7, #12]
 8003616:	681b      	ldr	r3, [r3, #0]
 8003618:	695b      	ldr	r3, [r3, #20]
 800361a:	f003 0304 	and.w	r3, r3, #4
 800361e:	2b04      	cmp	r3, #4
 8003620:	d1ca      	bne.n	80035b8 <I2C_WaitOnBTFFlagUntilTimeout+0xe>
      }
    }
  }
  return HAL_OK;
 8003622:	2300      	movs	r3, #0
}
 8003624:	4618      	mov	r0, r3
 8003626:	3710      	adds	r7, #16
 8003628:	46bd      	mov	sp, r7
 800362a:	bd80      	pop	{r7, pc}

0800362c <I2C_WaitOnRXNEFlagUntilTimeout>:
  * @param  Timeout Timeout duration
  * @param  Tickstart Tick start value
  * @retval HAL status
  */
static HAL_StatusTypeDef I2C_WaitOnRXNEFlagUntilTimeout(I2C_HandleTypeDef *hi2c, uint32_t Timeout, uint32_t Tickstart)
{
 800362c:	b580      	push	{r7, lr}
 800362e:	b084      	sub	sp, #16
 8003630:	af00      	add	r7, sp, #0
 8003632:	60f8      	str	r0, [r7, #12]
 8003634:	60b9      	str	r1, [r7, #8]
 8003636:	607a      	str	r2, [r7, #4]

  while (__HAL_I2C_GET_FLAG(hi2c, I2C_FLAG_RXNE) == RESET)
 8003638:	e042      	b.n	80036c0 <I2C_WaitOnRXNEFlagUntilTimeout+0x94>
  {
    /* Check if a STOPF is detected */
    if (__HAL_I2C_GET_FLAG(hi2c, I2C_FLAG_STOPF) == SET)
 800363a:	68fb      	ldr	r3, [r7, #12]
 800363c:	681b      	ldr	r3, [r3, #0]
 800363e:	695b      	ldr	r3, [r3, #20]
 8003640:	f003 0310 	and.w	r3, r3, #16
 8003644:	2b10      	cmp	r3, #16
 8003646:	d119      	bne.n	800367c <I2C_WaitOnRXNEFlagUntilTimeout+0x50>
    {
      /* Clear STOP Flag */
      __HAL_I2C_CLEAR_FLAG(hi2c, I2C_FLAG_STOPF);
 8003648:	68fb      	ldr	r3, [r7, #12]
 800364a:	681b      	ldr	r3, [r3, #0]
 800364c:	f06f 0210 	mvn.w	r2, #16
 8003650:	615a      	str	r2, [r3, #20]

      hi2c->PreviousState       = I2C_STATE_NONE;
 8003652:	68fb      	ldr	r3, [r7, #12]
 8003654:	2200      	movs	r2, #0
 8003656:	631a      	str	r2, [r3, #48]	; 0x30
      hi2c->State               = HAL_I2C_STATE_READY;
 8003658:	68fb      	ldr	r3, [r7, #12]
 800365a:	2220      	movs	r2, #32
 800365c:	f883 203d 	strb.w	r2, [r3, #61]	; 0x3d
      hi2c->Mode                = HAL_I2C_MODE_NONE;
 8003660:	68fb      	ldr	r3, [r7, #12]
 8003662:	2200      	movs	r2, #0
 8003664:	f883 203e 	strb.w	r2, [r3, #62]	; 0x3e
      hi2c->ErrorCode           |= HAL_I2C_ERROR_NONE;
 8003668:	68fb      	ldr	r3, [r7, #12]
 800366a:	6c1a      	ldr	r2, [r3, #64]	; 0x40
 800366c:	68fb      	ldr	r3, [r7, #12]
 800366e:	641a      	str	r2, [r3, #64]	; 0x40

      /* Process Unlocked */
      __HAL_UNLOCK(hi2c);
 8003670:	68fb      	ldr	r3, [r7, #12]
 8003672:	2200      	movs	r2, #0
 8003674:	f883 203c 	strb.w	r2, [r3, #60]	; 0x3c

      return HAL_ERROR;
 8003678:	2301      	movs	r3, #1
 800367a:	e029      	b.n	80036d0 <I2C_WaitOnRXNEFlagUntilTimeout+0xa4>
    }

    /* Check for the Timeout */
    if (((HAL_GetTick() - Tickstart) > Timeout) || (Timeout == 0U))
 800367c:	f7fe fbe2 	bl	8001e44 <HAL_GetTick>
 8003680:	4602      	mov	r2, r0
 8003682:	687b      	ldr	r3, [r7, #4]
 8003684:	1ad3      	subs	r3, r2, r3
 8003686:	68ba      	ldr	r2, [r7, #8]
 8003688:	429a      	cmp	r2, r3
 800368a:	d302      	bcc.n	8003692 <I2C_WaitOnRXNEFlagUntilTimeout+0x66>
 800368c:	68bb      	ldr	r3, [r7, #8]
 800368e:	2b00      	cmp	r3, #0
 8003690:	d116      	bne.n	80036c0 <I2C_WaitOnRXNEFlagUntilTimeout+0x94>
    {
      hi2c->PreviousState       = I2C_STATE_NONE;
 8003692:	68fb      	ldr	r3, [r7, #12]
 8003694:	2200      	movs	r2, #0
 8003696:	631a      	str	r2, [r3, #48]	; 0x30
      hi2c->State               = HAL_I2C_STATE_READY;
 8003698:	68fb      	ldr	r3, [r7, #12]
 800369a:	2220      	movs	r2, #32
 800369c:	f883 203d 	strb.w	r2, [r3, #61]	; 0x3d
      hi2c->Mode                = HAL_I2C_MODE_NONE;
 80036a0:	68fb      	ldr	r3, [r7, #12]
 80036a2:	2200      	movs	r2, #0
 80036a4:	f883 203e 	strb.w	r2, [r3, #62]	; 0x3e
      hi2c->ErrorCode           |= HAL_I2C_ERROR_TIMEOUT;
 80036a8:	68fb      	ldr	r3, [r7, #12]
 80036aa:	6c1b      	ldr	r3, [r3, #64]	; 0x40
 80036ac:	f043 0220 	orr.w	r2, r3, #32
 80036b0:	68fb      	ldr	r3, [r7, #12]
 80036b2:	641a      	str	r2, [r3, #64]	; 0x40

      /* Process Unlocked */
      __HAL_UNLOCK(hi2c);
 80036b4:	68fb      	ldr	r3, [r7, #12]
 80036b6:	2200      	movs	r2, #0
 80036b8:	f883 203c 	strb.w	r2, [r3, #60]	; 0x3c

      return HAL_ERROR;
 80036bc:	2301      	movs	r3, #1
 80036be:	e007      	b.n	80036d0 <I2C_WaitOnRXNEFlagUntilTimeout+0xa4>
  while (__HAL_I2C_GET_FLAG(hi2c, I2C_FLAG_RXNE) == RESET)
 80036c0:	68fb      	ldr	r3, [r7, #12]
 80036c2:	681b      	ldr	r3, [r3, #0]
 80036c4:	695b      	ldr	r3, [r3, #20]
 80036c6:	f003 0340 	and.w	r3, r3, #64	; 0x40
 80036ca:	2b40      	cmp	r3, #64	; 0x40
 80036cc:	d1b5      	bne.n	800363a <I2C_WaitOnRXNEFlagUntilTimeout+0xe>
    }
  }
  return HAL_OK;
 80036ce:	2300      	movs	r3, #0
}
 80036d0:	4618      	mov	r0, r3
 80036d2:	3710      	adds	r7, #16
 80036d4:	46bd      	mov	sp, r7
 80036d6:	bd80      	pop	{r7, pc}

080036d8 <I2C_IsAcknowledgeFailed>:
  * @param  hi2c Pointer to a I2C_HandleTypeDef structure that contains
  *                the configuration information for the specified I2C.
  * @retval HAL status
  */
static HAL_StatusTypeDef I2C_IsAcknowledgeFailed(I2C_HandleTypeDef *hi2c)
{
 80036d8:	b480      	push	{r7}
 80036da:	b083      	sub	sp, #12
 80036dc:	af00      	add	r7, sp, #0
 80036de:	6078      	str	r0, [r7, #4]
  if (__HAL_I2C_GET_FLAG(hi2c, I2C_FLAG_AF) == SET)
 80036e0:	687b      	ldr	r3, [r7, #4]
 80036e2:	681b      	ldr	r3, [r3, #0]
 80036e4:	695b      	ldr	r3, [r3, #20]
 80036e6:	f403 6380 	and.w	r3, r3, #1024	; 0x400
 80036ea:	f5b3 6f80 	cmp.w	r3, #1024	; 0x400
 80036ee:	d11b      	bne.n	8003728 <I2C_IsAcknowledgeFailed+0x50>
  {
    /* Clear NACKF Flag */
    __HAL_I2C_CLEAR_FLAG(hi2c, I2C_FLAG_AF);
 80036f0:	687b      	ldr	r3, [r7, #4]
 80036f2:	681b      	ldr	r3, [r3, #0]
 80036f4:	f46f 6280 	mvn.w	r2, #1024	; 0x400
 80036f8:	615a      	str	r2, [r3, #20]

    hi2c->PreviousState       = I2C_STATE_NONE;
 80036fa:	687b      	ldr	r3, [r7, #4]
 80036fc:	2200      	movs	r2, #0
 80036fe:	631a      	str	r2, [r3, #48]	; 0x30
    hi2c->State               = HAL_I2C_STATE_READY;
 8003700:	687b      	ldr	r3, [r7, #4]
 8003702:	2220      	movs	r2, #32
 8003704:	f883 203d 	strb.w	r2, [r3, #61]	; 0x3d
    hi2c->Mode                = HAL_I2C_MODE_NONE;
 8003708:	687b      	ldr	r3, [r7, #4]
 800370a:	2200      	movs	r2, #0
 800370c:	f883 203e 	strb.w	r2, [r3, #62]	; 0x3e
    hi2c->ErrorCode           |= HAL_I2C_ERROR_AF;
 8003710:	687b      	ldr	r3, [r7, #4]
 8003712:	6c1b      	ldr	r3, [r3, #64]	; 0x40
 8003714:	f043 0204 	orr.w	r2, r3, #4
 8003718:	687b      	ldr	r3, [r7, #4]
 800371a:	641a      	str	r2, [r3, #64]	; 0x40

    /* Process Unlocked */
    __HAL_UNLOCK(hi2c);
 800371c:	687b      	ldr	r3, [r7, #4]
 800371e:	2200      	movs	r2, #0
 8003720:	f883 203c 	strb.w	r2, [r3, #60]	; 0x3c

    return HAL_ERROR;
 8003724:	2301      	movs	r3, #1
 8003726:	e000      	b.n	800372a <I2C_IsAcknowledgeFailed+0x52>
  }
  return HAL_OK;
 8003728:	2300      	movs	r3, #0
}
 800372a:	4618      	mov	r0, r3
 800372c:	370c      	adds	r7, #12
 800372e:	46bd      	mov	sp, r7
 8003730:	f85d 7b04 	ldr.w	r7, [sp], #4
 8003734:	4770      	bx	lr
	...

08003738 <HAL_RCC_ClockConfig>:
  *         HPRE[3:0] bits to ensure that HCLK not exceed the maximum allowed frequency
  *         (for more details refer to section above "Initialization/de-initialization functions")
  * @retval None
  */
HAL_StatusTypeDef HAL_RCC_ClockConfig(RCC_ClkInitTypeDef  *RCC_ClkInitStruct, uint32_t FLatency)
{
 8003738:	b580      	push	{r7, lr}
 800373a:	b084      	sub	sp, #16
 800373c:	af00      	add	r7, sp, #0
 800373e:	6078      	str	r0, [r7, #4]
 8003740:	6039      	str	r1, [r7, #0]
  uint32_t tickstart;

  /* Check Null pointer */
  if(RCC_ClkInitStruct == NULL)
 8003742:	687b      	ldr	r3, [r7, #4]
 8003744:	2b00      	cmp	r3, #0
 8003746:	d101      	bne.n	800374c <HAL_RCC_ClockConfig+0x14>
  {
    return HAL_ERROR;
 8003748:	2301      	movs	r3, #1
 800374a:	e0cc      	b.n	80038e6 <HAL_RCC_ClockConfig+0x1ae>
  /* To correctly read data from FLASH memory, the number of wait states (LATENCY)
    must be correctly programmed according to the frequency of the CPU clock
    (HCLK) and the supply voltage of the device. */

  /* Increasing the number of wait states because of higher CPU frequency */
  if(FLatency > __HAL_FLASH_GET_LATENCY())
 800374c:	4b68      	ldr	r3, [pc, #416]	; (80038f0 <HAL_RCC_ClockConfig+0x1b8>)
 800374e:	681b      	ldr	r3, [r3, #0]
 8003750:	f003 030f 	and.w	r3, r3, #15
 8003754:	683a      	ldr	r2, [r7, #0]
 8003756:	429a      	cmp	r2, r3
 8003758:	d90c      	bls.n	8003774 <HAL_RCC_ClockConfig+0x3c>
  {
    /* Program the new number of wait states to the LATENCY bits in the FLASH_ACR register */
    __HAL_FLASH_SET_LATENCY(FLatency);
 800375a:	4b65      	ldr	r3, [pc, #404]	; (80038f0 <HAL_RCC_ClockConfig+0x1b8>)
 800375c:	683a      	ldr	r2, [r7, #0]
 800375e:	b2d2      	uxtb	r2, r2
 8003760:	701a      	strb	r2, [r3, #0]

    /* Check that the new number of wait states is taken into account to access the Flash
    memory by reading the FLASH_ACR register */
    if(__HAL_FLASH_GET_LATENCY() != FLatency)
 8003762:	4b63      	ldr	r3, [pc, #396]	; (80038f0 <HAL_RCC_ClockConfig+0x1b8>)
 8003764:	681b      	ldr	r3, [r3, #0]
 8003766:	f003 030f 	and.w	r3, r3, #15
 800376a:	683a      	ldr	r2, [r7, #0]
 800376c:	429a      	cmp	r2, r3
 800376e:	d001      	beq.n	8003774 <HAL_RCC_ClockConfig+0x3c>
    {
      return HAL_ERROR;
 8003770:	2301      	movs	r3, #1
 8003772:	e0b8      	b.n	80038e6 <HAL_RCC_ClockConfig+0x1ae>
    }
  }

  /*-------------------------- HCLK Configuration --------------------------*/
  if(((RCC_ClkInitStruct->ClockType) & RCC_CLOCKTYPE_HCLK) == RCC_CLOCKTYPE_HCLK)
 8003774:	687b      	ldr	r3, [r7, #4]
 8003776:	681b      	ldr	r3, [r3, #0]
 8003778:	f003 0302 	and.w	r3, r3, #2
 800377c:	2b00      	cmp	r3, #0
 800377e:	d020      	beq.n	80037c2 <HAL_RCC_ClockConfig+0x8a>
  {
    /* Set the highest APBx dividers in order to ensure that we do not go through
       a non-spec phase whatever we decrease or increase HCLK. */
    if(((RCC_ClkInitStruct->ClockType) & RCC_CLOCKTYPE_PCLK1) == RCC_CLOCKTYPE_PCLK1)
 8003780:	687b      	ldr	r3, [r7, #4]
 8003782:	681b      	ldr	r3, [r3, #0]
 8003784:	f003 0304 	and.w	r3, r3, #4
 8003788:	2b00      	cmp	r3, #0
 800378a:	d005      	beq.n	8003798 <HAL_RCC_ClockConfig+0x60>
    {
      MODIFY_REG(RCC->CFGR, RCC_CFGR_PPRE1, RCC_HCLK_DIV16);
 800378c:	4b59      	ldr	r3, [pc, #356]	; (80038f4 <HAL_RCC_ClockConfig+0x1bc>)
 800378e:	689b      	ldr	r3, [r3, #8]
 8003790:	4a58      	ldr	r2, [pc, #352]	; (80038f4 <HAL_RCC_ClockConfig+0x1bc>)
 8003792:	f443 53e0 	orr.w	r3, r3, #7168	; 0x1c00
 8003796:	6093      	str	r3, [r2, #8]
    }

    if(((RCC_ClkInitStruct->ClockType) & RCC_CLOCKTYPE_PCLK2) == RCC_CLOCKTYPE_PCLK2)
 8003798:	687b      	ldr	r3, [r7, #4]
 800379a:	681b      	ldr	r3, [r3, #0]
 800379c:	f003 0308 	and.w	r3, r3, #8
 80037a0:	2b00      	cmp	r3, #0
 80037a2:	d005      	beq.n	80037b0 <HAL_RCC_ClockConfig+0x78>
    {
      MODIFY_REG(RCC->CFGR, RCC_CFGR_PPRE2, (RCC_HCLK_DIV16 << 3));
 80037a4:	4b53      	ldr	r3, [pc, #332]	; (80038f4 <HAL_RCC_ClockConfig+0x1bc>)
 80037a6:	689b      	ldr	r3, [r3, #8]
 80037a8:	4a52      	ldr	r2, [pc, #328]	; (80038f4 <HAL_RCC_ClockConfig+0x1bc>)
 80037aa:	f443 4360 	orr.w	r3, r3, #57344	; 0xe000
 80037ae:	6093      	str	r3, [r2, #8]
    }

    assert_param(IS_RCC_HCLK(RCC_ClkInitStruct->AHBCLKDivider));
    MODIFY_REG(RCC->CFGR, RCC_CFGR_HPRE, RCC_ClkInitStruct->AHBCLKDivider);
 80037b0:	4b50      	ldr	r3, [pc, #320]	; (80038f4 <HAL_RCC_ClockConfig+0x1bc>)
 80037b2:	689b      	ldr	r3, [r3, #8]
 80037b4:	f023 02f0 	bic.w	r2, r3, #240	; 0xf0
 80037b8:	687b      	ldr	r3, [r7, #4]
 80037ba:	689b      	ldr	r3, [r3, #8]
 80037bc:	494d      	ldr	r1, [pc, #308]	; (80038f4 <HAL_RCC_ClockConfig+0x1bc>)
 80037be:	4313      	orrs	r3, r2
 80037c0:	608b      	str	r3, [r1, #8]
  }

  /*------------------------- SYSCLK Configuration ---------------------------*/
  if(((RCC_ClkInitStruct->ClockType) & RCC_CLOCKTYPE_SYSCLK) == RCC_CLOCKTYPE_SYSCLK)
 80037c2:	687b      	ldr	r3, [r7, #4]
 80037c4:	681b      	ldr	r3, [r3, #0]
 80037c6:	f003 0301 	and.w	r3, r3, #1
 80037ca:	2b00      	cmp	r3, #0
 80037cc:	d044      	beq.n	8003858 <HAL_RCC_ClockConfig+0x120>
  {
    assert_param(IS_RCC_SYSCLKSOURCE(RCC_ClkInitStruct->SYSCLKSource));

    /* HSE is selected as System Clock Source */
    if(RCC_ClkInitStruct->SYSCLKSource == RCC_SYSCLKSOURCE_HSE)
 80037ce:	687b      	ldr	r3, [r7, #4]
 80037d0:	685b      	ldr	r3, [r3, #4]
 80037d2:	2b01      	cmp	r3, #1
 80037d4:	d107      	bne.n	80037e6 <HAL_RCC_ClockConfig+0xae>
    {
      /* Check the HSE ready flag */
      if(__HAL_RCC_GET_FLAG(RCC_FLAG_HSERDY) == RESET)
 80037d6:	4b47      	ldr	r3, [pc, #284]	; (80038f4 <HAL_RCC_ClockConfig+0x1bc>)
 80037d8:	681b      	ldr	r3, [r3, #0]
 80037da:	f403 3300 	and.w	r3, r3, #131072	; 0x20000
 80037de:	2b00      	cmp	r3, #0
 80037e0:	d119      	bne.n	8003816 <HAL_RCC_ClockConfig+0xde>
      {
        return HAL_ERROR;
 80037e2:	2301      	movs	r3, #1
 80037e4:	e07f      	b.n	80038e6 <HAL_RCC_ClockConfig+0x1ae>
      }
    }
    /* PLL is selected as System Clock Source */
    else if((RCC_ClkInitStruct->SYSCLKSource == RCC_SYSCLKSOURCE_PLLCLK)   ||
 80037e6:	687b      	ldr	r3, [r7, #4]
 80037e8:	685b      	ldr	r3, [r3, #4]
 80037ea:	2b02      	cmp	r3, #2
 80037ec:	d003      	beq.n	80037f6 <HAL_RCC_ClockConfig+0xbe>
            (RCC_ClkInitStruct->SYSCLKSource == RCC_SYSCLKSOURCE_PLLRCLK))
 80037ee:	687b      	ldr	r3, [r7, #4]
 80037f0:	685b      	ldr	r3, [r3, #4]
    else if((RCC_ClkInitStruct->SYSCLKSource == RCC_SYSCLKSOURCE_PLLCLK)   ||
 80037f2:	2b03      	cmp	r3, #3
 80037f4:	d107      	bne.n	8003806 <HAL_RCC_ClockConfig+0xce>
    {
      /* Check the PLL ready flag */
      if(__HAL_RCC_GET_FLAG(RCC_FLAG_PLLRDY) == RESET)
 80037f6:	4b3f      	ldr	r3, [pc, #252]	; (80038f4 <HAL_RCC_ClockConfig+0x1bc>)
 80037f8:	681b      	ldr	r3, [r3, #0]
 80037fa:	f003 7300 	and.w	r3, r3, #33554432	; 0x2000000
 80037fe:	2b00      	cmp	r3, #0
 8003800:	d109      	bne.n	8003816 <HAL_RCC_ClockConfig+0xde>
      {
        return HAL_ERROR;
 8003802:	2301      	movs	r3, #1
 8003804:	e06f      	b.n	80038e6 <HAL_RCC_ClockConfig+0x1ae>
    }
    /* HSI is selected as System Clock Source */
    else
    {
      /* Check the HSI ready flag */
      if(__HAL_RCC_GET_FLAG(RCC_FLAG_HSIRDY) == RESET)
 8003806:	4b3b      	ldr	r3, [pc, #236]	; (80038f4 <HAL_RCC_ClockConfig+0x1bc>)
 8003808:	681b      	ldr	r3, [r3, #0]
 800380a:	f003 0302 	and.w	r3, r3, #2
 800380e:	2b00      	cmp	r3, #0
 8003810:	d101      	bne.n	8003816 <HAL_RCC_ClockConfig+0xde>
      {
        return HAL_ERROR;
 8003812:	2301      	movs	r3, #1
 8003814:	e067      	b.n	80038e6 <HAL_RCC_ClockConfig+0x1ae>
      }
    }

    __HAL_RCC_SYSCLK_CONFIG(RCC_ClkInitStruct->SYSCLKSource);
 8003816:	4b37      	ldr	r3, [pc, #220]	; (80038f4 <HAL_RCC_ClockConfig+0x1bc>)
 8003818:	689b      	ldr	r3, [r3, #8]
 800381a:	f023 0203 	bic.w	r2, r3, #3
 800381e:	687b      	ldr	r3, [r7, #4]
 8003820:	685b      	ldr	r3, [r3, #4]
 8003822:	4934      	ldr	r1, [pc, #208]	; (80038f4 <HAL_RCC_ClockConfig+0x1bc>)
 8003824:	4313      	orrs	r3, r2
 8003826:	608b      	str	r3, [r1, #8]

    /* Get Start Tick */
    tickstart = HAL_GetTick();
 8003828:	f7fe fb0c 	bl	8001e44 <HAL_GetTick>
 800382c:	60f8      	str	r0, [r7, #12]

    while (__HAL_RCC_GET_SYSCLK_SOURCE() != (RCC_ClkInitStruct->SYSCLKSource << RCC_CFGR_SWS_Pos))
 800382e:	e00a      	b.n	8003846 <HAL_RCC_ClockConfig+0x10e>
    {
      if ((HAL_GetTick() - tickstart) > CLOCKSWITCH_TIMEOUT_VALUE)
 8003830:	f7fe fb08 	bl	8001e44 <HAL_GetTick>
 8003834:	4602      	mov	r2, r0
 8003836:	68fb      	ldr	r3, [r7, #12]
 8003838:	1ad3      	subs	r3, r2, r3
 800383a:	f241 3288 	movw	r2, #5000	; 0x1388
 800383e:	4293      	cmp	r3, r2
 8003840:	d901      	bls.n	8003846 <HAL_RCC_ClockConfig+0x10e>
      {
        return HAL_TIMEOUT;
 8003842:	2303      	movs	r3, #3
 8003844:	e04f      	b.n	80038e6 <HAL_RCC_ClockConfig+0x1ae>
    while (__HAL_RCC_GET_SYSCLK_SOURCE() != (RCC_ClkInitStruct->SYSCLKSource << RCC_CFGR_SWS_Pos))
 8003846:	4b2b      	ldr	r3, [pc, #172]	; (80038f4 <HAL_RCC_ClockConfig+0x1bc>)
 8003848:	689b      	ldr	r3, [r3, #8]
 800384a:	f003 020c 	and.w	r2, r3, #12
 800384e:	687b      	ldr	r3, [r7, #4]
 8003850:	685b      	ldr	r3, [r3, #4]
 8003852:	009b      	lsls	r3, r3, #2
 8003854:	429a      	cmp	r2, r3
 8003856:	d1eb      	bne.n	8003830 <HAL_RCC_ClockConfig+0xf8>
      }
    }
  }

  /* Decreasing the number of wait states because of lower CPU frequency */
  if(FLatency < __HAL_FLASH_GET_LATENCY())
 8003858:	4b25      	ldr	r3, [pc, #148]	; (80038f0 <HAL_RCC_ClockConfig+0x1b8>)
 800385a:	681b      	ldr	r3, [r3, #0]
 800385c:	f003 030f 	and.w	r3, r3, #15
 8003860:	683a      	ldr	r2, [r7, #0]
 8003862:	429a      	cmp	r2, r3
 8003864:	d20c      	bcs.n	8003880 <HAL_RCC_ClockConfig+0x148>
  {
     /* Program the new number of wait states to the LATENCY bits in the FLASH_ACR register */
    __HAL_FLASH_SET_LATENCY(FLatency);
 8003866:	4b22      	ldr	r3, [pc, #136]	; (80038f0 <HAL_RCC_ClockConfig+0x1b8>)
 8003868:	683a      	ldr	r2, [r7, #0]
 800386a:	b2d2      	uxtb	r2, r2
 800386c:	701a      	strb	r2, [r3, #0]

    /* Check that the new number of wait states is taken into account to access the Flash
    memory by reading the FLASH_ACR register */
    if(__HAL_FLASH_GET_LATENCY() != FLatency)
 800386e:	4b20      	ldr	r3, [pc, #128]	; (80038f0 <HAL_RCC_ClockConfig+0x1b8>)
 8003870:	681b      	ldr	r3, [r3, #0]
 8003872:	f003 030f 	and.w	r3, r3, #15
 8003876:	683a      	ldr	r2, [r7, #0]
 8003878:	429a      	cmp	r2, r3
 800387a:	d001      	beq.n	8003880 <HAL_RCC_ClockConfig+0x148>
    {
      return HAL_ERROR;
 800387c:	2301      	movs	r3, #1
 800387e:	e032      	b.n	80038e6 <HAL_RCC_ClockConfig+0x1ae>
    }
  }

  /*-------------------------- PCLK1 Configuration ---------------------------*/
  if(((RCC_ClkInitStruct->ClockType) & RCC_CLOCKTYPE_PCLK1) == RCC_CLOCKTYPE_PCLK1)
 8003880:	687b      	ldr	r3, [r7, #4]
 8003882:	681b      	ldr	r3, [r3, #0]
 8003884:	f003 0304 	and.w	r3, r3, #4
 8003888:	2b00      	cmp	r3, #0
 800388a:	d008      	beq.n	800389e <HAL_RCC_ClockConfig+0x166>
  {
    assert_param(IS_RCC_PCLK(RCC_ClkInitStruct->APB1CLKDivider));
    MODIFY_REG(RCC->CFGR, RCC_CFGR_PPRE1, RCC_ClkInitStruct->APB1CLKDivider);
 800388c:	4b19      	ldr	r3, [pc, #100]	; (80038f4 <HAL_RCC_ClockConfig+0x1bc>)
 800388e:	689b      	ldr	r3, [r3, #8]
 8003890:	f423 52e0 	bic.w	r2, r3, #7168	; 0x1c00
 8003894:	687b      	ldr	r3, [r7, #4]
 8003896:	68db      	ldr	r3, [r3, #12]
 8003898:	4916      	ldr	r1, [pc, #88]	; (80038f4 <HAL_RCC_ClockConfig+0x1bc>)
 800389a:	4313      	orrs	r3, r2
 800389c:	608b      	str	r3, [r1, #8]
  }

  /*-------------------------- PCLK2 Configuration ---------------------------*/
  if(((RCC_ClkInitStruct->ClockType) & RCC_CLOCKTYPE_PCLK2) == RCC_CLOCKTYPE_PCLK2)
 800389e:	687b      	ldr	r3, [r7, #4]
 80038a0:	681b      	ldr	r3, [r3, #0]
 80038a2:	f003 0308 	and.w	r3, r3, #8
 80038a6:	2b00      	cmp	r3, #0
 80038a8:	d009      	beq.n	80038be <HAL_RCC_ClockConfig+0x186>
  {
    assert_param(IS_RCC_PCLK(RCC_ClkInitStruct->APB2CLKDivider));
    MODIFY_REG(RCC->CFGR, RCC_CFGR_PPRE2, ((RCC_ClkInitStruct->APB2CLKDivider) << 3U));
 80038aa:	4b12      	ldr	r3, [pc, #72]	; (80038f4 <HAL_RCC_ClockConfig+0x1bc>)
 80038ac:	689b      	ldr	r3, [r3, #8]
 80038ae:	f423 4260 	bic.w	r2, r3, #57344	; 0xe000
 80038b2:	687b      	ldr	r3, [r7, #4]
 80038b4:	691b      	ldr	r3, [r3, #16]
 80038b6:	00db      	lsls	r3, r3, #3
 80038b8:	490e      	ldr	r1, [pc, #56]	; (80038f4 <HAL_RCC_ClockConfig+0x1bc>)
 80038ba:	4313      	orrs	r3, r2
 80038bc:	608b      	str	r3, [r1, #8]
  }

  /* Update the SystemCoreClock global variable */
  SystemCoreClock = HAL_RCC_GetSysClockFreq() >> AHBPrescTable[(RCC->CFGR & RCC_CFGR_HPRE)>> RCC_CFGR_HPRE_Pos];
 80038be:	f000 f855 	bl	800396c <HAL_RCC_GetSysClockFreq>
 80038c2:	4601      	mov	r1, r0
 80038c4:	4b0b      	ldr	r3, [pc, #44]	; (80038f4 <HAL_RCC_ClockConfig+0x1bc>)
 80038c6:	689b      	ldr	r3, [r3, #8]
 80038c8:	091b      	lsrs	r3, r3, #4
 80038ca:	f003 030f 	and.w	r3, r3, #15
 80038ce:	4a0a      	ldr	r2, [pc, #40]	; (80038f8 <HAL_RCC_ClockConfig+0x1c0>)
 80038d0:	5cd3      	ldrb	r3, [r2, r3]
 80038d2:	fa21 f303 	lsr.w	r3, r1, r3
 80038d6:	4a09      	ldr	r2, [pc, #36]	; (80038fc <HAL_RCC_ClockConfig+0x1c4>)
 80038d8:	6013      	str	r3, [r2, #0]

  /* Configure the source of time base considering new system clocks settings */
  HAL_InitTick (uwTickPrio);
 80038da:	4b09      	ldr	r3, [pc, #36]	; (8003900 <HAL_RCC_ClockConfig+0x1c8>)
 80038dc:	681b      	ldr	r3, [r3, #0]
 80038de:	4618      	mov	r0, r3
 80038e0:	f7fe fa6c 	bl	8001dbc <HAL_InitTick>

  return HAL_OK;
 80038e4:	2300      	movs	r3, #0
}
 80038e6:	4618      	mov	r0, r3
 80038e8:	3710      	adds	r7, #16
 80038ea:	46bd      	mov	sp, r7
 80038ec:	bd80      	pop	{r7, pc}
 80038ee:	bf00      	nop
 80038f0:	40023c00 	.word	0x40023c00
 80038f4:	40023800 	.word	0x40023800
 80038f8:	0800a6a0 	.word	0x0800a6a0
 80038fc:	20000000 	.word	0x20000000
 8003900:	20000004 	.word	0x20000004

08003904 <HAL_RCC_GetHCLKFreq>:
  * @note   The SystemCoreClock CMSIS variable is used to store System Clock Frequency
  *         and updated within this function
  * @retval HCLK frequency
  */
uint32_t HAL_RCC_GetHCLKFreq(void)
{
 8003904:	b480      	push	{r7}
 8003906:	af00      	add	r7, sp, #0
  return SystemCoreClock;
 8003908:	4b03      	ldr	r3, [pc, #12]	; (8003918 <HAL_RCC_GetHCLKFreq+0x14>)
 800390a:	681b      	ldr	r3, [r3, #0]
}
 800390c:	4618      	mov	r0, r3
 800390e:	46bd      	mov	sp, r7
 8003910:	f85d 7b04 	ldr.w	r7, [sp], #4
 8003914:	4770      	bx	lr
 8003916:	bf00      	nop
 8003918:	20000000 	.word	0x20000000

0800391c <HAL_RCC_GetPCLK1Freq>:
  * @note   Each time PCLK1 changes, this function must be called to update the
  *         right PCLK1 value. Otherwise, any configuration based on this function will be incorrect.
  * @retval PCLK1 frequency
  */
uint32_t HAL_RCC_GetPCLK1Freq(void)
{
 800391c:	b580      	push	{r7, lr}
 800391e:	af00      	add	r7, sp, #0
  /* Get HCLK source and Compute PCLK1 frequency ---------------------------*/
  return (HAL_RCC_GetHCLKFreq() >> APBPrescTable[(RCC->CFGR & RCC_CFGR_PPRE1)>> RCC_CFGR_PPRE1_Pos]);
 8003920:	f7ff fff0 	bl	8003904 <HAL_RCC_GetHCLKFreq>
 8003924:	4601      	mov	r1, r0
 8003926:	4b05      	ldr	r3, [pc, #20]	; (800393c <HAL_RCC_GetPCLK1Freq+0x20>)
 8003928:	689b      	ldr	r3, [r3, #8]
 800392a:	0a9b      	lsrs	r3, r3, #10
 800392c:	f003 0307 	and.w	r3, r3, #7
 8003930:	4a03      	ldr	r2, [pc, #12]	; (8003940 <HAL_RCC_GetPCLK1Freq+0x24>)
 8003932:	5cd3      	ldrb	r3, [r2, r3]
 8003934:	fa21 f303 	lsr.w	r3, r1, r3
}
 8003938:	4618      	mov	r0, r3
 800393a:	bd80      	pop	{r7, pc}
 800393c:	40023800 	.word	0x40023800
 8003940:	0800a6b0 	.word	0x0800a6b0

08003944 <HAL_RCC_GetPCLK2Freq>:
  * @note   Each time PCLK2 changes, this function must be called to update the
  *         right PCLK2 value. Otherwise, any configuration based on this function will be incorrect.
  * @retval PCLK2 frequency
  */
uint32_t HAL_RCC_GetPCLK2Freq(void)
{
 8003944:	b580      	push	{r7, lr}
 8003946:	af00      	add	r7, sp, #0
  /* Get HCLK source and Compute PCLK2 frequency ---------------------------*/
  return (HAL_RCC_GetHCLKFreq()>> APBPrescTable[(RCC->CFGR & RCC_CFGR_PPRE2)>> RCC_CFGR_PPRE2_Pos]);
 8003948:	f7ff ffdc 	bl	8003904 <HAL_RCC_GetHCLKFreq>
 800394c:	4601      	mov	r1, r0
 800394e:	4b05      	ldr	r3, [pc, #20]	; (8003964 <HAL_RCC_GetPCLK2Freq+0x20>)
 8003950:	689b      	ldr	r3, [r3, #8]
 8003952:	0b5b      	lsrs	r3, r3, #13
 8003954:	f003 0307 	and.w	r3, r3, #7
 8003958:	4a03      	ldr	r2, [pc, #12]	; (8003968 <HAL_RCC_GetPCLK2Freq+0x24>)
 800395a:	5cd3      	ldrb	r3, [r2, r3]
 800395c:	fa21 f303 	lsr.w	r3, r1, r3
}
 8003960:	4618      	mov	r0, r3
 8003962:	bd80      	pop	{r7, pc}
 8003964:	40023800 	.word	0x40023800
 8003968:	0800a6b0 	.word	0x0800a6b0

0800396c <HAL_RCC_GetSysClockFreq>:
  *
  *
  * @retval SYSCLK frequency
  */
uint32_t HAL_RCC_GetSysClockFreq(void)
{
 800396c:	b5f0      	push	{r4, r5, r6, r7, lr}
 800396e:	b087      	sub	sp, #28
 8003970:	af00      	add	r7, sp, #0
  uint32_t pllm = 0U;
 8003972:	2300      	movs	r3, #0
 8003974:	60fb      	str	r3, [r7, #12]
  uint32_t pllvco = 0U;
 8003976:	2300      	movs	r3, #0
 8003978:	617b      	str	r3, [r7, #20]
  uint32_t pllp = 0U;
 800397a:	2300      	movs	r3, #0
 800397c:	60bb      	str	r3, [r7, #8]
  uint32_t pllr = 0U;
 800397e:	2300      	movs	r3, #0
 8003980:	607b      	str	r3, [r7, #4]
  uint32_t sysclockfreq = 0U;
 8003982:	2300      	movs	r3, #0
 8003984:	613b      	str	r3, [r7, #16]

  /* Get SYSCLK source -------------------------------------------------------*/
  switch (RCC->CFGR & RCC_CFGR_SWS)
 8003986:	4bc6      	ldr	r3, [pc, #792]	; (8003ca0 <HAL_RCC_GetSysClockFreq+0x334>)
 8003988:	689b      	ldr	r3, [r3, #8]
 800398a:	f003 030c 	and.w	r3, r3, #12
 800398e:	2b0c      	cmp	r3, #12
 8003990:	f200 817e 	bhi.w	8003c90 <HAL_RCC_GetSysClockFreq+0x324>
 8003994:	a201      	add	r2, pc, #4	; (adr r2, 800399c <HAL_RCC_GetSysClockFreq+0x30>)
 8003996:	f852 f023 	ldr.w	pc, [r2, r3, lsl #2]
 800399a:	bf00      	nop
 800399c:	080039d1 	.word	0x080039d1
 80039a0:	08003c91 	.word	0x08003c91
 80039a4:	08003c91 	.word	0x08003c91
 80039a8:	08003c91 	.word	0x08003c91
 80039ac:	080039d7 	.word	0x080039d7
 80039b0:	08003c91 	.word	0x08003c91
 80039b4:	08003c91 	.word	0x08003c91
 80039b8:	08003c91 	.word	0x08003c91
 80039bc:	080039dd 	.word	0x080039dd
 80039c0:	08003c91 	.word	0x08003c91
 80039c4:	08003c91 	.word	0x08003c91
 80039c8:	08003c91 	.word	0x08003c91
 80039cc:	08003b39 	.word	0x08003b39
  {
    case RCC_CFGR_SWS_HSI:  /* HSI used as system clock source */
    {
      sysclockfreq = HSI_VALUE;
 80039d0:	4bb4      	ldr	r3, [pc, #720]	; (8003ca4 <HAL_RCC_GetSysClockFreq+0x338>)
 80039d2:	613b      	str	r3, [r7, #16]
       break;
 80039d4:	e15f      	b.n	8003c96 <HAL_RCC_GetSysClockFreq+0x32a>
    }
    case RCC_CFGR_SWS_HSE:  /* HSE used as system clock  source */
    {
      sysclockfreq = HSE_VALUE;
 80039d6:	4bb4      	ldr	r3, [pc, #720]	; (8003ca8 <HAL_RCC_GetSysClockFreq+0x33c>)
 80039d8:	613b      	str	r3, [r7, #16]
      break;
 80039da:	e15c      	b.n	8003c96 <HAL_RCC_GetSysClockFreq+0x32a>
    }
    case RCC_CFGR_SWS_PLL:  /* PLL/PLLP used as system clock  source */
    {
      /* PLL_VCO = (HSE_VALUE or HSI_VALUE / PLLM) * PLLN
      SYSCLK = PLL_VCO / PLLP */
      pllm = RCC->PLLCFGR & RCC_PLLCFGR_PLLM;
 80039dc:	4bb0      	ldr	r3, [pc, #704]	; (8003ca0 <HAL_RCC_GetSysClockFreq+0x334>)
 80039de:	685b      	ldr	r3, [r3, #4]
 80039e0:	f003 033f 	and.w	r3, r3, #63	; 0x3f
 80039e4:	60fb      	str	r3, [r7, #12]
      if(__HAL_RCC_GET_PLL_OSCSOURCE() != RCC_PLLSOURCE_HSI)
 80039e6:	4bae      	ldr	r3, [pc, #696]	; (8003ca0 <HAL_RCC_GetSysClockFreq+0x334>)
 80039e8:	685b      	ldr	r3, [r3, #4]
 80039ea:	f403 0380 	and.w	r3, r3, #4194304	; 0x400000
 80039ee:	2b00      	cmp	r3, #0
 80039f0:	d04a      	beq.n	8003a88 <HAL_RCC_GetSysClockFreq+0x11c>
      {
        /* HSE used as PLL clock source */
        pllvco = (uint32_t) ((((uint64_t) HSE_VALUE * ((uint64_t) ((RCC->PLLCFGR & RCC_PLLCFGR_PLLN) >> RCC_PLLCFGR_PLLN_Pos)))) / (uint64_t)pllm);
 80039f2:	4bab      	ldr	r3, [pc, #684]	; (8003ca0 <HAL_RCC_GetSysClockFreq+0x334>)
 80039f4:	685b      	ldr	r3, [r3, #4]
 80039f6:	099b      	lsrs	r3, r3, #6
 80039f8:	f04f 0400 	mov.w	r4, #0
 80039fc:	f240 11ff 	movw	r1, #511	; 0x1ff
 8003a00:	f04f 0200 	mov.w	r2, #0
 8003a04:	ea03 0501 	and.w	r5, r3, r1
 8003a08:	ea04 0602 	and.w	r6, r4, r2
 8003a0c:	4629      	mov	r1, r5
 8003a0e:	4632      	mov	r2, r6
 8003a10:	f04f 0300 	mov.w	r3, #0
 8003a14:	f04f 0400 	mov.w	r4, #0
 8003a18:	0154      	lsls	r4, r2, #5
 8003a1a:	ea44 64d1 	orr.w	r4, r4, r1, lsr #27
 8003a1e:	014b      	lsls	r3, r1, #5
 8003a20:	4619      	mov	r1, r3
 8003a22:	4622      	mov	r2, r4
 8003a24:	1b49      	subs	r1, r1, r5
 8003a26:	eb62 0206 	sbc.w	r2, r2, r6
 8003a2a:	f04f 0300 	mov.w	r3, #0
 8003a2e:	f04f 0400 	mov.w	r4, #0
 8003a32:	0194      	lsls	r4, r2, #6
 8003a34:	ea44 6491 	orr.w	r4, r4, r1, lsr #26
 8003a38:	018b      	lsls	r3, r1, #6
 8003a3a:	1a5b      	subs	r3, r3, r1
 8003a3c:	eb64 0402 	sbc.w	r4, r4, r2
 8003a40:	f04f 0100 	mov.w	r1, #0
 8003a44:	f04f 0200 	mov.w	r2, #0
 8003a48:	00e2      	lsls	r2, r4, #3
 8003a4a:	ea42 7253 	orr.w	r2, r2, r3, lsr #29
 8003a4e:	00d9      	lsls	r1, r3, #3
 8003a50:	460b      	mov	r3, r1
 8003a52:	4614      	mov	r4, r2
 8003a54:	195b      	adds	r3, r3, r5
 8003a56:	eb44 0406 	adc.w	r4, r4, r6
 8003a5a:	f04f 0100 	mov.w	r1, #0
 8003a5e:	f04f 0200 	mov.w	r2, #0
 8003a62:	0262      	lsls	r2, r4, #9
 8003a64:	ea42 52d3 	orr.w	r2, r2, r3, lsr #23
 8003a68:	0259      	lsls	r1, r3, #9
 8003a6a:	460b      	mov	r3, r1
 8003a6c:	4614      	mov	r4, r2
 8003a6e:	4618      	mov	r0, r3
 8003a70:	4621      	mov	r1, r4
 8003a72:	68fb      	ldr	r3, [r7, #12]
 8003a74:	f04f 0400 	mov.w	r4, #0
 8003a78:	461a      	mov	r2, r3
 8003a7a:	4623      	mov	r3, r4
 8003a7c:	f7fd f8b4 	bl	8000be8 <__aeabi_uldivmod>
 8003a80:	4603      	mov	r3, r0
 8003a82:	460c      	mov	r4, r1
 8003a84:	617b      	str	r3, [r7, #20]
 8003a86:	e049      	b.n	8003b1c <HAL_RCC_GetSysClockFreq+0x1b0>
      }
      else
      {
        /* HSI used as PLL clock source */
        pllvco = (uint32_t) ((((uint64_t) HSI_VALUE * ((uint64_t) ((RCC->PLLCFGR & RCC_PLLCFGR_PLLN) >> RCC_PLLCFGR_PLLN_Pos)))) / (uint64_t)pllm);
 8003a88:	4b85      	ldr	r3, [pc, #532]	; (8003ca0 <HAL_RCC_GetSysClockFreq+0x334>)
 8003a8a:	685b      	ldr	r3, [r3, #4]
 8003a8c:	099b      	lsrs	r3, r3, #6
 8003a8e:	f04f 0400 	mov.w	r4, #0
 8003a92:	f240 11ff 	movw	r1, #511	; 0x1ff
 8003a96:	f04f 0200 	mov.w	r2, #0
 8003a9a:	ea03 0501 	and.w	r5, r3, r1
 8003a9e:	ea04 0602 	and.w	r6, r4, r2
 8003aa2:	4629      	mov	r1, r5
 8003aa4:	4632      	mov	r2, r6
 8003aa6:	f04f 0300 	mov.w	r3, #0
 8003aaa:	f04f 0400 	mov.w	r4, #0
 8003aae:	0154      	lsls	r4, r2, #5
 8003ab0:	ea44 64d1 	orr.w	r4, r4, r1, lsr #27
 8003ab4:	014b      	lsls	r3, r1, #5
 8003ab6:	4619      	mov	r1, r3
 8003ab8:	4622      	mov	r2, r4
 8003aba:	1b49      	subs	r1, r1, r5
 8003abc:	eb62 0206 	sbc.w	r2, r2, r6
 8003ac0:	f04f 0300 	mov.w	r3, #0
 8003ac4:	f04f 0400 	mov.w	r4, #0
 8003ac8:	0194      	lsls	r4, r2, #6
 8003aca:	ea44 6491 	orr.w	r4, r4, r1, lsr #26
 8003ace:	018b      	lsls	r3, r1, #6
 8003ad0:	1a5b      	subs	r3, r3, r1
 8003ad2:	eb64 0402 	sbc.w	r4, r4, r2
 8003ad6:	f04f 0100 	mov.w	r1, #0
 8003ada:	f04f 0200 	mov.w	r2, #0
 8003ade:	00e2      	lsls	r2, r4, #3
 8003ae0:	ea42 7253 	orr.w	r2, r2, r3, lsr #29
 8003ae4:	00d9      	lsls	r1, r3, #3
 8003ae6:	460b      	mov	r3, r1
 8003ae8:	4614      	mov	r4, r2
 8003aea:	195b      	adds	r3, r3, r5
 8003aec:	eb44 0406 	adc.w	r4, r4, r6
 8003af0:	f04f 0100 	mov.w	r1, #0
 8003af4:	f04f 0200 	mov.w	r2, #0
 8003af8:	02a2      	lsls	r2, r4, #10
 8003afa:	ea42 5293 	orr.w	r2, r2, r3, lsr #22
 8003afe:	0299      	lsls	r1, r3, #10
 8003b00:	460b      	mov	r3, r1
 8003b02:	4614      	mov	r4, r2
 8003b04:	4618      	mov	r0, r3
 8003b06:	4621      	mov	r1, r4
 8003b08:	68fb      	ldr	r3, [r7, #12]
 8003b0a:	f04f 0400 	mov.w	r4, #0
 8003b0e:	461a      	mov	r2, r3
 8003b10:	4623      	mov	r3, r4
 8003b12:	f7fd f869 	bl	8000be8 <__aeabi_uldivmod>
 8003b16:	4603      	mov	r3, r0
 8003b18:	460c      	mov	r4, r1
 8003b1a:	617b      	str	r3, [r7, #20]
      }
      pllp = ((((RCC->PLLCFGR & RCC_PLLCFGR_PLLP) >> RCC_PLLCFGR_PLLP_Pos) + 1U) *2U);
 8003b1c:	4b60      	ldr	r3, [pc, #384]	; (8003ca0 <HAL_RCC_GetSysClockFreq+0x334>)
 8003b1e:	685b      	ldr	r3, [r3, #4]
 8003b20:	0c1b      	lsrs	r3, r3, #16
 8003b22:	f003 0303 	and.w	r3, r3, #3
 8003b26:	3301      	adds	r3, #1
 8003b28:	005b      	lsls	r3, r3, #1
 8003b2a:	60bb      	str	r3, [r7, #8]

      sysclockfreq = pllvco/pllp;
 8003b2c:	697a      	ldr	r2, [r7, #20]
 8003b2e:	68bb      	ldr	r3, [r7, #8]
 8003b30:	fbb2 f3f3 	udiv	r3, r2, r3
 8003b34:	613b      	str	r3, [r7, #16]
      break;
 8003b36:	e0ae      	b.n	8003c96 <HAL_RCC_GetSysClockFreq+0x32a>
    }
    case RCC_CFGR_SWS_PLLR:  /* PLL/PLLR used as system clock  source */
    {
      /* PLL_VCO = (HSE_VALUE or HSI_VALUE / PLLM) * PLLN
      SYSCLK = PLL_VCO / PLLR */
      pllm = RCC->PLLCFGR & RCC_PLLCFGR_PLLM;
 8003b38:	4b59      	ldr	r3, [pc, #356]	; (8003ca0 <HAL_RCC_GetSysClockFreq+0x334>)
 8003b3a:	685b      	ldr	r3, [r3, #4]
 8003b3c:	f003 033f 	and.w	r3, r3, #63	; 0x3f
 8003b40:	60fb      	str	r3, [r7, #12]
      if(__HAL_RCC_GET_PLL_OSCSOURCE() != RCC_PLLSOURCE_HSI)
 8003b42:	4b57      	ldr	r3, [pc, #348]	; (8003ca0 <HAL_RCC_GetSysClockFreq+0x334>)
 8003b44:	685b      	ldr	r3, [r3, #4]
 8003b46:	f403 0380 	and.w	r3, r3, #4194304	; 0x400000
 8003b4a:	2b00      	cmp	r3, #0
 8003b4c:	d04a      	beq.n	8003be4 <HAL_RCC_GetSysClockFreq+0x278>
      {
        /* HSE used as PLL clock source */
        pllvco = (uint32_t) ((((uint64_t) HSE_VALUE * ((uint64_t) ((RCC->PLLCFGR & RCC_PLLCFGR_PLLN) >> RCC_PLLCFGR_PLLN_Pos)))) / (uint64_t)pllm);
 8003b4e:	4b54      	ldr	r3, [pc, #336]	; (8003ca0 <HAL_RCC_GetSysClockFreq+0x334>)
 8003b50:	685b      	ldr	r3, [r3, #4]
 8003b52:	099b      	lsrs	r3, r3, #6
 8003b54:	f04f 0400 	mov.w	r4, #0
 8003b58:	f240 11ff 	movw	r1, #511	; 0x1ff
 8003b5c:	f04f 0200 	mov.w	r2, #0
 8003b60:	ea03 0501 	and.w	r5, r3, r1
 8003b64:	ea04 0602 	and.w	r6, r4, r2
 8003b68:	4629      	mov	r1, r5
 8003b6a:	4632      	mov	r2, r6
 8003b6c:	f04f 0300 	mov.w	r3, #0
 8003b70:	f04f 0400 	mov.w	r4, #0
 8003b74:	0154      	lsls	r4, r2, #5
 8003b76:	ea44 64d1 	orr.w	r4, r4, r1, lsr #27
 8003b7a:	014b      	lsls	r3, r1, #5
 8003b7c:	4619      	mov	r1, r3
 8003b7e:	4622      	mov	r2, r4
 8003b80:	1b49      	subs	r1, r1, r5
 8003b82:	eb62 0206 	sbc.w	r2, r2, r6
 8003b86:	f04f 0300 	mov.w	r3, #0
 8003b8a:	f04f 0400 	mov.w	r4, #0
 8003b8e:	0194      	lsls	r4, r2, #6
 8003b90:	ea44 6491 	orr.w	r4, r4, r1, lsr #26
 8003b94:	018b      	lsls	r3, r1, #6
 8003b96:	1a5b      	subs	r3, r3, r1
 8003b98:	eb64 0402 	sbc.w	r4, r4, r2
 8003b9c:	f04f 0100 	mov.w	r1, #0
 8003ba0:	f04f 0200 	mov.w	r2, #0
 8003ba4:	00e2      	lsls	r2, r4, #3
 8003ba6:	ea42 7253 	orr.w	r2, r2, r3, lsr #29
 8003baa:	00d9      	lsls	r1, r3, #3
 8003bac:	460b      	mov	r3, r1
 8003bae:	4614      	mov	r4, r2
 8003bb0:	195b      	adds	r3, r3, r5
 8003bb2:	eb44 0406 	adc.w	r4, r4, r6
 8003bb6:	f04f 0100 	mov.w	r1, #0
 8003bba:	f04f 0200 	mov.w	r2, #0
 8003bbe:	0262      	lsls	r2, r4, #9
 8003bc0:	ea42 52d3 	orr.w	r2, r2, r3, lsr #23
 8003bc4:	0259      	lsls	r1, r3, #9
 8003bc6:	460b      	mov	r3, r1
 8003bc8:	4614      	mov	r4, r2
 8003bca:	4618      	mov	r0, r3
 8003bcc:	4621      	mov	r1, r4
 8003bce:	68fb      	ldr	r3, [r7, #12]
 8003bd0:	f04f 0400 	mov.w	r4, #0
 8003bd4:	461a      	mov	r2, r3
 8003bd6:	4623      	mov	r3, r4
 8003bd8:	f7fd f806 	bl	8000be8 <__aeabi_uldivmod>
 8003bdc:	4603      	mov	r3, r0
 8003bde:	460c      	mov	r4, r1
 8003be0:	617b      	str	r3, [r7, #20]
 8003be2:	e049      	b.n	8003c78 <HAL_RCC_GetSysClockFreq+0x30c>
      }
      else
      {
        /* HSI used as PLL clock source */
        pllvco = (uint32_t) ((((uint64_t) HSI_VALUE * ((uint64_t) ((RCC->PLLCFGR & RCC_PLLCFGR_PLLN) >> RCC_PLLCFGR_PLLN_Pos)))) / (uint64_t)pllm);
 8003be4:	4b2e      	ldr	r3, [pc, #184]	; (8003ca0 <HAL_RCC_GetSysClockFreq+0x334>)
 8003be6:	685b      	ldr	r3, [r3, #4]
 8003be8:	099b      	lsrs	r3, r3, #6
 8003bea:	f04f 0400 	mov.w	r4, #0
 8003bee:	f240 11ff 	movw	r1, #511	; 0x1ff
 8003bf2:	f04f 0200 	mov.w	r2, #0
 8003bf6:	ea03 0501 	and.w	r5, r3, r1
 8003bfa:	ea04 0602 	and.w	r6, r4, r2
 8003bfe:	4629      	mov	r1, r5
 8003c00:	4632      	mov	r2, r6
 8003c02:	f04f 0300 	mov.w	r3, #0
 8003c06:	f04f 0400 	mov.w	r4, #0
 8003c0a:	0154      	lsls	r4, r2, #5
 8003c0c:	ea44 64d1 	orr.w	r4, r4, r1, lsr #27
 8003c10:	014b      	lsls	r3, r1, #5
 8003c12:	4619      	mov	r1, r3
 8003c14:	4622      	mov	r2, r4
 8003c16:	1b49      	subs	r1, r1, r5
 8003c18:	eb62 0206 	sbc.w	r2, r2, r6
 8003c1c:	f04f 0300 	mov.w	r3, #0
 8003c20:	f04f 0400 	mov.w	r4, #0
 8003c24:	0194      	lsls	r4, r2, #6
 8003c26:	ea44 6491 	orr.w	r4, r4, r1, lsr #26
 8003c2a:	018b      	lsls	r3, r1, #6
 8003c2c:	1a5b      	subs	r3, r3, r1
 8003c2e:	eb64 0402 	sbc.w	r4, r4, r2
 8003c32:	f04f 0100 	mov.w	r1, #0
 8003c36:	f04f 0200 	mov.w	r2, #0
 8003c3a:	00e2      	lsls	r2, r4, #3
 8003c3c:	ea42 7253 	orr.w	r2, r2, r3, lsr #29
 8003c40:	00d9      	lsls	r1, r3, #3
 8003c42:	460b      	mov	r3, r1
 8003c44:	4614      	mov	r4, r2
 8003c46:	195b      	adds	r3, r3, r5
 8003c48:	eb44 0406 	adc.w	r4, r4, r6
 8003c4c:	f04f 0100 	mov.w	r1, #0
 8003c50:	f04f 0200 	mov.w	r2, #0
 8003c54:	02a2      	lsls	r2, r4, #10
 8003c56:	ea42 5293 	orr.w	r2, r2, r3, lsr #22
 8003c5a:	0299      	lsls	r1, r3, #10
 8003c5c:	460b      	mov	r3, r1
 8003c5e:	4614      	mov	r4, r2
 8003c60:	4618      	mov	r0, r3
 8003c62:	4621      	mov	r1, r4
 8003c64:	68fb      	ldr	r3, [r7, #12]
 8003c66:	f04f 0400 	mov.w	r4, #0
 8003c6a:	461a      	mov	r2, r3
 8003c6c:	4623      	mov	r3, r4
 8003c6e:	f7fc ffbb 	bl	8000be8 <__aeabi_uldivmod>
 8003c72:	4603      	mov	r3, r0
 8003c74:	460c      	mov	r4, r1
 8003c76:	617b      	str	r3, [r7, #20]
      }
      pllr = ((RCC->PLLCFGR & RCC_PLLCFGR_PLLR) >> RCC_PLLCFGR_PLLR_Pos);
 8003c78:	4b09      	ldr	r3, [pc, #36]	; (8003ca0 <HAL_RCC_GetSysClockFreq+0x334>)
 8003c7a:	685b      	ldr	r3, [r3, #4]
 8003c7c:	0f1b      	lsrs	r3, r3, #28
 8003c7e:	f003 0307 	and.w	r3, r3, #7
 8003c82:	607b      	str	r3, [r7, #4]

      sysclockfreq = pllvco/pllr;
 8003c84:	697a      	ldr	r2, [r7, #20]
 8003c86:	687b      	ldr	r3, [r7, #4]
 8003c88:	fbb2 f3f3 	udiv	r3, r2, r3
 8003c8c:	613b      	str	r3, [r7, #16]
      break;
 8003c8e:	e002      	b.n	8003c96 <HAL_RCC_GetSysClockFreq+0x32a>
    }
    default:
    {
      sysclockfreq = HSI_VALUE;
 8003c90:	4b04      	ldr	r3, [pc, #16]	; (8003ca4 <HAL_RCC_GetSysClockFreq+0x338>)
 8003c92:	613b      	str	r3, [r7, #16]
      break;
 8003c94:	bf00      	nop
    }
  }
  return sysclockfreq;
 8003c96:	693b      	ldr	r3, [r7, #16]
}
 8003c98:	4618      	mov	r0, r3
 8003c9a:	371c      	adds	r7, #28
 8003c9c:	46bd      	mov	sp, r7
 8003c9e:	bdf0      	pop	{r4, r5, r6, r7, pc}
 8003ca0:	40023800 	.word	0x40023800
 8003ca4:	00f42400 	.word	0x00f42400
 8003ca8:	007a1200 	.word	0x007a1200

08003cac <HAL_RCC_OscConfig>:
  * @note   This function add the PLL/PLLR factor management during PLL configuration this feature
  *         is only available in STM32F410xx/STM32F446xx/STM32F469xx/STM32F479xx/STM32F412Zx/STM32F412Vx/STM32F412Rx/STM32F412Cx devices
  * @retval HAL status
  */
HAL_StatusTypeDef HAL_RCC_OscConfig(RCC_OscInitTypeDef  *RCC_OscInitStruct)
{
 8003cac:	b580      	push	{r7, lr}
 8003cae:	b086      	sub	sp, #24
 8003cb0:	af00      	add	r7, sp, #0
 8003cb2:	6078      	str	r0, [r7, #4]
  uint32_t tickstart = 0U;
 8003cb4:	2300      	movs	r3, #0
 8003cb6:	613b      	str	r3, [r7, #16]

  /* Check the parameters */
  assert_param(IS_RCC_OSCILLATORTYPE(RCC_OscInitStruct->OscillatorType));
  /*------------------------------- HSE Configuration ------------------------*/
  if(((RCC_OscInitStruct->OscillatorType) & RCC_OSCILLATORTYPE_HSE) == RCC_OSCILLATORTYPE_HSE)
 8003cb8:	687b      	ldr	r3, [r7, #4]
 8003cba:	681b      	ldr	r3, [r3, #0]
 8003cbc:	f003 0301 	and.w	r3, r3, #1
 8003cc0:	2b00      	cmp	r3, #0
 8003cc2:	f000 8083 	beq.w	8003dcc <HAL_RCC_OscConfig+0x120>
  {
    /* Check the parameters */
    assert_param(IS_RCC_HSE(RCC_OscInitStruct->HSEState));
    /* When the HSE is used as system clock or clock source for PLL in these cases HSE will not disabled */
#if defined(STM32F446xx)
    if((__HAL_RCC_GET_SYSCLK_SOURCE() == RCC_CFGR_SWS_HSE)                                                                     ||\
 8003cc6:	4b95      	ldr	r3, [pc, #596]	; (8003f1c <HAL_RCC_OscConfig+0x270>)
 8003cc8:	689b      	ldr	r3, [r3, #8]
 8003cca:	f003 030c 	and.w	r3, r3, #12
 8003cce:	2b04      	cmp	r3, #4
 8003cd0:	d019      	beq.n	8003d06 <HAL_RCC_OscConfig+0x5a>
      ((__HAL_RCC_GET_SYSCLK_SOURCE() == RCC_CFGR_SWS_PLL) && ((RCC->PLLCFGR & RCC_PLLCFGR_PLLSRC) == RCC_PLLCFGR_PLLSRC_HSE)) ||\
 8003cd2:	4b92      	ldr	r3, [pc, #584]	; (8003f1c <HAL_RCC_OscConfig+0x270>)
 8003cd4:	689b      	ldr	r3, [r3, #8]
 8003cd6:	f003 030c 	and.w	r3, r3, #12
    if((__HAL_RCC_GET_SYSCLK_SOURCE() == RCC_CFGR_SWS_HSE)                                                                     ||\
 8003cda:	2b08      	cmp	r3, #8
 8003cdc:	d106      	bne.n	8003cec <HAL_RCC_OscConfig+0x40>
      ((__HAL_RCC_GET_SYSCLK_SOURCE() == RCC_CFGR_SWS_PLL) && ((RCC->PLLCFGR & RCC_PLLCFGR_PLLSRC) == RCC_PLLCFGR_PLLSRC_HSE)) ||\
 8003cde:	4b8f      	ldr	r3, [pc, #572]	; (8003f1c <HAL_RCC_OscConfig+0x270>)
 8003ce0:	685b      	ldr	r3, [r3, #4]
 8003ce2:	f403 0380 	and.w	r3, r3, #4194304	; 0x400000
 8003ce6:	f5b3 0f80 	cmp.w	r3, #4194304	; 0x400000
 8003cea:	d00c      	beq.n	8003d06 <HAL_RCC_OscConfig+0x5a>
      ((__HAL_RCC_GET_SYSCLK_SOURCE() == RCC_CFGR_SWS_PLLR) && ((RCC->PLLCFGR & RCC_PLLCFGR_PLLSRC) == RCC_PLLCFGR_PLLSRC_HSE)))
 8003cec:	4b8b      	ldr	r3, [pc, #556]	; (8003f1c <HAL_RCC_OscConfig+0x270>)
 8003cee:	689b      	ldr	r3, [r3, #8]
 8003cf0:	f003 030c 	and.w	r3, r3, #12
      ((__HAL_RCC_GET_SYSCLK_SOURCE() == RCC_CFGR_SWS_PLL) && ((RCC->PLLCFGR & RCC_PLLCFGR_PLLSRC) == RCC_PLLCFGR_PLLSRC_HSE)) ||\
 8003cf4:	2b0c      	cmp	r3, #12
 8003cf6:	d112      	bne.n	8003d1e <HAL_RCC_OscConfig+0x72>
      ((__HAL_RCC_GET_SYSCLK_SOURCE() == RCC_CFGR_SWS_PLLR) && ((RCC->PLLCFGR & RCC_PLLCFGR_PLLSRC) == RCC_PLLCFGR_PLLSRC_HSE)))
 8003cf8:	4b88      	ldr	r3, [pc, #544]	; (8003f1c <HAL_RCC_OscConfig+0x270>)
 8003cfa:	685b      	ldr	r3, [r3, #4]
 8003cfc:	f403 0380 	and.w	r3, r3, #4194304	; 0x400000
 8003d00:	f5b3 0f80 	cmp.w	r3, #4194304	; 0x400000
 8003d04:	d10b      	bne.n	8003d1e <HAL_RCC_OscConfig+0x72>
#else
    if((__HAL_RCC_GET_SYSCLK_SOURCE() == RCC_CFGR_SWS_HSE)                                                                     ||\
      ((__HAL_RCC_GET_SYSCLK_SOURCE() == RCC_CFGR_SWS_PLL) && ((RCC->PLLCFGR & RCC_PLLCFGR_PLLSRC) == RCC_PLLCFGR_PLLSRC_HSE)))
#endif /* STM32F446xx */
    {
      if((__HAL_RCC_GET_FLAG(RCC_FLAG_HSERDY) != RESET) && (RCC_OscInitStruct->HSEState == RCC_HSE_OFF))
 8003d06:	4b85      	ldr	r3, [pc, #532]	; (8003f1c <HAL_RCC_OscConfig+0x270>)
 8003d08:	681b      	ldr	r3, [r3, #0]
 8003d0a:	f403 3300 	and.w	r3, r3, #131072	; 0x20000
 8003d0e:	2b00      	cmp	r3, #0
 8003d10:	d05b      	beq.n	8003dca <HAL_RCC_OscConfig+0x11e>
 8003d12:	687b      	ldr	r3, [r7, #4]
 8003d14:	685b      	ldr	r3, [r3, #4]
 8003d16:	2b00      	cmp	r3, #0
 8003d18:	d157      	bne.n	8003dca <HAL_RCC_OscConfig+0x11e>
      {
        return HAL_ERROR;
 8003d1a:	2301      	movs	r3, #1
 8003d1c:	e216      	b.n	800414c <HAL_RCC_OscConfig+0x4a0>
      }
    }
    else
    {
      /* Set the new HSE configuration ---------------------------------------*/
      __HAL_RCC_HSE_CONFIG(RCC_OscInitStruct->HSEState);
 8003d1e:	687b      	ldr	r3, [r7, #4]
 8003d20:	685b      	ldr	r3, [r3, #4]
 8003d22:	f5b3 3f80 	cmp.w	r3, #65536	; 0x10000
 8003d26:	d106      	bne.n	8003d36 <HAL_RCC_OscConfig+0x8a>
 8003d28:	4b7c      	ldr	r3, [pc, #496]	; (8003f1c <HAL_RCC_OscConfig+0x270>)
 8003d2a:	681b      	ldr	r3, [r3, #0]
 8003d2c:	4a7b      	ldr	r2, [pc, #492]	; (8003f1c <HAL_RCC_OscConfig+0x270>)
 8003d2e:	f443 3380 	orr.w	r3, r3, #65536	; 0x10000
 8003d32:	6013      	str	r3, [r2, #0]
 8003d34:	e01d      	b.n	8003d72 <HAL_RCC_OscConfig+0xc6>
 8003d36:	687b      	ldr	r3, [r7, #4]
 8003d38:	685b      	ldr	r3, [r3, #4]
 8003d3a:	f5b3 2fa0 	cmp.w	r3, #327680	; 0x50000
 8003d3e:	d10c      	bne.n	8003d5a <HAL_RCC_OscConfig+0xae>
 8003d40:	4b76      	ldr	r3, [pc, #472]	; (8003f1c <HAL_RCC_OscConfig+0x270>)
 8003d42:	681b      	ldr	r3, [r3, #0]
 8003d44:	4a75      	ldr	r2, [pc, #468]	; (8003f1c <HAL_RCC_OscConfig+0x270>)
 8003d46:	f443 2380 	orr.w	r3, r3, #262144	; 0x40000
 8003d4a:	6013      	str	r3, [r2, #0]
 8003d4c:	4b73      	ldr	r3, [pc, #460]	; (8003f1c <HAL_RCC_OscConfig+0x270>)
 8003d4e:	681b      	ldr	r3, [r3, #0]
 8003d50:	4a72      	ldr	r2, [pc, #456]	; (8003f1c <HAL_RCC_OscConfig+0x270>)
 8003d52:	f443 3380 	orr.w	r3, r3, #65536	; 0x10000
 8003d56:	6013      	str	r3, [r2, #0]
 8003d58:	e00b      	b.n	8003d72 <HAL_RCC_OscConfig+0xc6>
 8003d5a:	4b70      	ldr	r3, [pc, #448]	; (8003f1c <HAL_RCC_OscConfig+0x270>)
 8003d5c:	681b      	ldr	r3, [r3, #0]
 8003d5e:	4a6f      	ldr	r2, [pc, #444]	; (8003f1c <HAL_RCC_OscConfig+0x270>)
 8003d60:	f423 3380 	bic.w	r3, r3, #65536	; 0x10000
 8003d64:	6013      	str	r3, [r2, #0]
 8003d66:	4b6d      	ldr	r3, [pc, #436]	; (8003f1c <HAL_RCC_OscConfig+0x270>)
 8003d68:	681b      	ldr	r3, [r3, #0]
 8003d6a:	4a6c      	ldr	r2, [pc, #432]	; (8003f1c <HAL_RCC_OscConfig+0x270>)
 8003d6c:	f423 2380 	bic.w	r3, r3, #262144	; 0x40000
 8003d70:	6013      	str	r3, [r2, #0]

      /* Check the HSE State */
      if((RCC_OscInitStruct->HSEState) != RCC_HSE_OFF)
 8003d72:	687b      	ldr	r3, [r7, #4]
 8003d74:	685b      	ldr	r3, [r3, #4]
 8003d76:	2b00      	cmp	r3, #0
 8003d78:	d013      	beq.n	8003da2 <HAL_RCC_OscConfig+0xf6>
      {
        /* Get Start Tick*/
        tickstart = HAL_GetTick();
 8003d7a:	f7fe f863 	bl	8001e44 <HAL_GetTick>
 8003d7e:	6138      	str	r0, [r7, #16]

        /* Wait till HSE is ready */
        while(__HAL_RCC_GET_FLAG(RCC_FLAG_HSERDY) == RESET)
 8003d80:	e008      	b.n	8003d94 <HAL_RCC_OscConfig+0xe8>
        {
          if((HAL_GetTick() - tickstart ) > HSE_TIMEOUT_VALUE)
 8003d82:	f7fe f85f 	bl	8001e44 <HAL_GetTick>
 8003d86:	4602      	mov	r2, r0
 8003d88:	693b      	ldr	r3, [r7, #16]
 8003d8a:	1ad3      	subs	r3, r2, r3
 8003d8c:	2b64      	cmp	r3, #100	; 0x64
 8003d8e:	d901      	bls.n	8003d94 <HAL_RCC_OscConfig+0xe8>
          {
            return HAL_TIMEOUT;
 8003d90:	2303      	movs	r3, #3
 8003d92:	e1db      	b.n	800414c <HAL_RCC_OscConfig+0x4a0>
        while(__HAL_RCC_GET_FLAG(RCC_FLAG_HSERDY) == RESET)
 8003d94:	4b61      	ldr	r3, [pc, #388]	; (8003f1c <HAL_RCC_OscConfig+0x270>)
 8003d96:	681b      	ldr	r3, [r3, #0]
 8003d98:	f403 3300 	and.w	r3, r3, #131072	; 0x20000
 8003d9c:	2b00      	cmp	r3, #0
 8003d9e:	d0f0      	beq.n	8003d82 <HAL_RCC_OscConfig+0xd6>
 8003da0:	e014      	b.n	8003dcc <HAL_RCC_OscConfig+0x120>
        }
      }
      else
      {
        /* Get Start Tick*/
        tickstart = HAL_GetTick();
 8003da2:	f7fe f84f 	bl	8001e44 <HAL_GetTick>
 8003da6:	6138      	str	r0, [r7, #16]

        /* Wait till HSE is bypassed or disabled */
        while(__HAL_RCC_GET_FLAG(RCC_FLAG_HSERDY) != RESET)
 8003da8:	e008      	b.n	8003dbc <HAL_RCC_OscConfig+0x110>
        {
          if((HAL_GetTick() - tickstart ) > HSE_TIMEOUT_VALUE)
 8003daa:	f7fe f84b 	bl	8001e44 <HAL_GetTick>
 8003dae:	4602      	mov	r2, r0
 8003db0:	693b      	ldr	r3, [r7, #16]
 8003db2:	1ad3      	subs	r3, r2, r3
 8003db4:	2b64      	cmp	r3, #100	; 0x64
 8003db6:	d901      	bls.n	8003dbc <HAL_RCC_OscConfig+0x110>
          {
            return HAL_TIMEOUT;
 8003db8:	2303      	movs	r3, #3
 8003dba:	e1c7      	b.n	800414c <HAL_RCC_OscConfig+0x4a0>
        while(__HAL_RCC_GET_FLAG(RCC_FLAG_HSERDY) != RESET)
 8003dbc:	4b57      	ldr	r3, [pc, #348]	; (8003f1c <HAL_RCC_OscConfig+0x270>)
 8003dbe:	681b      	ldr	r3, [r3, #0]
 8003dc0:	f403 3300 	and.w	r3, r3, #131072	; 0x20000
 8003dc4:	2b00      	cmp	r3, #0
 8003dc6:	d1f0      	bne.n	8003daa <HAL_RCC_OscConfig+0xfe>
 8003dc8:	e000      	b.n	8003dcc <HAL_RCC_OscConfig+0x120>
      if((__HAL_RCC_GET_FLAG(RCC_FLAG_HSERDY) != RESET) && (RCC_OscInitStruct->HSEState == RCC_HSE_OFF))
 8003dca:	bf00      	nop
        }
      }
    }
  }
  /*----------------------------- HSI Configuration --------------------------*/
  if(((RCC_OscInitStruct->OscillatorType) & RCC_OSCILLATORTYPE_HSI) == RCC_OSCILLATORTYPE_HSI)
 8003dcc:	687b      	ldr	r3, [r7, #4]
 8003dce:	681b      	ldr	r3, [r3, #0]
 8003dd0:	f003 0302 	and.w	r3, r3, #2
 8003dd4:	2b00      	cmp	r3, #0
 8003dd6:	d06f      	beq.n	8003eb8 <HAL_RCC_OscConfig+0x20c>
    assert_param(IS_RCC_HSI(RCC_OscInitStruct->HSIState));
    assert_param(IS_RCC_CALIBRATION_VALUE(RCC_OscInitStruct->HSICalibrationValue));

    /* Check if HSI is used as system clock or as PLL source when PLL is selected as system clock */
#if defined(STM32F446xx)
    if((__HAL_RCC_GET_SYSCLK_SOURCE() == RCC_CFGR_SWS_HSI)                                                                     ||\
 8003dd8:	4b50      	ldr	r3, [pc, #320]	; (8003f1c <HAL_RCC_OscConfig+0x270>)
 8003dda:	689b      	ldr	r3, [r3, #8]
 8003ddc:	f003 030c 	and.w	r3, r3, #12
 8003de0:	2b00      	cmp	r3, #0
 8003de2:	d017      	beq.n	8003e14 <HAL_RCC_OscConfig+0x168>
      ((__HAL_RCC_GET_SYSCLK_SOURCE() == RCC_CFGR_SWS_PLL) && ((RCC->PLLCFGR & RCC_PLLCFGR_PLLSRC) == RCC_PLLCFGR_PLLSRC_HSI)) ||\
 8003de4:	4b4d      	ldr	r3, [pc, #308]	; (8003f1c <HAL_RCC_OscConfig+0x270>)
 8003de6:	689b      	ldr	r3, [r3, #8]
 8003de8:	f003 030c 	and.w	r3, r3, #12
    if((__HAL_RCC_GET_SYSCLK_SOURCE() == RCC_CFGR_SWS_HSI)                                                                     ||\
 8003dec:	2b08      	cmp	r3, #8
 8003dee:	d105      	bne.n	8003dfc <HAL_RCC_OscConfig+0x150>
      ((__HAL_RCC_GET_SYSCLK_SOURCE() == RCC_CFGR_SWS_PLL) && ((RCC->PLLCFGR & RCC_PLLCFGR_PLLSRC) == RCC_PLLCFGR_PLLSRC_HSI)) ||\
 8003df0:	4b4a      	ldr	r3, [pc, #296]	; (8003f1c <HAL_RCC_OscConfig+0x270>)
 8003df2:	685b      	ldr	r3, [r3, #4]
 8003df4:	f403 0380 	and.w	r3, r3, #4194304	; 0x400000
 8003df8:	2b00      	cmp	r3, #0
 8003dfa:	d00b      	beq.n	8003e14 <HAL_RCC_OscConfig+0x168>
      ((__HAL_RCC_GET_SYSCLK_SOURCE() == RCC_CFGR_SWS_PLLR) && ((RCC->PLLCFGR & RCC_PLLCFGR_PLLSRC) == RCC_PLLCFGR_PLLSRC_HSI)))
 8003dfc:	4b47      	ldr	r3, [pc, #284]	; (8003f1c <HAL_RCC_OscConfig+0x270>)
 8003dfe:	689b      	ldr	r3, [r3, #8]
 8003e00:	f003 030c 	and.w	r3, r3, #12
      ((__HAL_RCC_GET_SYSCLK_SOURCE() == RCC_CFGR_SWS_PLL) && ((RCC->PLLCFGR & RCC_PLLCFGR_PLLSRC) == RCC_PLLCFGR_PLLSRC_HSI)) ||\
 8003e04:	2b0c      	cmp	r3, #12
 8003e06:	d11c      	bne.n	8003e42 <HAL_RCC_OscConfig+0x196>
      ((__HAL_RCC_GET_SYSCLK_SOURCE() == RCC_CFGR_SWS_PLLR) && ((RCC->PLLCFGR & RCC_PLLCFGR_PLLSRC) == RCC_PLLCFGR_PLLSRC_HSI)))
 8003e08:	4b44      	ldr	r3, [pc, #272]	; (8003f1c <HAL_RCC_OscConfig+0x270>)
 8003e0a:	685b      	ldr	r3, [r3, #4]
 8003e0c:	f403 0380 	and.w	r3, r3, #4194304	; 0x400000
 8003e10:	2b00      	cmp	r3, #0
 8003e12:	d116      	bne.n	8003e42 <HAL_RCC_OscConfig+0x196>
    if((__HAL_RCC_GET_SYSCLK_SOURCE() == RCC_CFGR_SWS_HSI)                                                                     ||\
      ((__HAL_RCC_GET_SYSCLK_SOURCE() == RCC_CFGR_SWS_PLL) && ((RCC->PLLCFGR & RCC_PLLCFGR_PLLSRC) == RCC_PLLCFGR_PLLSRC_HSI)))
#endif /* STM32F446xx */
    {
      /* When HSI is used as system clock it will not disabled */
      if((__HAL_RCC_GET_FLAG(RCC_FLAG_HSIRDY) != RESET) && (RCC_OscInitStruct->HSIState != RCC_HSI_ON))
 8003e14:	4b41      	ldr	r3, [pc, #260]	; (8003f1c <HAL_RCC_OscConfig+0x270>)
 8003e16:	681b      	ldr	r3, [r3, #0]
 8003e18:	f003 0302 	and.w	r3, r3, #2
 8003e1c:	2b00      	cmp	r3, #0
 8003e1e:	d005      	beq.n	8003e2c <HAL_RCC_OscConfig+0x180>
 8003e20:	687b      	ldr	r3, [r7, #4]
 8003e22:	68db      	ldr	r3, [r3, #12]
 8003e24:	2b01      	cmp	r3, #1
 8003e26:	d001      	beq.n	8003e2c <HAL_RCC_OscConfig+0x180>
      {
        return HAL_ERROR;
 8003e28:	2301      	movs	r3, #1
 8003e2a:	e18f      	b.n	800414c <HAL_RCC_OscConfig+0x4a0>
      }
      /* Otherwise, just the calibration is allowed */
      else
      {
        /* Adjusts the Internal High Speed oscillator (HSI) calibration value.*/
        __HAL_RCC_HSI_CALIBRATIONVALUE_ADJUST(RCC_OscInitStruct->HSICalibrationValue);
 8003e2c:	4b3b      	ldr	r3, [pc, #236]	; (8003f1c <HAL_RCC_OscConfig+0x270>)
 8003e2e:	681b      	ldr	r3, [r3, #0]
 8003e30:	f023 02f8 	bic.w	r2, r3, #248	; 0xf8
 8003e34:	687b      	ldr	r3, [r7, #4]
 8003e36:	691b      	ldr	r3, [r3, #16]
 8003e38:	00db      	lsls	r3, r3, #3
 8003e3a:	4938      	ldr	r1, [pc, #224]	; (8003f1c <HAL_RCC_OscConfig+0x270>)
 8003e3c:	4313      	orrs	r3, r2
 8003e3e:	600b      	str	r3, [r1, #0]
      if((__HAL_RCC_GET_FLAG(RCC_FLAG_HSIRDY) != RESET) && (RCC_OscInitStruct->HSIState != RCC_HSI_ON))
 8003e40:	e03a      	b.n	8003eb8 <HAL_RCC_OscConfig+0x20c>
      }
    }
    else
    {
      /* Check the HSI State */
      if((RCC_OscInitStruct->HSIState)!= RCC_HSI_OFF)
 8003e42:	687b      	ldr	r3, [r7, #4]
 8003e44:	68db      	ldr	r3, [r3, #12]
 8003e46:	2b00      	cmp	r3, #0
 8003e48:	d020      	beq.n	8003e8c <HAL_RCC_OscConfig+0x1e0>
      {
        /* Enable the Internal High Speed oscillator (HSI). */
        __HAL_RCC_HSI_ENABLE();
 8003e4a:	4b35      	ldr	r3, [pc, #212]	; (8003f20 <HAL_RCC_OscConfig+0x274>)
 8003e4c:	2201      	movs	r2, #1
 8003e4e:	601a      	str	r2, [r3, #0]

        /* Get Start Tick*/
        tickstart = HAL_GetTick();
 8003e50:	f7fd fff8 	bl	8001e44 <HAL_GetTick>
 8003e54:	6138      	str	r0, [r7, #16]

        /* Wait till HSI is ready */
        while(__HAL_RCC_GET_FLAG(RCC_FLAG_HSIRDY) == RESET)
 8003e56:	e008      	b.n	8003e6a <HAL_RCC_OscConfig+0x1be>
        {
          if((HAL_GetTick() - tickstart ) > HSI_TIMEOUT_VALUE)
 8003e58:	f7fd fff4 	bl	8001e44 <HAL_GetTick>
 8003e5c:	4602      	mov	r2, r0
 8003e5e:	693b      	ldr	r3, [r7, #16]
 8003e60:	1ad3      	subs	r3, r2, r3
 8003e62:	2b02      	cmp	r3, #2
 8003e64:	d901      	bls.n	8003e6a <HAL_RCC_OscConfig+0x1be>
          {
            return HAL_TIMEOUT;
 8003e66:	2303      	movs	r3, #3
 8003e68:	e170      	b.n	800414c <HAL_RCC_OscConfig+0x4a0>
        while(__HAL_RCC_GET_FLAG(RCC_FLAG_HSIRDY) == RESET)
 8003e6a:	4b2c      	ldr	r3, [pc, #176]	; (8003f1c <HAL_RCC_OscConfig+0x270>)
 8003e6c:	681b      	ldr	r3, [r3, #0]
 8003e6e:	f003 0302 	and.w	r3, r3, #2
 8003e72:	2b00      	cmp	r3, #0
 8003e74:	d0f0      	beq.n	8003e58 <HAL_RCC_OscConfig+0x1ac>
          }
        }

        /* Adjusts the Internal High Speed oscillator (HSI) calibration value.*/
        __HAL_RCC_HSI_CALIBRATIONVALUE_ADJUST(RCC_OscInitStruct->HSICalibrationValue);
 8003e76:	4b29      	ldr	r3, [pc, #164]	; (8003f1c <HAL_RCC_OscConfig+0x270>)
 8003e78:	681b      	ldr	r3, [r3, #0]
 8003e7a:	f023 02f8 	bic.w	r2, r3, #248	; 0xf8
 8003e7e:	687b      	ldr	r3, [r7, #4]
 8003e80:	691b      	ldr	r3, [r3, #16]
 8003e82:	00db      	lsls	r3, r3, #3
 8003e84:	4925      	ldr	r1, [pc, #148]	; (8003f1c <HAL_RCC_OscConfig+0x270>)
 8003e86:	4313      	orrs	r3, r2
 8003e88:	600b      	str	r3, [r1, #0]
 8003e8a:	e015      	b.n	8003eb8 <HAL_RCC_OscConfig+0x20c>
      }
      else
      {
        /* Disable the Internal High Speed oscillator (HSI). */
        __HAL_RCC_HSI_DISABLE();
 8003e8c:	4b24      	ldr	r3, [pc, #144]	; (8003f20 <HAL_RCC_OscConfig+0x274>)
 8003e8e:	2200      	movs	r2, #0
 8003e90:	601a      	str	r2, [r3, #0]

        /* Get Start Tick*/
        tickstart = HAL_GetTick();
 8003e92:	f7fd ffd7 	bl	8001e44 <HAL_GetTick>
 8003e96:	6138      	str	r0, [r7, #16]

        /* Wait till HSI is ready */
        while(__HAL_RCC_GET_FLAG(RCC_FLAG_HSIRDY) != RESET)
 8003e98:	e008      	b.n	8003eac <HAL_RCC_OscConfig+0x200>
        {
          if((HAL_GetTick() - tickstart ) > HSI_TIMEOUT_VALUE)
 8003e9a:	f7fd ffd3 	bl	8001e44 <HAL_GetTick>
 8003e9e:	4602      	mov	r2, r0
 8003ea0:	693b      	ldr	r3, [r7, #16]
 8003ea2:	1ad3      	subs	r3, r2, r3
 8003ea4:	2b02      	cmp	r3, #2
 8003ea6:	d901      	bls.n	8003eac <HAL_RCC_OscConfig+0x200>
          {
            return HAL_TIMEOUT;
 8003ea8:	2303      	movs	r3, #3
 8003eaa:	e14f      	b.n	800414c <HAL_RCC_OscConfig+0x4a0>
        while(__HAL_RCC_GET_FLAG(RCC_FLAG_HSIRDY) != RESET)
 8003eac:	4b1b      	ldr	r3, [pc, #108]	; (8003f1c <HAL_RCC_OscConfig+0x270>)
 8003eae:	681b      	ldr	r3, [r3, #0]
 8003eb0:	f003 0302 	and.w	r3, r3, #2
 8003eb4:	2b00      	cmp	r3, #0
 8003eb6:	d1f0      	bne.n	8003e9a <HAL_RCC_OscConfig+0x1ee>
        }
      }
    }
  }
  /*------------------------------ LSI Configuration -------------------------*/
  if(((RCC_OscInitStruct->OscillatorType) & RCC_OSCILLATORTYPE_LSI) == RCC_OSCILLATORTYPE_LSI)
 8003eb8:	687b      	ldr	r3, [r7, #4]
 8003eba:	681b      	ldr	r3, [r3, #0]
 8003ebc:	f003 0308 	and.w	r3, r3, #8
 8003ec0:	2b00      	cmp	r3, #0
 8003ec2:	d037      	beq.n	8003f34 <HAL_RCC_OscConfig+0x288>
  {
    /* Check the parameters */
    assert_param(IS_RCC_LSI(RCC_OscInitStruct->LSIState));

    /* Check the LSI State */
    if((RCC_OscInitStruct->LSIState)!= RCC_LSI_OFF)
 8003ec4:	687b      	ldr	r3, [r7, #4]
 8003ec6:	695b      	ldr	r3, [r3, #20]
 8003ec8:	2b00      	cmp	r3, #0
 8003eca:	d016      	beq.n	8003efa <HAL_RCC_OscConfig+0x24e>
    {
      /* Enable the Internal Low Speed oscillator (LSI). */
      __HAL_RCC_LSI_ENABLE();
 8003ecc:	4b15      	ldr	r3, [pc, #84]	; (8003f24 <HAL_RCC_OscConfig+0x278>)
 8003ece:	2201      	movs	r2, #1
 8003ed0:	601a      	str	r2, [r3, #0]

      /* Get Start Tick*/
      tickstart = HAL_GetTick();
 8003ed2:	f7fd ffb7 	bl	8001e44 <HAL_GetTick>
 8003ed6:	6138      	str	r0, [r7, #16]

      /* Wait till LSI is ready */
      while(__HAL_RCC_GET_FLAG(RCC_FLAG_LSIRDY) == RESET)
 8003ed8:	e008      	b.n	8003eec <HAL_RCC_OscConfig+0x240>
      {
        if((HAL_GetTick() - tickstart ) > LSI_TIMEOUT_VALUE)
 8003eda:	f7fd ffb3 	bl	8001e44 <HAL_GetTick>
 8003ede:	4602      	mov	r2, r0
 8003ee0:	693b      	ldr	r3, [r7, #16]
 8003ee2:	1ad3      	subs	r3, r2, r3
 8003ee4:	2b02      	cmp	r3, #2
 8003ee6:	d901      	bls.n	8003eec <HAL_RCC_OscConfig+0x240>
        {
          return HAL_TIMEOUT;
 8003ee8:	2303      	movs	r3, #3
 8003eea:	e12f      	b.n	800414c <HAL_RCC_OscConfig+0x4a0>
      while(__HAL_RCC_GET_FLAG(RCC_FLAG_LSIRDY) == RESET)
 8003eec:	4b0b      	ldr	r3, [pc, #44]	; (8003f1c <HAL_RCC_OscConfig+0x270>)
 8003eee:	6f5b      	ldr	r3, [r3, #116]	; 0x74
 8003ef0:	f003 0302 	and.w	r3, r3, #2
 8003ef4:	2b00      	cmp	r3, #0
 8003ef6:	d0f0      	beq.n	8003eda <HAL_RCC_OscConfig+0x22e>
 8003ef8:	e01c      	b.n	8003f34 <HAL_RCC_OscConfig+0x288>
      }
    }
    else
    {
      /* Disable the Internal Low Speed oscillator (LSI). */
      __HAL_RCC_LSI_DISABLE();
 8003efa:	4b0a      	ldr	r3, [pc, #40]	; (8003f24 <HAL_RCC_OscConfig+0x278>)
 8003efc:	2200      	movs	r2, #0
 8003efe:	601a      	str	r2, [r3, #0]

      /* Get Start Tick*/
      tickstart = HAL_GetTick();
 8003f00:	f7fd ffa0 	bl	8001e44 <HAL_GetTick>
 8003f04:	6138      	str	r0, [r7, #16]

      /* Wait till LSI is ready */
      while(__HAL_RCC_GET_FLAG(RCC_FLAG_LSIRDY) != RESET)
 8003f06:	e00f      	b.n	8003f28 <HAL_RCC_OscConfig+0x27c>
      {
        if((HAL_GetTick() - tickstart ) > LSI_TIMEOUT_VALUE)
 8003f08:	f7fd ff9c 	bl	8001e44 <HAL_GetTick>
 8003f0c:	4602      	mov	r2, r0
 8003f0e:	693b      	ldr	r3, [r7, #16]
 8003f10:	1ad3      	subs	r3, r2, r3
 8003f12:	2b02      	cmp	r3, #2
 8003f14:	d908      	bls.n	8003f28 <HAL_RCC_OscConfig+0x27c>
        {
          return HAL_TIMEOUT;
 8003f16:	2303      	movs	r3, #3
 8003f18:	e118      	b.n	800414c <HAL_RCC_OscConfig+0x4a0>
 8003f1a:	bf00      	nop
 8003f1c:	40023800 	.word	0x40023800
 8003f20:	42470000 	.word	0x42470000
 8003f24:	42470e80 	.word	0x42470e80
      while(__HAL_RCC_GET_FLAG(RCC_FLAG_LSIRDY) != RESET)
 8003f28:	4b8a      	ldr	r3, [pc, #552]	; (8004154 <HAL_RCC_OscConfig+0x4a8>)
 8003f2a:	6f5b      	ldr	r3, [r3, #116]	; 0x74
 8003f2c:	f003 0302 	and.w	r3, r3, #2
 8003f30:	2b00      	cmp	r3, #0
 8003f32:	d1e9      	bne.n	8003f08 <HAL_RCC_OscConfig+0x25c>
        }
      }
    }
  }
  /*------------------------------ LSE Configuration -------------------------*/
  if(((RCC_OscInitStruct->OscillatorType) & RCC_OSCILLATORTYPE_LSE) == RCC_OSCILLATORTYPE_LSE)
 8003f34:	687b      	ldr	r3, [r7, #4]
 8003f36:	681b      	ldr	r3, [r3, #0]
 8003f38:	f003 0304 	and.w	r3, r3, #4
 8003f3c:	2b00      	cmp	r3, #0
 8003f3e:	f000 8097 	beq.w	8004070 <HAL_RCC_OscConfig+0x3c4>
  {
    FlagStatus       pwrclkchanged = RESET;
 8003f42:	2300      	movs	r3, #0
 8003f44:	75fb      	strb	r3, [r7, #23]
    /* Check the parameters */
    assert_param(IS_RCC_LSE(RCC_OscInitStruct->LSEState));

    /* Update LSE configuration in Backup Domain control register    */
    /* Requires to enable write access to Backup Domain of necessary */
    if(__HAL_RCC_PWR_IS_CLK_DISABLED())
 8003f46:	4b83      	ldr	r3, [pc, #524]	; (8004154 <HAL_RCC_OscConfig+0x4a8>)
 8003f48:	6c1b      	ldr	r3, [r3, #64]	; 0x40
 8003f4a:	f003 5380 	and.w	r3, r3, #268435456	; 0x10000000
 8003f4e:	2b00      	cmp	r3, #0
 8003f50:	d10f      	bne.n	8003f72 <HAL_RCC_OscConfig+0x2c6>
    {
      __HAL_RCC_PWR_CLK_ENABLE();
 8003f52:	2300      	movs	r3, #0
 8003f54:	60fb      	str	r3, [r7, #12]
 8003f56:	4b7f      	ldr	r3, [pc, #508]	; (8004154 <HAL_RCC_OscConfig+0x4a8>)
 8003f58:	6c1b      	ldr	r3, [r3, #64]	; 0x40
 8003f5a:	4a7e      	ldr	r2, [pc, #504]	; (8004154 <HAL_RCC_OscConfig+0x4a8>)
 8003f5c:	f043 5380 	orr.w	r3, r3, #268435456	; 0x10000000
 8003f60:	6413      	str	r3, [r2, #64]	; 0x40
 8003f62:	4b7c      	ldr	r3, [pc, #496]	; (8004154 <HAL_RCC_OscConfig+0x4a8>)
 8003f64:	6c1b      	ldr	r3, [r3, #64]	; 0x40
 8003f66:	f003 5380 	and.w	r3, r3, #268435456	; 0x10000000
 8003f6a:	60fb      	str	r3, [r7, #12]
 8003f6c:	68fb      	ldr	r3, [r7, #12]
      pwrclkchanged = SET;
 8003f6e:	2301      	movs	r3, #1
 8003f70:	75fb      	strb	r3, [r7, #23]
    }

    if(HAL_IS_BIT_CLR(PWR->CR, PWR_CR_DBP))
 8003f72:	4b79      	ldr	r3, [pc, #484]	; (8004158 <HAL_RCC_OscConfig+0x4ac>)
 8003f74:	681b      	ldr	r3, [r3, #0]
 8003f76:	f403 7380 	and.w	r3, r3, #256	; 0x100
 8003f7a:	2b00      	cmp	r3, #0
 8003f7c:	d118      	bne.n	8003fb0 <HAL_RCC_OscConfig+0x304>
    {
      /* Enable write access to Backup domain */
      SET_BIT(PWR->CR, PWR_CR_DBP);
 8003f7e:	4b76      	ldr	r3, [pc, #472]	; (8004158 <HAL_RCC_OscConfig+0x4ac>)
 8003f80:	681b      	ldr	r3, [r3, #0]
 8003f82:	4a75      	ldr	r2, [pc, #468]	; (8004158 <HAL_RCC_OscConfig+0x4ac>)
 8003f84:	f443 7380 	orr.w	r3, r3, #256	; 0x100
 8003f88:	6013      	str	r3, [r2, #0]

      /* Wait for Backup domain Write protection disable */
      tickstart = HAL_GetTick();
 8003f8a:	f7fd ff5b 	bl	8001e44 <HAL_GetTick>
 8003f8e:	6138      	str	r0, [r7, #16]

      while(HAL_IS_BIT_CLR(PWR->CR, PWR_CR_DBP))
 8003f90:	e008      	b.n	8003fa4 <HAL_RCC_OscConfig+0x2f8>
      {
        if((HAL_GetTick() - tickstart) > RCC_DBP_TIMEOUT_VALUE)
 8003f92:	f7fd ff57 	bl	8001e44 <HAL_GetTick>
 8003f96:	4602      	mov	r2, r0
 8003f98:	693b      	ldr	r3, [r7, #16]
 8003f9a:	1ad3      	subs	r3, r2, r3
 8003f9c:	2b02      	cmp	r3, #2
 8003f9e:	d901      	bls.n	8003fa4 <HAL_RCC_OscConfig+0x2f8>
        {
          return HAL_TIMEOUT;
 8003fa0:	2303      	movs	r3, #3
 8003fa2:	e0d3      	b.n	800414c <HAL_RCC_OscConfig+0x4a0>
      while(HAL_IS_BIT_CLR(PWR->CR, PWR_CR_DBP))
 8003fa4:	4b6c      	ldr	r3, [pc, #432]	; (8004158 <HAL_RCC_OscConfig+0x4ac>)
 8003fa6:	681b      	ldr	r3, [r3, #0]
 8003fa8:	f403 7380 	and.w	r3, r3, #256	; 0x100
 8003fac:	2b00      	cmp	r3, #0
 8003fae:	d0f0      	beq.n	8003f92 <HAL_RCC_OscConfig+0x2e6>
        }
      }
    }

    /* Set the new LSE configuration -----------------------------------------*/
    __HAL_RCC_LSE_CONFIG(RCC_OscInitStruct->LSEState);
 8003fb0:	687b      	ldr	r3, [r7, #4]
 8003fb2:	689b      	ldr	r3, [r3, #8]
 8003fb4:	2b01      	cmp	r3, #1
 8003fb6:	d106      	bne.n	8003fc6 <HAL_RCC_OscConfig+0x31a>
 8003fb8:	4b66      	ldr	r3, [pc, #408]	; (8004154 <HAL_RCC_OscConfig+0x4a8>)
 8003fba:	6f1b      	ldr	r3, [r3, #112]	; 0x70
 8003fbc:	4a65      	ldr	r2, [pc, #404]	; (8004154 <HAL_RCC_OscConfig+0x4a8>)
 8003fbe:	f043 0301 	orr.w	r3, r3, #1
 8003fc2:	6713      	str	r3, [r2, #112]	; 0x70
 8003fc4:	e01c      	b.n	8004000 <HAL_RCC_OscConfig+0x354>
 8003fc6:	687b      	ldr	r3, [r7, #4]
 8003fc8:	689b      	ldr	r3, [r3, #8]
 8003fca:	2b05      	cmp	r3, #5
 8003fcc:	d10c      	bne.n	8003fe8 <HAL_RCC_OscConfig+0x33c>
 8003fce:	4b61      	ldr	r3, [pc, #388]	; (8004154 <HAL_RCC_OscConfig+0x4a8>)
 8003fd0:	6f1b      	ldr	r3, [r3, #112]	; 0x70
 8003fd2:	4a60      	ldr	r2, [pc, #384]	; (8004154 <HAL_RCC_OscConfig+0x4a8>)
 8003fd4:	f043 0304 	orr.w	r3, r3, #4
 8003fd8:	6713      	str	r3, [r2, #112]	; 0x70
 8003fda:	4b5e      	ldr	r3, [pc, #376]	; (8004154 <HAL_RCC_OscConfig+0x4a8>)
 8003fdc:	6f1b      	ldr	r3, [r3, #112]	; 0x70
 8003fde:	4a5d      	ldr	r2, [pc, #372]	; (8004154 <HAL_RCC_OscConfig+0x4a8>)
 8003fe0:	f043 0301 	orr.w	r3, r3, #1
 8003fe4:	6713      	str	r3, [r2, #112]	; 0x70
 8003fe6:	e00b      	b.n	8004000 <HAL_RCC_OscConfig+0x354>
 8003fe8:	4b5a      	ldr	r3, [pc, #360]	; (8004154 <HAL_RCC_OscConfig+0x4a8>)
 8003fea:	6f1b      	ldr	r3, [r3, #112]	; 0x70
 8003fec:	4a59      	ldr	r2, [pc, #356]	; (8004154 <HAL_RCC_OscConfig+0x4a8>)
 8003fee:	f023 0301 	bic.w	r3, r3, #1
 8003ff2:	6713      	str	r3, [r2, #112]	; 0x70
 8003ff4:	4b57      	ldr	r3, [pc, #348]	; (8004154 <HAL_RCC_OscConfig+0x4a8>)
 8003ff6:	6f1b      	ldr	r3, [r3, #112]	; 0x70
 8003ff8:	4a56      	ldr	r2, [pc, #344]	; (8004154 <HAL_RCC_OscConfig+0x4a8>)
 8003ffa:	f023 0304 	bic.w	r3, r3, #4
 8003ffe:	6713      	str	r3, [r2, #112]	; 0x70
    /* Check the LSE State */
    if((RCC_OscInitStruct->LSEState) != RCC_LSE_OFF)
 8004000:	687b      	ldr	r3, [r7, #4]
 8004002:	689b      	ldr	r3, [r3, #8]
 8004004:	2b00      	cmp	r3, #0
 8004006:	d015      	beq.n	8004034 <HAL_RCC_OscConfig+0x388>
    {
      /* Get Start Tick*/
      tickstart = HAL_GetTick();
 8004008:	f7fd ff1c 	bl	8001e44 <HAL_GetTick>
 800400c:	6138      	str	r0, [r7, #16]

      /* Wait till LSE is ready */
      while(__HAL_RCC_GET_FLAG(RCC_FLAG_LSERDY) == RESET)
 800400e:	e00a      	b.n	8004026 <HAL_RCC_OscConfig+0x37a>
      {
        if((HAL_GetTick() - tickstart ) > RCC_LSE_TIMEOUT_VALUE)
 8004010:	f7fd ff18 	bl	8001e44 <HAL_GetTick>
 8004014:	4602      	mov	r2, r0
 8004016:	693b      	ldr	r3, [r7, #16]
 8004018:	1ad3      	subs	r3, r2, r3
 800401a:	f241 3288 	movw	r2, #5000	; 0x1388
 800401e:	4293      	cmp	r3, r2
 8004020:	d901      	bls.n	8004026 <HAL_RCC_OscConfig+0x37a>
        {
          return HAL_TIMEOUT;
 8004022:	2303      	movs	r3, #3
 8004024:	e092      	b.n	800414c <HAL_RCC_OscConfig+0x4a0>
      while(__HAL_RCC_GET_FLAG(RCC_FLAG_LSERDY) == RESET)
 8004026:	4b4b      	ldr	r3, [pc, #300]	; (8004154 <HAL_RCC_OscConfig+0x4a8>)
 8004028:	6f1b      	ldr	r3, [r3, #112]	; 0x70
 800402a:	f003 0302 	and.w	r3, r3, #2
 800402e:	2b00      	cmp	r3, #0
 8004030:	d0ee      	beq.n	8004010 <HAL_RCC_OscConfig+0x364>
 8004032:	e014      	b.n	800405e <HAL_RCC_OscConfig+0x3b2>
      }
    }
    else
    {
      /* Get Start Tick*/
      tickstart = HAL_GetTick();
 8004034:	f7fd ff06 	bl	8001e44 <HAL_GetTick>
 8004038:	6138      	str	r0, [r7, #16]

      /* Wait till LSE is ready */
      while(__HAL_RCC_GET_FLAG(RCC_FLAG_LSERDY) != RESET)
 800403a:	e00a      	b.n	8004052 <HAL_RCC_OscConfig+0x3a6>
      {
        if((HAL_GetTick() - tickstart ) > RCC_LSE_TIMEOUT_VALUE)
 800403c:	f7fd ff02 	bl	8001e44 <HAL_GetTick>
 8004040:	4602      	mov	r2, r0
 8004042:	693b      	ldr	r3, [r7, #16]
 8004044:	1ad3      	subs	r3, r2, r3
 8004046:	f241 3288 	movw	r2, #5000	; 0x1388
 800404a:	4293      	cmp	r3, r2
 800404c:	d901      	bls.n	8004052 <HAL_RCC_OscConfig+0x3a6>
        {
          return HAL_TIMEOUT;
 800404e:	2303      	movs	r3, #3
 8004050:	e07c      	b.n	800414c <HAL_RCC_OscConfig+0x4a0>
      while(__HAL_RCC_GET_FLAG(RCC_FLAG_LSERDY) != RESET)
 8004052:	4b40      	ldr	r3, [pc, #256]	; (8004154 <HAL_RCC_OscConfig+0x4a8>)
 8004054:	6f1b      	ldr	r3, [r3, #112]	; 0x70
 8004056:	f003 0302 	and.w	r3, r3, #2
 800405a:	2b00      	cmp	r3, #0
 800405c:	d1ee      	bne.n	800403c <HAL_RCC_OscConfig+0x390>
        }
      }
    }

    /* Restore clock configuration if changed */
    if(pwrclkchanged == SET)
 800405e:	7dfb      	ldrb	r3, [r7, #23]
 8004060:	2b01      	cmp	r3, #1
 8004062:	d105      	bne.n	8004070 <HAL_RCC_OscConfig+0x3c4>
    {
      __HAL_RCC_PWR_CLK_DISABLE();
 8004064:	4b3b      	ldr	r3, [pc, #236]	; (8004154 <HAL_RCC_OscConfig+0x4a8>)
 8004066:	6c1b      	ldr	r3, [r3, #64]	; 0x40
 8004068:	4a3a      	ldr	r2, [pc, #232]	; (8004154 <HAL_RCC_OscConfig+0x4a8>)
 800406a:	f023 5380 	bic.w	r3, r3, #268435456	; 0x10000000
 800406e:	6413      	str	r3, [r2, #64]	; 0x40
    }
  }
  /*-------------------------------- PLL Configuration -----------------------*/
  /* Check the parameters */
  assert_param(IS_RCC_PLL(RCC_OscInitStruct->PLL.PLLState));
  if ((RCC_OscInitStruct->PLL.PLLState) != RCC_PLL_NONE)
 8004070:	687b      	ldr	r3, [r7, #4]
 8004072:	699b      	ldr	r3, [r3, #24]
 8004074:	2b00      	cmp	r3, #0
 8004076:	d068      	beq.n	800414a <HAL_RCC_OscConfig+0x49e>
  {
    /* Check if the PLL is used as system clock or not */
    if(__HAL_RCC_GET_SYSCLK_SOURCE() != RCC_CFGR_SWS_PLL)
 8004078:	4b36      	ldr	r3, [pc, #216]	; (8004154 <HAL_RCC_OscConfig+0x4a8>)
 800407a:	689b      	ldr	r3, [r3, #8]
 800407c:	f003 030c 	and.w	r3, r3, #12
 8004080:	2b08      	cmp	r3, #8
 8004082:	d060      	beq.n	8004146 <HAL_RCC_OscConfig+0x49a>
    {
      if((RCC_OscInitStruct->PLL.PLLState) == RCC_PLL_ON)
 8004084:	687b      	ldr	r3, [r7, #4]
 8004086:	699b      	ldr	r3, [r3, #24]
 8004088:	2b02      	cmp	r3, #2
 800408a:	d145      	bne.n	8004118 <HAL_RCC_OscConfig+0x46c>
        assert_param(IS_RCC_PLLP_VALUE(RCC_OscInitStruct->PLL.PLLP));
        assert_param(IS_RCC_PLLQ_VALUE(RCC_OscInitStruct->PLL.PLLQ));
        assert_param(IS_RCC_PLLR_VALUE(RCC_OscInitStruct->PLL.PLLR));

        /* Disable the main PLL. */
        __HAL_RCC_PLL_DISABLE();
 800408c:	4b33      	ldr	r3, [pc, #204]	; (800415c <HAL_RCC_OscConfig+0x4b0>)
 800408e:	2200      	movs	r2, #0
 8004090:	601a      	str	r2, [r3, #0]

        /* Get Start Tick*/
        tickstart = HAL_GetTick();
 8004092:	f7fd fed7 	bl	8001e44 <HAL_GetTick>
 8004096:	6138      	str	r0, [r7, #16]

        /* Wait till PLL is ready */
        while(__HAL_RCC_GET_FLAG(RCC_FLAG_PLLRDY) != RESET)
 8004098:	e008      	b.n	80040ac <HAL_RCC_OscConfig+0x400>
        {
          if((HAL_GetTick() - tickstart ) > PLL_TIMEOUT_VALUE)
 800409a:	f7fd fed3 	bl	8001e44 <HAL_GetTick>
 800409e:	4602      	mov	r2, r0
 80040a0:	693b      	ldr	r3, [r7, #16]
 80040a2:	1ad3      	subs	r3, r2, r3
 80040a4:	2b02      	cmp	r3, #2
 80040a6:	d901      	bls.n	80040ac <HAL_RCC_OscConfig+0x400>
          {
            return HAL_TIMEOUT;
 80040a8:	2303      	movs	r3, #3
 80040aa:	e04f      	b.n	800414c <HAL_RCC_OscConfig+0x4a0>
        while(__HAL_RCC_GET_FLAG(RCC_FLAG_PLLRDY) != RESET)
 80040ac:	4b29      	ldr	r3, [pc, #164]	; (8004154 <HAL_RCC_OscConfig+0x4a8>)
 80040ae:	681b      	ldr	r3, [r3, #0]
 80040b0:	f003 7300 	and.w	r3, r3, #33554432	; 0x2000000
 80040b4:	2b00      	cmp	r3, #0
 80040b6:	d1f0      	bne.n	800409a <HAL_RCC_OscConfig+0x3ee>
          }
        }

        /* Configure the main PLL clock source, multiplication and division factors. */
        __HAL_RCC_PLL_CONFIG(RCC_OscInitStruct->PLL.PLLSource,
 80040b8:	687b      	ldr	r3, [r7, #4]
 80040ba:	69da      	ldr	r2, [r3, #28]
 80040bc:	687b      	ldr	r3, [r7, #4]
 80040be:	6a1b      	ldr	r3, [r3, #32]
 80040c0:	431a      	orrs	r2, r3
 80040c2:	687b      	ldr	r3, [r7, #4]
 80040c4:	6a5b      	ldr	r3, [r3, #36]	; 0x24
 80040c6:	019b      	lsls	r3, r3, #6
 80040c8:	431a      	orrs	r2, r3
 80040ca:	687b      	ldr	r3, [r7, #4]
 80040cc:	6a9b      	ldr	r3, [r3, #40]	; 0x28
 80040ce:	085b      	lsrs	r3, r3, #1
 80040d0:	3b01      	subs	r3, #1
 80040d2:	041b      	lsls	r3, r3, #16
 80040d4:	431a      	orrs	r2, r3
 80040d6:	687b      	ldr	r3, [r7, #4]
 80040d8:	6adb      	ldr	r3, [r3, #44]	; 0x2c
 80040da:	061b      	lsls	r3, r3, #24
 80040dc:	431a      	orrs	r2, r3
 80040de:	687b      	ldr	r3, [r7, #4]
 80040e0:	6b1b      	ldr	r3, [r3, #48]	; 0x30
 80040e2:	071b      	lsls	r3, r3, #28
 80040e4:	491b      	ldr	r1, [pc, #108]	; (8004154 <HAL_RCC_OscConfig+0x4a8>)
 80040e6:	4313      	orrs	r3, r2
 80040e8:	604b      	str	r3, [r1, #4]
                             RCC_OscInitStruct->PLL.PLLP,
                             RCC_OscInitStruct->PLL.PLLQ,
                             RCC_OscInitStruct->PLL.PLLR);

        /* Enable the main PLL. */
        __HAL_RCC_PLL_ENABLE();
 80040ea:	4b1c      	ldr	r3, [pc, #112]	; (800415c <HAL_RCC_OscConfig+0x4b0>)
 80040ec:	2201      	movs	r2, #1
 80040ee:	601a      	str	r2, [r3, #0]

        /* Get Start Tick*/
        tickstart = HAL_GetTick();
 80040f0:	f7fd fea8 	bl	8001e44 <HAL_GetTick>
 80040f4:	6138      	str	r0, [r7, #16]

        /* Wait till PLL is ready */
        while(__HAL_RCC_GET_FLAG(RCC_FLAG_PLLRDY) == RESET)
 80040f6:	e008      	b.n	800410a <HAL_RCC_OscConfig+0x45e>
        {
          if((HAL_GetTick() - tickstart ) > PLL_TIMEOUT_VALUE)
 80040f8:	f7fd fea4 	bl	8001e44 <HAL_GetTick>
 80040fc:	4602      	mov	r2, r0
 80040fe:	693b      	ldr	r3, [r7, #16]
 8004100:	1ad3      	subs	r3, r2, r3
 8004102:	2b02      	cmp	r3, #2
 8004104:	d901      	bls.n	800410a <HAL_RCC_OscConfig+0x45e>
          {
            return HAL_TIMEOUT;
 8004106:	2303      	movs	r3, #3
 8004108:	e020      	b.n	800414c <HAL_RCC_OscConfig+0x4a0>
        while(__HAL_RCC_GET_FLAG(RCC_FLAG_PLLRDY) == RESET)
 800410a:	4b12      	ldr	r3, [pc, #72]	; (8004154 <HAL_RCC_OscConfig+0x4a8>)
 800410c:	681b      	ldr	r3, [r3, #0]
 800410e:	f003 7300 	and.w	r3, r3, #33554432	; 0x2000000
 8004112:	2b00      	cmp	r3, #0
 8004114:	d0f0      	beq.n	80040f8 <HAL_RCC_OscConfig+0x44c>
 8004116:	e018      	b.n	800414a <HAL_RCC_OscConfig+0x49e>
        }
      }
      else
      {
        /* Disable the main PLL. */
        __HAL_RCC_PLL_DISABLE();
 8004118:	4b10      	ldr	r3, [pc, #64]	; (800415c <HAL_RCC_OscConfig+0x4b0>)
 800411a:	2200      	movs	r2, #0
 800411c:	601a      	str	r2, [r3, #0]

        /* Get Start Tick*/
        tickstart = HAL_GetTick();
 800411e:	f7fd fe91 	bl	8001e44 <HAL_GetTick>
 8004122:	6138      	str	r0, [r7, #16]

        /* Wait till PLL is ready */
        while(__HAL_RCC_GET_FLAG(RCC_FLAG_PLLRDY) != RESET)
 8004124:	e008      	b.n	8004138 <HAL_RCC_OscConfig+0x48c>
        {
          if((HAL_GetTick() - tickstart ) > PLL_TIMEOUT_VALUE)
 8004126:	f7fd fe8d 	bl	8001e44 <HAL_GetTick>
 800412a:	4602      	mov	r2, r0
 800412c:	693b      	ldr	r3, [r7, #16]
 800412e:	1ad3      	subs	r3, r2, r3
 8004130:	2b02      	cmp	r3, #2
 8004132:	d901      	bls.n	8004138 <HAL_RCC_OscConfig+0x48c>
          {
            return HAL_TIMEOUT;
 8004134:	2303      	movs	r3, #3
 8004136:	e009      	b.n	800414c <HAL_RCC_OscConfig+0x4a0>
        while(__HAL_RCC_GET_FLAG(RCC_FLAG_PLLRDY) != RESET)
 8004138:	4b06      	ldr	r3, [pc, #24]	; (8004154 <HAL_RCC_OscConfig+0x4a8>)
 800413a:	681b      	ldr	r3, [r3, #0]
 800413c:	f003 7300 	and.w	r3, r3, #33554432	; 0x2000000
 8004140:	2b00      	cmp	r3, #0
 8004142:	d1f0      	bne.n	8004126 <HAL_RCC_OscConfig+0x47a>
 8004144:	e001      	b.n	800414a <HAL_RCC_OscConfig+0x49e>
        }
      }
    }
    else
    {
      return HAL_ERROR;
 8004146:	2301      	movs	r3, #1
 8004148:	e000      	b.n	800414c <HAL_RCC_OscConfig+0x4a0>
    }
  }
  return HAL_OK;
 800414a:	2300      	movs	r3, #0
}
 800414c:	4618      	mov	r0, r3
 800414e:	3718      	adds	r7, #24
 8004150:	46bd      	mov	sp, r7
 8004152:	bd80      	pop	{r7, pc}
 8004154:	40023800 	.word	0x40023800
 8004158:	40007000 	.word	0x40007000
 800415c:	42470060 	.word	0x42470060

08004160 <HAL_SPI_Init>:
  * @param  hspi pointer to a SPI_HandleTypeDef structure that contains
  *               the configuration information for SPI module.
  * @retval HAL status
  */
HAL_StatusTypeDef HAL_SPI_Init(SPI_HandleTypeDef *hspi)
{
 8004160:	b580      	push	{r7, lr}
 8004162:	b082      	sub	sp, #8
 8004164:	af00      	add	r7, sp, #0
 8004166:	6078      	str	r0, [r7, #4]
  /* Check the SPI handle allocation */
  if (hspi == NULL)
 8004168:	687b      	ldr	r3, [r7, #4]
 800416a:	2b00      	cmp	r3, #0
 800416c:	d101      	bne.n	8004172 <HAL_SPI_Init+0x12>
  {
    return HAL_ERROR;
 800416e:	2301      	movs	r3, #1
 8004170:	e056      	b.n	8004220 <HAL_SPI_Init+0xc0>
  if (hspi->Init.CRCCalculation == SPI_CRCCALCULATION_ENABLE)
  {
    assert_param(IS_SPI_CRC_POLYNOMIAL(hspi->Init.CRCPolynomial));
  }
#else
  hspi->Init.CRCCalculation = SPI_CRCCALCULATION_DISABLE;
 8004172:	687b      	ldr	r3, [r7, #4]
 8004174:	2200      	movs	r2, #0
 8004176:	629a      	str	r2, [r3, #40]	; 0x28
#endif /* USE_SPI_CRC */

  if (hspi->State == HAL_SPI_STATE_RESET)
 8004178:	687b      	ldr	r3, [r7, #4]
 800417a:	f893 3051 	ldrb.w	r3, [r3, #81]	; 0x51
 800417e:	b2db      	uxtb	r3, r3
 8004180:	2b00      	cmp	r3, #0
 8004182:	d106      	bne.n	8004192 <HAL_SPI_Init+0x32>
  {
    /* Allocate lock resource and initialize it */
    hspi->Lock = HAL_UNLOCKED;
 8004184:	687b      	ldr	r3, [r7, #4]
 8004186:	2200      	movs	r2, #0
 8004188:	f883 2050 	strb.w	r2, [r3, #80]	; 0x50

    /* Init the low level hardware : GPIO, CLOCK, NVIC... */
    hspi->MspInitCallback(hspi);
#else
    /* Init the low level hardware : GPIO, CLOCK, NVIC... */
    HAL_SPI_MspInit(hspi);
 800418c:	6878      	ldr	r0, [r7, #4]
 800418e:	f7fd fc85 	bl	8001a9c <HAL_SPI_MspInit>
#endif /* USE_HAL_SPI_REGISTER_CALLBACKS */
  }

  hspi->State = HAL_SPI_STATE_BUSY;
 8004192:	687b      	ldr	r3, [r7, #4]
 8004194:	2202      	movs	r2, #2
 8004196:	f883 2051 	strb.w	r2, [r3, #81]	; 0x51

  /* Disable the selected SPI peripheral */
  __HAL_SPI_DISABLE(hspi);
 800419a:	687b      	ldr	r3, [r7, #4]
 800419c:	681b      	ldr	r3, [r3, #0]
 800419e:	681a      	ldr	r2, [r3, #0]
 80041a0:	687b      	ldr	r3, [r7, #4]
 80041a2:	681b      	ldr	r3, [r3, #0]
 80041a4:	f022 0240 	bic.w	r2, r2, #64	; 0x40
 80041a8:	601a      	str	r2, [r3, #0]

  /*----------------------- SPIx CR1 & CR2 Configuration ---------------------*/
  /* Configure : SPI Mode, Communication Mode, Data size, Clock polarity and phase, NSS management,
  Communication speed, First bit and CRC calculation state */
  WRITE_REG(hspi->Instance->CR1, (hspi->Init.Mode | hspi->Init.Direction | hspi->Init.DataSize |
 80041aa:	687b      	ldr	r3, [r7, #4]
 80041ac:	685a      	ldr	r2, [r3, #4]
 80041ae:	687b      	ldr	r3, [r7, #4]
 80041b0:	689b      	ldr	r3, [r3, #8]
 80041b2:	431a      	orrs	r2, r3
 80041b4:	687b      	ldr	r3, [r7, #4]
 80041b6:	68db      	ldr	r3, [r3, #12]
 80041b8:	431a      	orrs	r2, r3
 80041ba:	687b      	ldr	r3, [r7, #4]
 80041bc:	691b      	ldr	r3, [r3, #16]
 80041be:	431a      	orrs	r2, r3
 80041c0:	687b      	ldr	r3, [r7, #4]
 80041c2:	695b      	ldr	r3, [r3, #20]
 80041c4:	431a      	orrs	r2, r3
 80041c6:	687b      	ldr	r3, [r7, #4]
 80041c8:	699b      	ldr	r3, [r3, #24]
 80041ca:	f403 7300 	and.w	r3, r3, #512	; 0x200
 80041ce:	431a      	orrs	r2, r3
 80041d0:	687b      	ldr	r3, [r7, #4]
 80041d2:	69db      	ldr	r3, [r3, #28]
 80041d4:	431a      	orrs	r2, r3
 80041d6:	687b      	ldr	r3, [r7, #4]
 80041d8:	6a1b      	ldr	r3, [r3, #32]
 80041da:	ea42 0103 	orr.w	r1, r2, r3
 80041de:	687b      	ldr	r3, [r7, #4]
 80041e0:	6a9a      	ldr	r2, [r3, #40]	; 0x28
 80041e2:	687b      	ldr	r3, [r7, #4]
 80041e4:	681b      	ldr	r3, [r3, #0]
 80041e6:	430a      	orrs	r2, r1
 80041e8:	601a      	str	r2, [r3, #0]
                                  hspi->Init.CLKPolarity | hspi->Init.CLKPhase | (hspi->Init.NSS & SPI_CR1_SSM) |
                                  hspi->Init.BaudRatePrescaler | hspi->Init.FirstBit  | hspi->Init.CRCCalculation));

  /* Configure : NSS management, TI Mode */
  WRITE_REG(hspi->Instance->CR2, (((hspi->Init.NSS >> 16U) & SPI_CR2_SSOE) | hspi->Init.TIMode));
 80041ea:	687b      	ldr	r3, [r7, #4]
 80041ec:	699b      	ldr	r3, [r3, #24]
 80041ee:	0c1b      	lsrs	r3, r3, #16
 80041f0:	f003 0104 	and.w	r1, r3, #4
 80041f4:	687b      	ldr	r3, [r7, #4]
 80041f6:	6a5a      	ldr	r2, [r3, #36]	; 0x24
 80041f8:	687b      	ldr	r3, [r7, #4]
 80041fa:	681b      	ldr	r3, [r3, #0]
 80041fc:	430a      	orrs	r2, r1
 80041fe:	605a      	str	r2, [r3, #4]
  }
#endif /* USE_SPI_CRC */

#if defined(SPI_I2SCFGR_I2SMOD)
  /* Activate the SPI mode (Make sure that I2SMOD bit in I2SCFGR register is reset) */
  CLEAR_BIT(hspi->Instance->I2SCFGR, SPI_I2SCFGR_I2SMOD);
 8004200:	687b      	ldr	r3, [r7, #4]
 8004202:	681b      	ldr	r3, [r3, #0]
 8004204:	69da      	ldr	r2, [r3, #28]
 8004206:	687b      	ldr	r3, [r7, #4]
 8004208:	681b      	ldr	r3, [r3, #0]
 800420a:	f422 6200 	bic.w	r2, r2, #2048	; 0x800
 800420e:	61da      	str	r2, [r3, #28]
#endif /* SPI_I2SCFGR_I2SMOD */

  hspi->ErrorCode = HAL_SPI_ERROR_NONE;
 8004210:	687b      	ldr	r3, [r7, #4]
 8004212:	2200      	movs	r2, #0
 8004214:	655a      	str	r2, [r3, #84]	; 0x54
  hspi->State     = HAL_SPI_STATE_READY;
 8004216:	687b      	ldr	r3, [r7, #4]
 8004218:	2201      	movs	r2, #1
 800421a:	f883 2051 	strb.w	r2, [r3, #81]	; 0x51

  return HAL_OK;
 800421e:	2300      	movs	r3, #0
}
 8004220:	4618      	mov	r0, r3
 8004222:	3708      	adds	r7, #8
 8004224:	46bd      	mov	sp, r7
 8004226:	bd80      	pop	{r7, pc}

08004228 <HAL_SPI_TransmitReceive>:
  * @param  Timeout Timeout duration
  * @retval HAL status
  */
HAL_StatusTypeDef HAL_SPI_TransmitReceive(SPI_HandleTypeDef *hspi, uint8_t *pTxData, uint8_t *pRxData, uint16_t Size,
                                          uint32_t Timeout)
{
 8004228:	b580      	push	{r7, lr}
 800422a:	b08c      	sub	sp, #48	; 0x30
 800422c:	af00      	add	r7, sp, #0
 800422e:	60f8      	str	r0, [r7, #12]
 8004230:	60b9      	str	r1, [r7, #8]
 8004232:	607a      	str	r2, [r7, #4]
 8004234:	807b      	strh	r3, [r7, #2]
  uint32_t             tmp_mode;
  HAL_SPI_StateTypeDef tmp_state;
  uint32_t             tickstart;

  /* Variable used to alternate Rx and Tx during transfer */
  uint32_t             txallowed = 1U;
 8004236:	2301      	movs	r3, #1
 8004238:	62fb      	str	r3, [r7, #44]	; 0x2c
  HAL_StatusTypeDef    errorcode = HAL_OK;
 800423a:	2300      	movs	r3, #0
 800423c:	f887 302b 	strb.w	r3, [r7, #43]	; 0x2b

  /* Check Direction parameter */
  assert_param(IS_SPI_DIRECTION_2LINES(hspi->Init.Direction));

  /* Process Locked */
  __HAL_LOCK(hspi);
 8004240:	68fb      	ldr	r3, [r7, #12]
 8004242:	f893 3050 	ldrb.w	r3, [r3, #80]	; 0x50
 8004246:	2b01      	cmp	r3, #1
 8004248:	d101      	bne.n	800424e <HAL_SPI_TransmitReceive+0x26>
 800424a:	2302      	movs	r3, #2
 800424c:	e18a      	b.n	8004564 <HAL_SPI_TransmitReceive+0x33c>
 800424e:	68fb      	ldr	r3, [r7, #12]
 8004250:	2201      	movs	r2, #1
 8004252:	f883 2050 	strb.w	r2, [r3, #80]	; 0x50

  /* Init tickstart for timeout management*/
  tickstart = HAL_GetTick();
 8004256:	f7fd fdf5 	bl	8001e44 <HAL_GetTick>
 800425a:	6278      	str	r0, [r7, #36]	; 0x24

  /* Init temporary variables */
  tmp_state           = hspi->State;
 800425c:	68fb      	ldr	r3, [r7, #12]
 800425e:	f893 3051 	ldrb.w	r3, [r3, #81]	; 0x51
 8004262:	f887 3023 	strb.w	r3, [r7, #35]	; 0x23
  tmp_mode            = hspi->Init.Mode;
 8004266:	68fb      	ldr	r3, [r7, #12]
 8004268:	685b      	ldr	r3, [r3, #4]
 800426a:	61fb      	str	r3, [r7, #28]
  initial_TxXferCount = Size;
 800426c:	887b      	ldrh	r3, [r7, #2]
 800426e:	837b      	strh	r3, [r7, #26]

  if (!((tmp_state == HAL_SPI_STATE_READY) || \
 8004270:	f897 3023 	ldrb.w	r3, [r7, #35]	; 0x23
 8004274:	2b01      	cmp	r3, #1
 8004276:	d00f      	beq.n	8004298 <HAL_SPI_TransmitReceive+0x70>
 8004278:	69fb      	ldr	r3, [r7, #28]
 800427a:	f5b3 7f82 	cmp.w	r3, #260	; 0x104
 800427e:	d107      	bne.n	8004290 <HAL_SPI_TransmitReceive+0x68>
        ((tmp_mode == SPI_MODE_MASTER) && (hspi->Init.Direction == SPI_DIRECTION_2LINES) && (tmp_state == HAL_SPI_STATE_BUSY_RX))))
 8004280:	68fb      	ldr	r3, [r7, #12]
 8004282:	689b      	ldr	r3, [r3, #8]
 8004284:	2b00      	cmp	r3, #0
 8004286:	d103      	bne.n	8004290 <HAL_SPI_TransmitReceive+0x68>
 8004288:	f897 3023 	ldrb.w	r3, [r7, #35]	; 0x23
 800428c:	2b04      	cmp	r3, #4
 800428e:	d003      	beq.n	8004298 <HAL_SPI_TransmitReceive+0x70>
  {
    errorcode = HAL_BUSY;
 8004290:	2302      	movs	r3, #2
 8004292:	f887 302b 	strb.w	r3, [r7, #43]	; 0x2b
    goto error;
 8004296:	e15b      	b.n	8004550 <HAL_SPI_TransmitReceive+0x328>
  }

  if ((pTxData == NULL) || (pRxData == NULL) || (Size == 0U))
 8004298:	68bb      	ldr	r3, [r7, #8]
 800429a:	2b00      	cmp	r3, #0
 800429c:	d005      	beq.n	80042aa <HAL_SPI_TransmitReceive+0x82>
 800429e:	687b      	ldr	r3, [r7, #4]
 80042a0:	2b00      	cmp	r3, #0
 80042a2:	d002      	beq.n	80042aa <HAL_SPI_TransmitReceive+0x82>
 80042a4:	887b      	ldrh	r3, [r7, #2]
 80042a6:	2b00      	cmp	r3, #0
 80042a8:	d103      	bne.n	80042b2 <HAL_SPI_TransmitReceive+0x8a>
  {
    errorcode = HAL_ERROR;
 80042aa:	2301      	movs	r3, #1
 80042ac:	f887 302b 	strb.w	r3, [r7, #43]	; 0x2b
    goto error;
 80042b0:	e14e      	b.n	8004550 <HAL_SPI_TransmitReceive+0x328>
  }

  /* Don't overwrite in case of HAL_SPI_STATE_BUSY_RX */
  if (hspi->State != HAL_SPI_STATE_BUSY_RX)
 80042b2:	68fb      	ldr	r3, [r7, #12]
 80042b4:	f893 3051 	ldrb.w	r3, [r3, #81]	; 0x51
 80042b8:	b2db      	uxtb	r3, r3
 80042ba:	2b04      	cmp	r3, #4
 80042bc:	d003      	beq.n	80042c6 <HAL_SPI_TransmitReceive+0x9e>
  {
    hspi->State = HAL_SPI_STATE_BUSY_TX_RX;
 80042be:	68fb      	ldr	r3, [r7, #12]
 80042c0:	2205      	movs	r2, #5
 80042c2:	f883 2051 	strb.w	r2, [r3, #81]	; 0x51
  }

  /* Set the transaction information */
  hspi->ErrorCode   = HAL_SPI_ERROR_NONE;
 80042c6:	68fb      	ldr	r3, [r7, #12]
 80042c8:	2200      	movs	r2, #0
 80042ca:	655a      	str	r2, [r3, #84]	; 0x54
  hspi->pRxBuffPtr  = (uint8_t *)pRxData;
 80042cc:	68fb      	ldr	r3, [r7, #12]
 80042ce:	687a      	ldr	r2, [r7, #4]
 80042d0:	639a      	str	r2, [r3, #56]	; 0x38
  hspi->RxXferCount = Size;
 80042d2:	68fb      	ldr	r3, [r7, #12]
 80042d4:	887a      	ldrh	r2, [r7, #2]
 80042d6:	87da      	strh	r2, [r3, #62]	; 0x3e
  hspi->RxXferSize  = Size;
 80042d8:	68fb      	ldr	r3, [r7, #12]
 80042da:	887a      	ldrh	r2, [r7, #2]
 80042dc:	879a      	strh	r2, [r3, #60]	; 0x3c
  hspi->pTxBuffPtr  = (uint8_t *)pTxData;
 80042de:	68fb      	ldr	r3, [r7, #12]
 80042e0:	68ba      	ldr	r2, [r7, #8]
 80042e2:	631a      	str	r2, [r3, #48]	; 0x30
  hspi->TxXferCount = Size;
 80042e4:	68fb      	ldr	r3, [r7, #12]
 80042e6:	887a      	ldrh	r2, [r7, #2]
 80042e8:	86da      	strh	r2, [r3, #54]	; 0x36
  hspi->TxXferSize  = Size;
 80042ea:	68fb      	ldr	r3, [r7, #12]
 80042ec:	887a      	ldrh	r2, [r7, #2]
 80042ee:	869a      	strh	r2, [r3, #52]	; 0x34

  /*Init field not used in handle to zero */
  hspi->RxISR       = NULL;
 80042f0:	68fb      	ldr	r3, [r7, #12]
 80042f2:	2200      	movs	r2, #0
 80042f4:	641a      	str	r2, [r3, #64]	; 0x40
  hspi->TxISR       = NULL;
 80042f6:	68fb      	ldr	r3, [r7, #12]
 80042f8:	2200      	movs	r2, #0
 80042fa:	645a      	str	r2, [r3, #68]	; 0x44
    SPI_RESET_CRC(hspi);
  }
#endif /* USE_SPI_CRC */

  /* Check if the SPI is already enabled */
  if ((hspi->Instance->CR1 & SPI_CR1_SPE) != SPI_CR1_SPE)
 80042fc:	68fb      	ldr	r3, [r7, #12]
 80042fe:	681b      	ldr	r3, [r3, #0]
 8004300:	681b      	ldr	r3, [r3, #0]
 8004302:	f003 0340 	and.w	r3, r3, #64	; 0x40
 8004306:	2b40      	cmp	r3, #64	; 0x40
 8004308:	d007      	beq.n	800431a <HAL_SPI_TransmitReceive+0xf2>
  {
    /* Enable SPI peripheral */
    __HAL_SPI_ENABLE(hspi);
 800430a:	68fb      	ldr	r3, [r7, #12]
 800430c:	681b      	ldr	r3, [r3, #0]
 800430e:	681a      	ldr	r2, [r3, #0]
 8004310:	68fb      	ldr	r3, [r7, #12]
 8004312:	681b      	ldr	r3, [r3, #0]
 8004314:	f042 0240 	orr.w	r2, r2, #64	; 0x40
 8004318:	601a      	str	r2, [r3, #0]
  }

  /* Transmit and Receive data in 16 Bit mode */
  if (hspi->Init.DataSize == SPI_DATASIZE_16BIT)
 800431a:	68fb      	ldr	r3, [r7, #12]
 800431c:	68db      	ldr	r3, [r3, #12]
 800431e:	f5b3 6f00 	cmp.w	r3, #2048	; 0x800
 8004322:	d178      	bne.n	8004416 <HAL_SPI_TransmitReceive+0x1ee>
  {
    if ((hspi->Init.Mode == SPI_MODE_SLAVE) || (initial_TxXferCount == 0x01U))
 8004324:	68fb      	ldr	r3, [r7, #12]
 8004326:	685b      	ldr	r3, [r3, #4]
 8004328:	2b00      	cmp	r3, #0
 800432a:	d002      	beq.n	8004332 <HAL_SPI_TransmitReceive+0x10a>
 800432c:	8b7b      	ldrh	r3, [r7, #26]
 800432e:	2b01      	cmp	r3, #1
 8004330:	d166      	bne.n	8004400 <HAL_SPI_TransmitReceive+0x1d8>
    {
      hspi->Instance->DR = *((uint16_t *)hspi->pTxBuffPtr);
 8004332:	68fb      	ldr	r3, [r7, #12]
 8004334:	6b1b      	ldr	r3, [r3, #48]	; 0x30
 8004336:	881a      	ldrh	r2, [r3, #0]
 8004338:	68fb      	ldr	r3, [r7, #12]
 800433a:	681b      	ldr	r3, [r3, #0]
 800433c:	60da      	str	r2, [r3, #12]
      hspi->pTxBuffPtr += sizeof(uint16_t);
 800433e:	68fb      	ldr	r3, [r7, #12]
 8004340:	6b1b      	ldr	r3, [r3, #48]	; 0x30
 8004342:	1c9a      	adds	r2, r3, #2
 8004344:	68fb      	ldr	r3, [r7, #12]
 8004346:	631a      	str	r2, [r3, #48]	; 0x30
      hspi->TxXferCount--;
 8004348:	68fb      	ldr	r3, [r7, #12]
 800434a:	8edb      	ldrh	r3, [r3, #54]	; 0x36
 800434c:	b29b      	uxth	r3, r3
 800434e:	3b01      	subs	r3, #1
 8004350:	b29a      	uxth	r2, r3
 8004352:	68fb      	ldr	r3, [r7, #12]
 8004354:	86da      	strh	r2, [r3, #54]	; 0x36
    }
    while ((hspi->TxXferCount > 0U) || (hspi->RxXferCount > 0U))
 8004356:	e053      	b.n	8004400 <HAL_SPI_TransmitReceive+0x1d8>
    {
      /* Check TXE flag */
      if ((__HAL_SPI_GET_FLAG(hspi, SPI_FLAG_TXE)) && (hspi->TxXferCount > 0U) && (txallowed == 1U))
 8004358:	68fb      	ldr	r3, [r7, #12]
 800435a:	681b      	ldr	r3, [r3, #0]
 800435c:	689b      	ldr	r3, [r3, #8]
 800435e:	f003 0302 	and.w	r3, r3, #2
 8004362:	2b02      	cmp	r3, #2
 8004364:	d11b      	bne.n	800439e <HAL_SPI_TransmitReceive+0x176>
 8004366:	68fb      	ldr	r3, [r7, #12]
 8004368:	8edb      	ldrh	r3, [r3, #54]	; 0x36
 800436a:	b29b      	uxth	r3, r3
 800436c:	2b00      	cmp	r3, #0
 800436e:	d016      	beq.n	800439e <HAL_SPI_TransmitReceive+0x176>
 8004370:	6afb      	ldr	r3, [r7, #44]	; 0x2c
 8004372:	2b01      	cmp	r3, #1
 8004374:	d113      	bne.n	800439e <HAL_SPI_TransmitReceive+0x176>
      {
        hspi->Instance->DR = *((uint16_t *)hspi->pTxBuffPtr);
 8004376:	68fb      	ldr	r3, [r7, #12]
 8004378:	6b1b      	ldr	r3, [r3, #48]	; 0x30
 800437a:	881a      	ldrh	r2, [r3, #0]
 800437c:	68fb      	ldr	r3, [r7, #12]
 800437e:	681b      	ldr	r3, [r3, #0]
 8004380:	60da      	str	r2, [r3, #12]
        hspi->pTxBuffPtr += sizeof(uint16_t);
 8004382:	68fb      	ldr	r3, [r7, #12]
 8004384:	6b1b      	ldr	r3, [r3, #48]	; 0x30
 8004386:	1c9a      	adds	r2, r3, #2
 8004388:	68fb      	ldr	r3, [r7, #12]
 800438a:	631a      	str	r2, [r3, #48]	; 0x30
        hspi->TxXferCount--;
 800438c:	68fb      	ldr	r3, [r7, #12]
 800438e:	8edb      	ldrh	r3, [r3, #54]	; 0x36
 8004390:	b29b      	uxth	r3, r3
 8004392:	3b01      	subs	r3, #1
 8004394:	b29a      	uxth	r2, r3
 8004396:	68fb      	ldr	r3, [r7, #12]
 8004398:	86da      	strh	r2, [r3, #54]	; 0x36
        /* Next Data is a reception (Rx). Tx not allowed */
        txallowed = 0U;
 800439a:	2300      	movs	r3, #0
 800439c:	62fb      	str	r3, [r7, #44]	; 0x2c
        }
#endif /* USE_SPI_CRC */
      }

      /* Check RXNE flag */
      if ((__HAL_SPI_GET_FLAG(hspi, SPI_FLAG_RXNE)) && (hspi->RxXferCount > 0U))
 800439e:	68fb      	ldr	r3, [r7, #12]
 80043a0:	681b      	ldr	r3, [r3, #0]
 80043a2:	689b      	ldr	r3, [r3, #8]
 80043a4:	f003 0301 	and.w	r3, r3, #1
 80043a8:	2b01      	cmp	r3, #1
 80043aa:	d119      	bne.n	80043e0 <HAL_SPI_TransmitReceive+0x1b8>
 80043ac:	68fb      	ldr	r3, [r7, #12]
 80043ae:	8fdb      	ldrh	r3, [r3, #62]	; 0x3e
 80043b0:	b29b      	uxth	r3, r3
 80043b2:	2b00      	cmp	r3, #0
 80043b4:	d014      	beq.n	80043e0 <HAL_SPI_TransmitReceive+0x1b8>
      {
        *((uint16_t *)hspi->pRxBuffPtr) = (uint16_t)hspi->Instance->DR;
 80043b6:	68fb      	ldr	r3, [r7, #12]
 80043b8:	681b      	ldr	r3, [r3, #0]
 80043ba:	68da      	ldr	r2, [r3, #12]
 80043bc:	68fb      	ldr	r3, [r7, #12]
 80043be:	6b9b      	ldr	r3, [r3, #56]	; 0x38
 80043c0:	b292      	uxth	r2, r2
 80043c2:	801a      	strh	r2, [r3, #0]
        hspi->pRxBuffPtr += sizeof(uint16_t);
 80043c4:	68fb      	ldr	r3, [r7, #12]
 80043c6:	6b9b      	ldr	r3, [r3, #56]	; 0x38
 80043c8:	1c9a      	adds	r2, r3, #2
 80043ca:	68fb      	ldr	r3, [r7, #12]
 80043cc:	639a      	str	r2, [r3, #56]	; 0x38
        hspi->RxXferCount--;
 80043ce:	68fb      	ldr	r3, [r7, #12]
 80043d0:	8fdb      	ldrh	r3, [r3, #62]	; 0x3e
 80043d2:	b29b      	uxth	r3, r3
 80043d4:	3b01      	subs	r3, #1
 80043d6:	b29a      	uxth	r2, r3
 80043d8:	68fb      	ldr	r3, [r7, #12]
 80043da:	87da      	strh	r2, [r3, #62]	; 0x3e
        /* Next Data is a Transmission (Tx). Tx is allowed */
        txallowed = 1U;
 80043dc:	2301      	movs	r3, #1
 80043de:	62fb      	str	r3, [r7, #44]	; 0x2c
      }
      if (((HAL_GetTick() - tickstart) >=  Timeout) && (Timeout != HAL_MAX_DELAY))
 80043e0:	f7fd fd30 	bl	8001e44 <HAL_GetTick>
 80043e4:	4602      	mov	r2, r0
 80043e6:	6a7b      	ldr	r3, [r7, #36]	; 0x24
 80043e8:	1ad3      	subs	r3, r2, r3
 80043ea:	6bba      	ldr	r2, [r7, #56]	; 0x38
 80043ec:	429a      	cmp	r2, r3
 80043ee:	d807      	bhi.n	8004400 <HAL_SPI_TransmitReceive+0x1d8>
 80043f0:	6bbb      	ldr	r3, [r7, #56]	; 0x38
 80043f2:	f1b3 3fff 	cmp.w	r3, #4294967295
 80043f6:	d003      	beq.n	8004400 <HAL_SPI_TransmitReceive+0x1d8>
      {
        errorcode = HAL_TIMEOUT;
 80043f8:	2303      	movs	r3, #3
 80043fa:	f887 302b 	strb.w	r3, [r7, #43]	; 0x2b
        goto error;
 80043fe:	e0a7      	b.n	8004550 <HAL_SPI_TransmitReceive+0x328>
    while ((hspi->TxXferCount > 0U) || (hspi->RxXferCount > 0U))
 8004400:	68fb      	ldr	r3, [r7, #12]
 8004402:	8edb      	ldrh	r3, [r3, #54]	; 0x36
 8004404:	b29b      	uxth	r3, r3
 8004406:	2b00      	cmp	r3, #0
 8004408:	d1a6      	bne.n	8004358 <HAL_SPI_TransmitReceive+0x130>
 800440a:	68fb      	ldr	r3, [r7, #12]
 800440c:	8fdb      	ldrh	r3, [r3, #62]	; 0x3e
 800440e:	b29b      	uxth	r3, r3
 8004410:	2b00      	cmp	r3, #0
 8004412:	d1a1      	bne.n	8004358 <HAL_SPI_TransmitReceive+0x130>
 8004414:	e07c      	b.n	8004510 <HAL_SPI_TransmitReceive+0x2e8>
    }
  }
  /* Transmit and Receive data in 8 Bit mode */
  else
  {
    if ((hspi->Init.Mode == SPI_MODE_SLAVE) || (initial_TxXferCount == 0x01U))
 8004416:	68fb      	ldr	r3, [r7, #12]
 8004418:	685b      	ldr	r3, [r3, #4]
 800441a:	2b00      	cmp	r3, #0
 800441c:	d002      	beq.n	8004424 <HAL_SPI_TransmitReceive+0x1fc>
 800441e:	8b7b      	ldrh	r3, [r7, #26]
 8004420:	2b01      	cmp	r3, #1
 8004422:	d16b      	bne.n	80044fc <HAL_SPI_TransmitReceive+0x2d4>
    {
      *((__IO uint8_t *)&hspi->Instance->DR) = (*hspi->pTxBuffPtr);
 8004424:	68fb      	ldr	r3, [r7, #12]
 8004426:	6b1a      	ldr	r2, [r3, #48]	; 0x30
 8004428:	68fb      	ldr	r3, [r7, #12]
 800442a:	681b      	ldr	r3, [r3, #0]
 800442c:	330c      	adds	r3, #12
 800442e:	7812      	ldrb	r2, [r2, #0]
 8004430:	701a      	strb	r2, [r3, #0]
      hspi->pTxBuffPtr += sizeof(uint8_t);
 8004432:	68fb      	ldr	r3, [r7, #12]
 8004434:	6b1b      	ldr	r3, [r3, #48]	; 0x30
 8004436:	1c5a      	adds	r2, r3, #1
 8004438:	68fb      	ldr	r3, [r7, #12]
 800443a:	631a      	str	r2, [r3, #48]	; 0x30
      hspi->TxXferCount--;
 800443c:	68fb      	ldr	r3, [r7, #12]
 800443e:	8edb      	ldrh	r3, [r3, #54]	; 0x36
 8004440:	b29b      	uxth	r3, r3
 8004442:	3b01      	subs	r3, #1
 8004444:	b29a      	uxth	r2, r3
 8004446:	68fb      	ldr	r3, [r7, #12]
 8004448:	86da      	strh	r2, [r3, #54]	; 0x36
    }
    while ((hspi->TxXferCount > 0U) || (hspi->RxXferCount > 0U))
 800444a:	e057      	b.n	80044fc <HAL_SPI_TransmitReceive+0x2d4>
    {
      /* Check TXE flag */
      if ((__HAL_SPI_GET_FLAG(hspi, SPI_FLAG_TXE)) && (hspi->TxXferCount > 0U) && (txallowed == 1U))
 800444c:	68fb      	ldr	r3, [r7, #12]
 800444e:	681b      	ldr	r3, [r3, #0]
 8004450:	689b      	ldr	r3, [r3, #8]
 8004452:	f003 0302 	and.w	r3, r3, #2
 8004456:	2b02      	cmp	r3, #2
 8004458:	d11c      	bne.n	8004494 <HAL_SPI_TransmitReceive+0x26c>
 800445a:	68fb      	ldr	r3, [r7, #12]
 800445c:	8edb      	ldrh	r3, [r3, #54]	; 0x36
 800445e:	b29b      	uxth	r3, r3
 8004460:	2b00      	cmp	r3, #0
 8004462:	d017      	beq.n	8004494 <HAL_SPI_TransmitReceive+0x26c>
 8004464:	6afb      	ldr	r3, [r7, #44]	; 0x2c
 8004466:	2b01      	cmp	r3, #1
 8004468:	d114      	bne.n	8004494 <HAL_SPI_TransmitReceive+0x26c>
      {
        *(__IO uint8_t *)&hspi->Instance->DR = (*hspi->pTxBuffPtr);
 800446a:	68fb      	ldr	r3, [r7, #12]
 800446c:	6b1a      	ldr	r2, [r3, #48]	; 0x30
 800446e:	68fb      	ldr	r3, [r7, #12]
 8004470:	681b      	ldr	r3, [r3, #0]
 8004472:	330c      	adds	r3, #12
 8004474:	7812      	ldrb	r2, [r2, #0]
 8004476:	701a      	strb	r2, [r3, #0]
        hspi->pTxBuffPtr++;
 8004478:	68fb      	ldr	r3, [r7, #12]
 800447a:	6b1b      	ldr	r3, [r3, #48]	; 0x30
 800447c:	1c5a      	adds	r2, r3, #1
 800447e:	68fb      	ldr	r3, [r7, #12]
 8004480:	631a      	str	r2, [r3, #48]	; 0x30
        hspi->TxXferCount--;
 8004482:	68fb      	ldr	r3, [r7, #12]
 8004484:	8edb      	ldrh	r3, [r3, #54]	; 0x36
 8004486:	b29b      	uxth	r3, r3
 8004488:	3b01      	subs	r3, #1
 800448a:	b29a      	uxth	r2, r3
 800448c:	68fb      	ldr	r3, [r7, #12]
 800448e:	86da      	strh	r2, [r3, #54]	; 0x36
        /* Next Data is a reception (Rx). Tx not allowed */
        txallowed = 0U;
 8004490:	2300      	movs	r3, #0
 8004492:	62fb      	str	r3, [r7, #44]	; 0x2c
        }
#endif /* USE_SPI_CRC */
      }

      /* Wait until RXNE flag is reset */
      if ((__HAL_SPI_GET_FLAG(hspi, SPI_FLAG_RXNE)) && (hspi->RxXferCount > 0U))
 8004494:	68fb      	ldr	r3, [r7, #12]
 8004496:	681b      	ldr	r3, [r3, #0]
 8004498:	689b      	ldr	r3, [r3, #8]
 800449a:	f003 0301 	and.w	r3, r3, #1
 800449e:	2b01      	cmp	r3, #1
 80044a0:	d119      	bne.n	80044d6 <HAL_SPI_TransmitReceive+0x2ae>
 80044a2:	68fb      	ldr	r3, [r7, #12]
 80044a4:	8fdb      	ldrh	r3, [r3, #62]	; 0x3e
 80044a6:	b29b      	uxth	r3, r3
 80044a8:	2b00      	cmp	r3, #0
 80044aa:	d014      	beq.n	80044d6 <HAL_SPI_TransmitReceive+0x2ae>
      {
        (*(uint8_t *)hspi->pRxBuffPtr) = hspi->Instance->DR;
 80044ac:	68fb      	ldr	r3, [r7, #12]
 80044ae:	681b      	ldr	r3, [r3, #0]
 80044b0:	68da      	ldr	r2, [r3, #12]
 80044b2:	68fb      	ldr	r3, [r7, #12]
 80044b4:	6b9b      	ldr	r3, [r3, #56]	; 0x38
 80044b6:	b2d2      	uxtb	r2, r2
 80044b8:	701a      	strb	r2, [r3, #0]
        hspi->pRxBuffPtr++;
 80044ba:	68fb      	ldr	r3, [r7, #12]
 80044bc:	6b9b      	ldr	r3, [r3, #56]	; 0x38
 80044be:	1c5a      	adds	r2, r3, #1
 80044c0:	68fb      	ldr	r3, [r7, #12]
 80044c2:	639a      	str	r2, [r3, #56]	; 0x38
        hspi->RxXferCount--;
 80044c4:	68fb      	ldr	r3, [r7, #12]
 80044c6:	8fdb      	ldrh	r3, [r3, #62]	; 0x3e
 80044c8:	b29b      	uxth	r3, r3
 80044ca:	3b01      	subs	r3, #1
 80044cc:	b29a      	uxth	r2, r3
 80044ce:	68fb      	ldr	r3, [r7, #12]
 80044d0:	87da      	strh	r2, [r3, #62]	; 0x3e
        /* Next Data is a Transmission (Tx). Tx is allowed */
        txallowed = 1U;
 80044d2:	2301      	movs	r3, #1
 80044d4:	62fb      	str	r3, [r7, #44]	; 0x2c
      }
      if ((((HAL_GetTick() - tickstart) >=  Timeout) && ((Timeout != HAL_MAX_DELAY))) || (Timeout == 0U))
 80044d6:	f7fd fcb5 	bl	8001e44 <HAL_GetTick>
 80044da:	4602      	mov	r2, r0
 80044dc:	6a7b      	ldr	r3, [r7, #36]	; 0x24
 80044de:	1ad3      	subs	r3, r2, r3
 80044e0:	6bba      	ldr	r2, [r7, #56]	; 0x38
 80044e2:	429a      	cmp	r2, r3
 80044e4:	d803      	bhi.n	80044ee <HAL_SPI_TransmitReceive+0x2c6>
 80044e6:	6bbb      	ldr	r3, [r7, #56]	; 0x38
 80044e8:	f1b3 3fff 	cmp.w	r3, #4294967295
 80044ec:	d102      	bne.n	80044f4 <HAL_SPI_TransmitReceive+0x2cc>
 80044ee:	6bbb      	ldr	r3, [r7, #56]	; 0x38
 80044f0:	2b00      	cmp	r3, #0
 80044f2:	d103      	bne.n	80044fc <HAL_SPI_TransmitReceive+0x2d4>
      {
        errorcode = HAL_TIMEOUT;
 80044f4:	2303      	movs	r3, #3
 80044f6:	f887 302b 	strb.w	r3, [r7, #43]	; 0x2b
        goto error;
 80044fa:	e029      	b.n	8004550 <HAL_SPI_TransmitReceive+0x328>
    while ((hspi->TxXferCount > 0U) || (hspi->RxXferCount > 0U))
 80044fc:	68fb      	ldr	r3, [r7, #12]
 80044fe:	8edb      	ldrh	r3, [r3, #54]	; 0x36
 8004500:	b29b      	uxth	r3, r3
 8004502:	2b00      	cmp	r3, #0
 8004504:	d1a2      	bne.n	800444c <HAL_SPI_TransmitReceive+0x224>
 8004506:	68fb      	ldr	r3, [r7, #12]
 8004508:	8fdb      	ldrh	r3, [r3, #62]	; 0x3e
 800450a:	b29b      	uxth	r3, r3
 800450c:	2b00      	cmp	r3, #0
 800450e:	d19d      	bne.n	800444c <HAL_SPI_TransmitReceive+0x224>
    errorcode = HAL_ERROR;
  }
#endif /* USE_SPI_CRC */

  /* Check the end of the transaction */
  if (SPI_EndRxTxTransaction(hspi, Timeout, tickstart) != HAL_OK)
 8004510:	6a7a      	ldr	r2, [r7, #36]	; 0x24
 8004512:	6bb9      	ldr	r1, [r7, #56]	; 0x38
 8004514:	68f8      	ldr	r0, [r7, #12]
 8004516:	f000 f893 	bl	8004640 <SPI_EndRxTxTransaction>
 800451a:	4603      	mov	r3, r0
 800451c:	2b00      	cmp	r3, #0
 800451e:	d006      	beq.n	800452e <HAL_SPI_TransmitReceive+0x306>
  {
    errorcode = HAL_ERROR;
 8004520:	2301      	movs	r3, #1
 8004522:	f887 302b 	strb.w	r3, [r7, #43]	; 0x2b
    hspi->ErrorCode = HAL_SPI_ERROR_FLAG;
 8004526:	68fb      	ldr	r3, [r7, #12]
 8004528:	2220      	movs	r2, #32
 800452a:	655a      	str	r2, [r3, #84]	; 0x54
    goto error;
 800452c:	e010      	b.n	8004550 <HAL_SPI_TransmitReceive+0x328>
  }

  /* Clear overrun flag in 2 Lines communication mode because received is not read */
  if (hspi->Init.Direction == SPI_DIRECTION_2LINES)
 800452e:	68fb      	ldr	r3, [r7, #12]
 8004530:	689b      	ldr	r3, [r3, #8]
 8004532:	2b00      	cmp	r3, #0
 8004534:	d10b      	bne.n	800454e <HAL_SPI_TransmitReceive+0x326>
  {
    __HAL_SPI_CLEAR_OVRFLAG(hspi);
 8004536:	2300      	movs	r3, #0
 8004538:	617b      	str	r3, [r7, #20]
 800453a:	68fb      	ldr	r3, [r7, #12]
 800453c:	681b      	ldr	r3, [r3, #0]
 800453e:	68db      	ldr	r3, [r3, #12]
 8004540:	617b      	str	r3, [r7, #20]
 8004542:	68fb      	ldr	r3, [r7, #12]
 8004544:	681b      	ldr	r3, [r3, #0]
 8004546:	689b      	ldr	r3, [r3, #8]
 8004548:	617b      	str	r3, [r7, #20]
 800454a:	697b      	ldr	r3, [r7, #20]
 800454c:	e000      	b.n	8004550 <HAL_SPI_TransmitReceive+0x328>
  }

error :
 800454e:	bf00      	nop
  hspi->State = HAL_SPI_STATE_READY;
 8004550:	68fb      	ldr	r3, [r7, #12]
 8004552:	2201      	movs	r2, #1
 8004554:	f883 2051 	strb.w	r2, [r3, #81]	; 0x51
  __HAL_UNLOCK(hspi);
 8004558:	68fb      	ldr	r3, [r7, #12]
 800455a:	2200      	movs	r2, #0
 800455c:	f883 2050 	strb.w	r2, [r3, #80]	; 0x50
  return errorcode;
 8004560:	f897 302b 	ldrb.w	r3, [r7, #43]	; 0x2b
}
 8004564:	4618      	mov	r0, r3
 8004566:	3730      	adds	r7, #48	; 0x30
 8004568:	46bd      	mov	sp, r7
 800456a:	bd80      	pop	{r7, pc}

0800456c <SPI_WaitFlagStateUntilTimeout>:
  * @param  Tickstart tick start value
  * @retval HAL status
  */
static HAL_StatusTypeDef SPI_WaitFlagStateUntilTimeout(SPI_HandleTypeDef *hspi, uint32_t Flag, FlagStatus State,
                                                       uint32_t Timeout, uint32_t Tickstart)
{
 800456c:	b580      	push	{r7, lr}
 800456e:	b084      	sub	sp, #16
 8004570:	af00      	add	r7, sp, #0
 8004572:	60f8      	str	r0, [r7, #12]
 8004574:	60b9      	str	r1, [r7, #8]
 8004576:	603b      	str	r3, [r7, #0]
 8004578:	4613      	mov	r3, r2
 800457a:	71fb      	strb	r3, [r7, #7]
  while ((__HAL_SPI_GET_FLAG(hspi, Flag) ? SET : RESET) != State)
 800457c:	e04c      	b.n	8004618 <SPI_WaitFlagStateUntilTimeout+0xac>
  {
    if (Timeout != HAL_MAX_DELAY)
 800457e:	683b      	ldr	r3, [r7, #0]
 8004580:	f1b3 3fff 	cmp.w	r3, #4294967295
 8004584:	d048      	beq.n	8004618 <SPI_WaitFlagStateUntilTimeout+0xac>
    {
      if (((HAL_GetTick() - Tickstart) >= Timeout) || (Timeout == 0U))
 8004586:	f7fd fc5d 	bl	8001e44 <HAL_GetTick>
 800458a:	4602      	mov	r2, r0
 800458c:	69bb      	ldr	r3, [r7, #24]
 800458e:	1ad3      	subs	r3, r2, r3
 8004590:	683a      	ldr	r2, [r7, #0]
 8004592:	429a      	cmp	r2, r3
 8004594:	d902      	bls.n	800459c <SPI_WaitFlagStateUntilTimeout+0x30>
 8004596:	683b      	ldr	r3, [r7, #0]
 8004598:	2b00      	cmp	r3, #0
 800459a:	d13d      	bne.n	8004618 <SPI_WaitFlagStateUntilTimeout+0xac>
        /* Disable the SPI and reset the CRC: the CRC value should be cleared
        on both master and slave sides in order to resynchronize the master
        and slave for their respective CRC calculation */

        /* Disable TXE, RXNE and ERR interrupts for the interrupt process */
        __HAL_SPI_DISABLE_IT(hspi, (SPI_IT_TXE | SPI_IT_RXNE | SPI_IT_ERR));
 800459c:	68fb      	ldr	r3, [r7, #12]
 800459e:	681b      	ldr	r3, [r3, #0]
 80045a0:	685a      	ldr	r2, [r3, #4]
 80045a2:	68fb      	ldr	r3, [r7, #12]
 80045a4:	681b      	ldr	r3, [r3, #0]
 80045a6:	f022 02e0 	bic.w	r2, r2, #224	; 0xe0
 80045aa:	605a      	str	r2, [r3, #4]

        if ((hspi->Init.Mode == SPI_MODE_MASTER) && ((hspi->Init.Direction == SPI_DIRECTION_1LINE)
 80045ac:	68fb      	ldr	r3, [r7, #12]
 80045ae:	685b      	ldr	r3, [r3, #4]
 80045b0:	f5b3 7f82 	cmp.w	r3, #260	; 0x104
 80045b4:	d111      	bne.n	80045da <SPI_WaitFlagStateUntilTimeout+0x6e>
 80045b6:	68fb      	ldr	r3, [r7, #12]
 80045b8:	689b      	ldr	r3, [r3, #8]
 80045ba:	f5b3 4f00 	cmp.w	r3, #32768	; 0x8000
 80045be:	d004      	beq.n	80045ca <SPI_WaitFlagStateUntilTimeout+0x5e>
                                                     || (hspi->Init.Direction == SPI_DIRECTION_2LINES_RXONLY)))
 80045c0:	68fb      	ldr	r3, [r7, #12]
 80045c2:	689b      	ldr	r3, [r3, #8]
 80045c4:	f5b3 6f80 	cmp.w	r3, #1024	; 0x400
 80045c8:	d107      	bne.n	80045da <SPI_WaitFlagStateUntilTimeout+0x6e>
        {
          /* Disable SPI peripheral */
          __HAL_SPI_DISABLE(hspi);
 80045ca:	68fb      	ldr	r3, [r7, #12]
 80045cc:	681b      	ldr	r3, [r3, #0]
 80045ce:	681a      	ldr	r2, [r3, #0]
 80045d0:	68fb      	ldr	r3, [r7, #12]
 80045d2:	681b      	ldr	r3, [r3, #0]
 80045d4:	f022 0240 	bic.w	r2, r2, #64	; 0x40
 80045d8:	601a      	str	r2, [r3, #0]
        }

        /* Reset CRC Calculation */
        if (hspi->Init.CRCCalculation == SPI_CRCCALCULATION_ENABLE)
 80045da:	68fb      	ldr	r3, [r7, #12]
 80045dc:	6a9b      	ldr	r3, [r3, #40]	; 0x28
 80045de:	f5b3 5f00 	cmp.w	r3, #8192	; 0x2000
 80045e2:	d10f      	bne.n	8004604 <SPI_WaitFlagStateUntilTimeout+0x98>
        {
          SPI_RESET_CRC(hspi);
 80045e4:	68fb      	ldr	r3, [r7, #12]
 80045e6:	681b      	ldr	r3, [r3, #0]
 80045e8:	681a      	ldr	r2, [r3, #0]
 80045ea:	68fb      	ldr	r3, [r7, #12]
 80045ec:	681b      	ldr	r3, [r3, #0]
 80045ee:	f422 5200 	bic.w	r2, r2, #8192	; 0x2000
 80045f2:	601a      	str	r2, [r3, #0]
 80045f4:	68fb      	ldr	r3, [r7, #12]
 80045f6:	681b      	ldr	r3, [r3, #0]
 80045f8:	681a      	ldr	r2, [r3, #0]
 80045fa:	68fb      	ldr	r3, [r7, #12]
 80045fc:	681b      	ldr	r3, [r3, #0]
 80045fe:	f442 5200 	orr.w	r2, r2, #8192	; 0x2000
 8004602:	601a      	str	r2, [r3, #0]
        }

        hspi->State = HAL_SPI_STATE_READY;
 8004604:	68fb      	ldr	r3, [r7, #12]
 8004606:	2201      	movs	r2, #1
 8004608:	f883 2051 	strb.w	r2, [r3, #81]	; 0x51

        /* Process Unlocked */
        __HAL_UNLOCK(hspi);
 800460c:	68fb      	ldr	r3, [r7, #12]
 800460e:	2200      	movs	r2, #0
 8004610:	f883 2050 	strb.w	r2, [r3, #80]	; 0x50

        return HAL_TIMEOUT;
 8004614:	2303      	movs	r3, #3
 8004616:	e00f      	b.n	8004638 <SPI_WaitFlagStateUntilTimeout+0xcc>
  while ((__HAL_SPI_GET_FLAG(hspi, Flag) ? SET : RESET) != State)
 8004618:	68fb      	ldr	r3, [r7, #12]
 800461a:	681b      	ldr	r3, [r3, #0]
 800461c:	689a      	ldr	r2, [r3, #8]
 800461e:	68bb      	ldr	r3, [r7, #8]
 8004620:	4013      	ands	r3, r2
 8004622:	68ba      	ldr	r2, [r7, #8]
 8004624:	429a      	cmp	r2, r3
 8004626:	bf0c      	ite	eq
 8004628:	2301      	moveq	r3, #1
 800462a:	2300      	movne	r3, #0
 800462c:	b2db      	uxtb	r3, r3
 800462e:	461a      	mov	r2, r3
 8004630:	79fb      	ldrb	r3, [r7, #7]
 8004632:	429a      	cmp	r2, r3
 8004634:	d1a3      	bne.n	800457e <SPI_WaitFlagStateUntilTimeout+0x12>
      }
    }
  }

  return HAL_OK;
 8004636:	2300      	movs	r3, #0
}
 8004638:	4618      	mov	r0, r3
 800463a:	3710      	adds	r7, #16
 800463c:	46bd      	mov	sp, r7
 800463e:	bd80      	pop	{r7, pc}

08004640 <SPI_EndRxTxTransaction>:
  * @param  Timeout Timeout duration
  * @param  Tickstart tick start value
  * @retval HAL status
  */
static HAL_StatusTypeDef SPI_EndRxTxTransaction(SPI_HandleTypeDef *hspi, uint32_t Timeout, uint32_t Tickstart)
{
 8004640:	b580      	push	{r7, lr}
 8004642:	b088      	sub	sp, #32
 8004644:	af02      	add	r7, sp, #8
 8004646:	60f8      	str	r0, [r7, #12]
 8004648:	60b9      	str	r1, [r7, #8]
 800464a:	607a      	str	r2, [r7, #4]
  /* Timeout in s */
  __IO uint32_t count = SPI_BSY_FLAG_WORKAROUND_TIMEOUT * (SystemCoreClock / 24U / 1000000U);
 800464c:	4b1b      	ldr	r3, [pc, #108]	; (80046bc <SPI_EndRxTxTransaction+0x7c>)
 800464e:	681b      	ldr	r3, [r3, #0]
 8004650:	4a1b      	ldr	r2, [pc, #108]	; (80046c0 <SPI_EndRxTxTransaction+0x80>)
 8004652:	fba2 2303 	umull	r2, r3, r2, r3
 8004656:	0d5b      	lsrs	r3, r3, #21
 8004658:	f44f 727a 	mov.w	r2, #1000	; 0x3e8
 800465c:	fb02 f303 	mul.w	r3, r2, r3
 8004660:	617b      	str	r3, [r7, #20]
  /* Erratasheet: BSY bit may stay high at the end of a data transfer in Slave mode */
  if (hspi->Init.Mode == SPI_MODE_MASTER)
 8004662:	68fb      	ldr	r3, [r7, #12]
 8004664:	685b      	ldr	r3, [r3, #4]
 8004666:	f5b3 7f82 	cmp.w	r3, #260	; 0x104
 800466a:	d112      	bne.n	8004692 <SPI_EndRxTxTransaction+0x52>
  {
    /* Control the BSY flag */
    if (SPI_WaitFlagStateUntilTimeout(hspi, SPI_FLAG_BSY, RESET, Timeout, Tickstart) != HAL_OK)
 800466c:	687b      	ldr	r3, [r7, #4]
 800466e:	9300      	str	r3, [sp, #0]
 8004670:	68bb      	ldr	r3, [r7, #8]
 8004672:	2200      	movs	r2, #0
 8004674:	2180      	movs	r1, #128	; 0x80
 8004676:	68f8      	ldr	r0, [r7, #12]
 8004678:	f7ff ff78 	bl	800456c <SPI_WaitFlagStateUntilTimeout>
 800467c:	4603      	mov	r3, r0
 800467e:	2b00      	cmp	r3, #0
 8004680:	d016      	beq.n	80046b0 <SPI_EndRxTxTransaction+0x70>
    {
      SET_BIT(hspi->ErrorCode, HAL_SPI_ERROR_FLAG);
 8004682:	68fb      	ldr	r3, [r7, #12]
 8004684:	6d5b      	ldr	r3, [r3, #84]	; 0x54
 8004686:	f043 0220 	orr.w	r2, r3, #32
 800468a:	68fb      	ldr	r3, [r7, #12]
 800468c:	655a      	str	r2, [r3, #84]	; 0x54
      return HAL_TIMEOUT;
 800468e:	2303      	movs	r3, #3
 8004690:	e00f      	b.n	80046b2 <SPI_EndRxTxTransaction+0x72>
    * User have to calculate the timeout value to fit with the time of 1 byte transfer.
    * This time is directly link with the SPI clock from Master device.
    */
    do
    {
      if (count == 0U)
 8004692:	697b      	ldr	r3, [r7, #20]
 8004694:	2b00      	cmp	r3, #0
 8004696:	d00a      	beq.n	80046ae <SPI_EndRxTxTransaction+0x6e>
      {
        break;
      }
      count--;
 8004698:	697b      	ldr	r3, [r7, #20]
 800469a:	3b01      	subs	r3, #1
 800469c:	617b      	str	r3, [r7, #20]
    } while (__HAL_SPI_GET_FLAG(hspi, SPI_FLAG_BSY) != RESET);
 800469e:	68fb      	ldr	r3, [r7, #12]
 80046a0:	681b      	ldr	r3, [r3, #0]
 80046a2:	689b      	ldr	r3, [r3, #8]
 80046a4:	f003 0380 	and.w	r3, r3, #128	; 0x80
 80046a8:	2b80      	cmp	r3, #128	; 0x80
 80046aa:	d0f2      	beq.n	8004692 <SPI_EndRxTxTransaction+0x52>
 80046ac:	e000      	b.n	80046b0 <SPI_EndRxTxTransaction+0x70>
        break;
 80046ae:	bf00      	nop
  }

  return HAL_OK;
 80046b0:	2300      	movs	r3, #0
}
 80046b2:	4618      	mov	r0, r3
 80046b4:	3718      	adds	r7, #24
 80046b6:	46bd      	mov	sp, r7
 80046b8:	bd80      	pop	{r7, pc}
 80046ba:	bf00      	nop
 80046bc:	20000000 	.word	0x20000000
 80046c0:	165e9f81 	.word	0x165e9f81

080046c4 <HAL_UART_Init>:
  * @param  huart  Pointer to a UART_HandleTypeDef structure that contains
  *                the configuration information for the specified UART module.
  * @retval HAL status
  */
HAL_StatusTypeDef HAL_UART_Init(UART_HandleTypeDef *huart)
{
 80046c4:	b580      	push	{r7, lr}
 80046c6:	b082      	sub	sp, #8
 80046c8:	af00      	add	r7, sp, #0
 80046ca:	6078      	str	r0, [r7, #4]
  /* Check the UART handle allocation */
  if (huart == NULL)
 80046cc:	687b      	ldr	r3, [r7, #4]
 80046ce:	2b00      	cmp	r3, #0
 80046d0:	d101      	bne.n	80046d6 <HAL_UART_Init+0x12>
  {
    return HAL_ERROR;
 80046d2:	2301      	movs	r3, #1
 80046d4:	e03f      	b.n	8004756 <HAL_UART_Init+0x92>
    assert_param(IS_UART_INSTANCE(huart->Instance));
  }
  assert_param(IS_UART_WORD_LENGTH(huart->Init.WordLength));
  assert_param(IS_UART_OVERSAMPLING(huart->Init.OverSampling));

  if (huart->gState == HAL_UART_STATE_RESET)
 80046d6:	687b      	ldr	r3, [r7, #4]
 80046d8:	f893 3039 	ldrb.w	r3, [r3, #57]	; 0x39
 80046dc:	b2db      	uxtb	r3, r3
 80046de:	2b00      	cmp	r3, #0
 80046e0:	d106      	bne.n	80046f0 <HAL_UART_Init+0x2c>
  {
    /* Allocate lock resource and initialize it */
    huart->Lock = HAL_UNLOCKED;
 80046e2:	687b      	ldr	r3, [r7, #4]
 80046e4:	2200      	movs	r2, #0
 80046e6:	f883 2038 	strb.w	r2, [r3, #56]	; 0x38

    /* Init the low level hardware */
    huart->MspInitCallback(huart);
#else
    /* Init the low level hardware : GPIO, CLOCK */
    HAL_UART_MspInit(huart);
 80046ea:	6878      	ldr	r0, [r7, #4]
 80046ec:	f7fd fa4e 	bl	8001b8c <HAL_UART_MspInit>
#endif /* (USE_HAL_UART_REGISTER_CALLBACKS) */
  }

  huart->gState = HAL_UART_STATE_BUSY;
 80046f0:	687b      	ldr	r3, [r7, #4]
 80046f2:	2224      	movs	r2, #36	; 0x24
 80046f4:	f883 2039 	strb.w	r2, [r3, #57]	; 0x39

  /* Disable the peripheral */
  __HAL_UART_DISABLE(huart);
 80046f8:	687b      	ldr	r3, [r7, #4]
 80046fa:	681b      	ldr	r3, [r3, #0]
 80046fc:	68da      	ldr	r2, [r3, #12]
 80046fe:	687b      	ldr	r3, [r7, #4]
 8004700:	681b      	ldr	r3, [r3, #0]
 8004702:	f422 5200 	bic.w	r2, r2, #8192	; 0x2000
 8004706:	60da      	str	r2, [r3, #12]

  /* Set the UART Communication parameters */
  UART_SetConfig(huart);
 8004708:	6878      	ldr	r0, [r7, #4]
 800470a:	f000 f90b 	bl	8004924 <UART_SetConfig>

  /* In asynchronous mode, the following bits must be kept cleared:
     - LINEN and CLKEN bits in the USART_CR2 register,
     - SCEN, HDSEL and IREN  bits in the USART_CR3 register.*/
  CLEAR_BIT(huart->Instance->CR2, (USART_CR2_LINEN | USART_CR2_CLKEN));
 800470e:	687b      	ldr	r3, [r7, #4]
 8004710:	681b      	ldr	r3, [r3, #0]
 8004712:	691a      	ldr	r2, [r3, #16]
 8004714:	687b      	ldr	r3, [r7, #4]
 8004716:	681b      	ldr	r3, [r3, #0]
 8004718:	f422 4290 	bic.w	r2, r2, #18432	; 0x4800
 800471c:	611a      	str	r2, [r3, #16]
  CLEAR_BIT(huart->Instance->CR3, (USART_CR3_SCEN | USART_CR3_HDSEL | USART_CR3_IREN));
 800471e:	687b      	ldr	r3, [r7, #4]
 8004720:	681b      	ldr	r3, [r3, #0]
 8004722:	695a      	ldr	r2, [r3, #20]
 8004724:	687b      	ldr	r3, [r7, #4]
 8004726:	681b      	ldr	r3, [r3, #0]
 8004728:	f022 022a 	bic.w	r2, r2, #42	; 0x2a
 800472c:	615a      	str	r2, [r3, #20]

  /* Enable the peripheral */
  __HAL_UART_ENABLE(huart);
 800472e:	687b      	ldr	r3, [r7, #4]
 8004730:	681b      	ldr	r3, [r3, #0]
 8004732:	68da      	ldr	r2, [r3, #12]
 8004734:	687b      	ldr	r3, [r7, #4]
 8004736:	681b      	ldr	r3, [r3, #0]
 8004738:	f442 5200 	orr.w	r2, r2, #8192	; 0x2000
 800473c:	60da      	str	r2, [r3, #12]

  /* Initialize the UART state */
  huart->ErrorCode = HAL_UART_ERROR_NONE;
 800473e:	687b      	ldr	r3, [r7, #4]
 8004740:	2200      	movs	r2, #0
 8004742:	63da      	str	r2, [r3, #60]	; 0x3c
  huart->gState = HAL_UART_STATE_READY;
 8004744:	687b      	ldr	r3, [r7, #4]
 8004746:	2220      	movs	r2, #32
 8004748:	f883 2039 	strb.w	r2, [r3, #57]	; 0x39
  huart->RxState = HAL_UART_STATE_READY;
 800474c:	687b      	ldr	r3, [r7, #4]
 800474e:	2220      	movs	r2, #32
 8004750:	f883 203a 	strb.w	r2, [r3, #58]	; 0x3a

  return HAL_OK;
 8004754:	2300      	movs	r3, #0
}
 8004756:	4618      	mov	r0, r3
 8004758:	3708      	adds	r7, #8
 800475a:	46bd      	mov	sp, r7
 800475c:	bd80      	pop	{r7, pc}

0800475e <HAL_UART_Transmit>:
  * @param  Size  Amount of data elements (u8 or u16) to be sent
  * @param  Timeout Timeout duration
  * @retval HAL status
  */
HAL_StatusTypeDef HAL_UART_Transmit(UART_HandleTypeDef *huart, uint8_t *pData, uint16_t Size, uint32_t Timeout)
{
 800475e:	b580      	push	{r7, lr}
 8004760:	b088      	sub	sp, #32
 8004762:	af02      	add	r7, sp, #8
 8004764:	60f8      	str	r0, [r7, #12]
 8004766:	60b9      	str	r1, [r7, #8]
 8004768:	603b      	str	r3, [r7, #0]
 800476a:	4613      	mov	r3, r2
 800476c:	80fb      	strh	r3, [r7, #6]
  uint16_t *tmp;
  uint32_t tickstart = 0U;
 800476e:	2300      	movs	r3, #0
 8004770:	617b      	str	r3, [r7, #20]

  /* Check that a Tx process is not already ongoing */
  if (huart->gState == HAL_UART_STATE_READY)
 8004772:	68fb      	ldr	r3, [r7, #12]
 8004774:	f893 3039 	ldrb.w	r3, [r3, #57]	; 0x39
 8004778:	b2db      	uxtb	r3, r3
 800477a:	2b20      	cmp	r3, #32
 800477c:	f040 8083 	bne.w	8004886 <HAL_UART_Transmit+0x128>
  {
    if ((pData == NULL) || (Size == 0U))
 8004780:	68bb      	ldr	r3, [r7, #8]
 8004782:	2b00      	cmp	r3, #0
 8004784:	d002      	beq.n	800478c <HAL_UART_Transmit+0x2e>
 8004786:	88fb      	ldrh	r3, [r7, #6]
 8004788:	2b00      	cmp	r3, #0
 800478a:	d101      	bne.n	8004790 <HAL_UART_Transmit+0x32>
    {
      return  HAL_ERROR;
 800478c:	2301      	movs	r3, #1
 800478e:	e07b      	b.n	8004888 <HAL_UART_Transmit+0x12a>
    }

    /* Process Locked */
    __HAL_LOCK(huart);
 8004790:	68fb      	ldr	r3, [r7, #12]
 8004792:	f893 3038 	ldrb.w	r3, [r3, #56]	; 0x38
 8004796:	2b01      	cmp	r3, #1
 8004798:	d101      	bne.n	800479e <HAL_UART_Transmit+0x40>
 800479a:	2302      	movs	r3, #2
 800479c:	e074      	b.n	8004888 <HAL_UART_Transmit+0x12a>
 800479e:	68fb      	ldr	r3, [r7, #12]
 80047a0:	2201      	movs	r2, #1
 80047a2:	f883 2038 	strb.w	r2, [r3, #56]	; 0x38

    huart->ErrorCode = HAL_UART_ERROR_NONE;
 80047a6:	68fb      	ldr	r3, [r7, #12]
 80047a8:	2200      	movs	r2, #0
 80047aa:	63da      	str	r2, [r3, #60]	; 0x3c
    huart->gState = HAL_UART_STATE_BUSY_TX;
 80047ac:	68fb      	ldr	r3, [r7, #12]
 80047ae:	2221      	movs	r2, #33	; 0x21
 80047b0:	f883 2039 	strb.w	r2, [r3, #57]	; 0x39

    /* Init tickstart for timeout managment */
    tickstart = HAL_GetTick();
 80047b4:	f7fd fb46 	bl	8001e44 <HAL_GetTick>
 80047b8:	6178      	str	r0, [r7, #20]

    huart->TxXferSize = Size;
 80047ba:	68fb      	ldr	r3, [r7, #12]
 80047bc:	88fa      	ldrh	r2, [r7, #6]
 80047be:	849a      	strh	r2, [r3, #36]	; 0x24
    huart->TxXferCount = Size;
 80047c0:	68fb      	ldr	r3, [r7, #12]
 80047c2:	88fa      	ldrh	r2, [r7, #6]
 80047c4:	84da      	strh	r2, [r3, #38]	; 0x26

    /* Process Unlocked */
    __HAL_UNLOCK(huart);
 80047c6:	68fb      	ldr	r3, [r7, #12]
 80047c8:	2200      	movs	r2, #0
 80047ca:	f883 2038 	strb.w	r2, [r3, #56]	; 0x38

    while (huart->TxXferCount > 0U)
 80047ce:	e042      	b.n	8004856 <HAL_UART_Transmit+0xf8>
    {
      huart->TxXferCount--;
 80047d0:	68fb      	ldr	r3, [r7, #12]
 80047d2:	8cdb      	ldrh	r3, [r3, #38]	; 0x26
 80047d4:	b29b      	uxth	r3, r3
 80047d6:	3b01      	subs	r3, #1
 80047d8:	b29a      	uxth	r2, r3
 80047da:	68fb      	ldr	r3, [r7, #12]
 80047dc:	84da      	strh	r2, [r3, #38]	; 0x26
      if (huart->Init.WordLength == UART_WORDLENGTH_9B)
 80047de:	68fb      	ldr	r3, [r7, #12]
 80047e0:	689b      	ldr	r3, [r3, #8]
 80047e2:	f5b3 5f80 	cmp.w	r3, #4096	; 0x1000
 80047e6:	d122      	bne.n	800482e <HAL_UART_Transmit+0xd0>
      {
        if (UART_WaitOnFlagUntilTimeout(huart, UART_FLAG_TXE, RESET, tickstart, Timeout) != HAL_OK)
 80047e8:	683b      	ldr	r3, [r7, #0]
 80047ea:	9300      	str	r3, [sp, #0]
 80047ec:	697b      	ldr	r3, [r7, #20]
 80047ee:	2200      	movs	r2, #0
 80047f0:	2180      	movs	r1, #128	; 0x80
 80047f2:	68f8      	ldr	r0, [r7, #12]
 80047f4:	f000 f84c 	bl	8004890 <UART_WaitOnFlagUntilTimeout>
 80047f8:	4603      	mov	r3, r0
 80047fa:	2b00      	cmp	r3, #0
 80047fc:	d001      	beq.n	8004802 <HAL_UART_Transmit+0xa4>
        {
          return HAL_TIMEOUT;
 80047fe:	2303      	movs	r3, #3
 8004800:	e042      	b.n	8004888 <HAL_UART_Transmit+0x12a>
        }
        tmp = (uint16_t *) pData;
 8004802:	68bb      	ldr	r3, [r7, #8]
 8004804:	613b      	str	r3, [r7, #16]
        huart->Instance->DR = (*tmp & (uint16_t)0x01FF);
 8004806:	693b      	ldr	r3, [r7, #16]
 8004808:	881b      	ldrh	r3, [r3, #0]
 800480a:	461a      	mov	r2, r3
 800480c:	68fb      	ldr	r3, [r7, #12]
 800480e:	681b      	ldr	r3, [r3, #0]
 8004810:	f3c2 0208 	ubfx	r2, r2, #0, #9
 8004814:	605a      	str	r2, [r3, #4]
        if (huart->Init.Parity == UART_PARITY_NONE)
 8004816:	68fb      	ldr	r3, [r7, #12]
 8004818:	691b      	ldr	r3, [r3, #16]
 800481a:	2b00      	cmp	r3, #0
 800481c:	d103      	bne.n	8004826 <HAL_UART_Transmit+0xc8>
        {
          pData += 2U;
 800481e:	68bb      	ldr	r3, [r7, #8]
 8004820:	3302      	adds	r3, #2
 8004822:	60bb      	str	r3, [r7, #8]
 8004824:	e017      	b.n	8004856 <HAL_UART_Transmit+0xf8>
        }
        else
        {
          pData += 1U;
 8004826:	68bb      	ldr	r3, [r7, #8]
 8004828:	3301      	adds	r3, #1
 800482a:	60bb      	str	r3, [r7, #8]
 800482c:	e013      	b.n	8004856 <HAL_UART_Transmit+0xf8>
        }
      }
      else
      {
        if (UART_WaitOnFlagUntilTimeout(huart, UART_FLAG_TXE, RESET, tickstart, Timeout) != HAL_OK)
 800482e:	683b      	ldr	r3, [r7, #0]
 8004830:	9300      	str	r3, [sp, #0]
 8004832:	697b      	ldr	r3, [r7, #20]
 8004834:	2200      	movs	r2, #0
 8004836:	2180      	movs	r1, #128	; 0x80
 8004838:	68f8      	ldr	r0, [r7, #12]
 800483a:	f000 f829 	bl	8004890 <UART_WaitOnFlagUntilTimeout>
 800483e:	4603      	mov	r3, r0
 8004840:	2b00      	cmp	r3, #0
 8004842:	d001      	beq.n	8004848 <HAL_UART_Transmit+0xea>
        {
          return HAL_TIMEOUT;
 8004844:	2303      	movs	r3, #3
 8004846:	e01f      	b.n	8004888 <HAL_UART_Transmit+0x12a>
        }
        huart->Instance->DR = (*pData++ & (uint8_t)0xFF);
 8004848:	68bb      	ldr	r3, [r7, #8]
 800484a:	1c5a      	adds	r2, r3, #1
 800484c:	60ba      	str	r2, [r7, #8]
 800484e:	781a      	ldrb	r2, [r3, #0]
 8004850:	68fb      	ldr	r3, [r7, #12]
 8004852:	681b      	ldr	r3, [r3, #0]
 8004854:	605a      	str	r2, [r3, #4]
    while (huart->TxXferCount > 0U)
 8004856:	68fb      	ldr	r3, [r7, #12]
 8004858:	8cdb      	ldrh	r3, [r3, #38]	; 0x26
 800485a:	b29b      	uxth	r3, r3
 800485c:	2b00      	cmp	r3, #0
 800485e:	d1b7      	bne.n	80047d0 <HAL_UART_Transmit+0x72>
      }
    }

    if (UART_WaitOnFlagUntilTimeout(huart, UART_FLAG_TC, RESET, tickstart, Timeout) != HAL_OK)
 8004860:	683b      	ldr	r3, [r7, #0]
 8004862:	9300      	str	r3, [sp, #0]
 8004864:	697b      	ldr	r3, [r7, #20]
 8004866:	2200      	movs	r2, #0
 8004868:	2140      	movs	r1, #64	; 0x40
 800486a:	68f8      	ldr	r0, [r7, #12]
 800486c:	f000 f810 	bl	8004890 <UART_WaitOnFlagUntilTimeout>
 8004870:	4603      	mov	r3, r0
 8004872:	2b00      	cmp	r3, #0
 8004874:	d001      	beq.n	800487a <HAL_UART_Transmit+0x11c>
    {
      return HAL_TIMEOUT;
 8004876:	2303      	movs	r3, #3
 8004878:	e006      	b.n	8004888 <HAL_UART_Transmit+0x12a>
    }

    /* At end of Tx process, restore huart->gState to Ready */
    huart->gState = HAL_UART_STATE_READY;
 800487a:	68fb      	ldr	r3, [r7, #12]
 800487c:	2220      	movs	r2, #32
 800487e:	f883 2039 	strb.w	r2, [r3, #57]	; 0x39

    return HAL_OK;
 8004882:	2300      	movs	r3, #0
 8004884:	e000      	b.n	8004888 <HAL_UART_Transmit+0x12a>
  }
  else
  {
    return HAL_BUSY;
 8004886:	2302      	movs	r3, #2
  }
}
 8004888:	4618      	mov	r0, r3
 800488a:	3718      	adds	r7, #24
 800488c:	46bd      	mov	sp, r7
 800488e:	bd80      	pop	{r7, pc}

08004890 <UART_WaitOnFlagUntilTimeout>:
  * @param  Tickstart Tick start value
  * @param  Timeout Timeout duration
  * @retval HAL status
  */
static HAL_StatusTypeDef UART_WaitOnFlagUntilTimeout(UART_HandleTypeDef *huart, uint32_t Flag, FlagStatus Status, uint32_t Tickstart, uint32_t Timeout)
{
 8004890:	b580      	push	{r7, lr}
 8004892:	b084      	sub	sp, #16
 8004894:	af00      	add	r7, sp, #0
 8004896:	60f8      	str	r0, [r7, #12]
 8004898:	60b9      	str	r1, [r7, #8]
 800489a:	603b      	str	r3, [r7, #0]
 800489c:	4613      	mov	r3, r2
 800489e:	71fb      	strb	r3, [r7, #7]
  /* Wait until flag is set */
  while ((__HAL_UART_GET_FLAG(huart, Flag) ? SET : RESET) == Status)
 80048a0:	e02c      	b.n	80048fc <UART_WaitOnFlagUntilTimeout+0x6c>
  {
    /* Check for the Timeout */
    if (Timeout != HAL_MAX_DELAY)
 80048a2:	69bb      	ldr	r3, [r7, #24]
 80048a4:	f1b3 3fff 	cmp.w	r3, #4294967295
 80048a8:	d028      	beq.n	80048fc <UART_WaitOnFlagUntilTimeout+0x6c>
    {
      if ((Timeout == 0U) || ((HAL_GetTick() - Tickstart) > Timeout))
 80048aa:	69bb      	ldr	r3, [r7, #24]
 80048ac:	2b00      	cmp	r3, #0
 80048ae:	d007      	beq.n	80048c0 <UART_WaitOnFlagUntilTimeout+0x30>
 80048b0:	f7fd fac8 	bl	8001e44 <HAL_GetTick>
 80048b4:	4602      	mov	r2, r0
 80048b6:	683b      	ldr	r3, [r7, #0]
 80048b8:	1ad3      	subs	r3, r2, r3
 80048ba:	69ba      	ldr	r2, [r7, #24]
 80048bc:	429a      	cmp	r2, r3
 80048be:	d21d      	bcs.n	80048fc <UART_WaitOnFlagUntilTimeout+0x6c>
      {
        /* Disable TXE, RXNE, PE and ERR (Frame error, noise error, overrun error) interrupts for the interrupt process */
        CLEAR_BIT(huart->Instance->CR1, (USART_CR1_RXNEIE | USART_CR1_PEIE | USART_CR1_TXEIE));
 80048c0:	68fb      	ldr	r3, [r7, #12]
 80048c2:	681b      	ldr	r3, [r3, #0]
 80048c4:	68da      	ldr	r2, [r3, #12]
 80048c6:	68fb      	ldr	r3, [r7, #12]
 80048c8:	681b      	ldr	r3, [r3, #0]
 80048ca:	f422 72d0 	bic.w	r2, r2, #416	; 0x1a0
 80048ce:	60da      	str	r2, [r3, #12]
        CLEAR_BIT(huart->Instance->CR3, USART_CR3_EIE);
 80048d0:	68fb      	ldr	r3, [r7, #12]
 80048d2:	681b      	ldr	r3, [r3, #0]
 80048d4:	695a      	ldr	r2, [r3, #20]
 80048d6:	68fb      	ldr	r3, [r7, #12]
 80048d8:	681b      	ldr	r3, [r3, #0]
 80048da:	f022 0201 	bic.w	r2, r2, #1
 80048de:	615a      	str	r2, [r3, #20]

        huart->gState  = HAL_UART_STATE_READY;
 80048e0:	68fb      	ldr	r3, [r7, #12]
 80048e2:	2220      	movs	r2, #32
 80048e4:	f883 2039 	strb.w	r2, [r3, #57]	; 0x39
        huart->RxState = HAL_UART_STATE_READY;
 80048e8:	68fb      	ldr	r3, [r7, #12]
 80048ea:	2220      	movs	r2, #32
 80048ec:	f883 203a 	strb.w	r2, [r3, #58]	; 0x3a

        /* Process Unlocked */
        __HAL_UNLOCK(huart);
 80048f0:	68fb      	ldr	r3, [r7, #12]
 80048f2:	2200      	movs	r2, #0
 80048f4:	f883 2038 	strb.w	r2, [r3, #56]	; 0x38

        return HAL_TIMEOUT;
 80048f8:	2303      	movs	r3, #3
 80048fa:	e00f      	b.n	800491c <UART_WaitOnFlagUntilTimeout+0x8c>
  while ((__HAL_UART_GET_FLAG(huart, Flag) ? SET : RESET) == Status)
 80048fc:	68fb      	ldr	r3, [r7, #12]
 80048fe:	681b      	ldr	r3, [r3, #0]
 8004900:	681a      	ldr	r2, [r3, #0]
 8004902:	68bb      	ldr	r3, [r7, #8]
 8004904:	4013      	ands	r3, r2
 8004906:	68ba      	ldr	r2, [r7, #8]
 8004908:	429a      	cmp	r2, r3
 800490a:	bf0c      	ite	eq
 800490c:	2301      	moveq	r3, #1
 800490e:	2300      	movne	r3, #0
 8004910:	b2db      	uxtb	r3, r3
 8004912:	461a      	mov	r2, r3
 8004914:	79fb      	ldrb	r3, [r7, #7]
 8004916:	429a      	cmp	r2, r3
 8004918:	d0c3      	beq.n	80048a2 <UART_WaitOnFlagUntilTimeout+0x12>
      }
    }
  }
  return HAL_OK;
 800491a:	2300      	movs	r3, #0
}
 800491c:	4618      	mov	r0, r3
 800491e:	3710      	adds	r7, #16
 8004920:	46bd      	mov	sp, r7
 8004922:	bd80      	pop	{r7, pc}

08004924 <UART_SetConfig>:
  * @param  huart  Pointer to a UART_HandleTypeDef structure that contains
  *                the configuration information for the specified UART module.
  * @retval None
  */
static void UART_SetConfig(UART_HandleTypeDef *huart)
{
 8004924:	e92d 4ff0 	stmdb	sp!, {r4, r5, r6, r7, r8, r9, sl, fp, lr}
 8004928:	b085      	sub	sp, #20
 800492a:	af00      	add	r7, sp, #0
 800492c:	6078      	str	r0, [r7, #4]
  assert_param(IS_UART_MODE(huart->Init.Mode));

  /*-------------------------- USART CR2 Configuration -----------------------*/
  /* Configure the UART Stop Bits: Set STOP[13:12] bits
     according to huart->Init.StopBits value */
  MODIFY_REG(huart->Instance->CR2, USART_CR2_STOP, huart->Init.StopBits);
 800492e:	687b      	ldr	r3, [r7, #4]
 8004930:	681b      	ldr	r3, [r3, #0]
 8004932:	691b      	ldr	r3, [r3, #16]
 8004934:	f423 5140 	bic.w	r1, r3, #12288	; 0x3000
 8004938:	687b      	ldr	r3, [r7, #4]
 800493a:	68da      	ldr	r2, [r3, #12]
 800493c:	687b      	ldr	r3, [r7, #4]
 800493e:	681b      	ldr	r3, [r3, #0]
 8004940:	430a      	orrs	r2, r1
 8004942:	611a      	str	r2, [r3, #16]
     Set the M bits according to huart->Init.WordLength value
     Set PCE and PS bits according to huart->Init.Parity value
     Set TE and RE bits according to huart->Init.Mode value
     Set OVER8 bit according to huart->Init.OverSampling value */

  tmpreg = (uint32_t)huart->Init.WordLength | huart->Init.Parity | huart->Init.Mode | huart->Init.OverSampling;
 8004944:	687b      	ldr	r3, [r7, #4]
 8004946:	689a      	ldr	r2, [r3, #8]
 8004948:	687b      	ldr	r3, [r7, #4]
 800494a:	691b      	ldr	r3, [r3, #16]
 800494c:	431a      	orrs	r2, r3
 800494e:	687b      	ldr	r3, [r7, #4]
 8004950:	695b      	ldr	r3, [r3, #20]
 8004952:	431a      	orrs	r2, r3
 8004954:	687b      	ldr	r3, [r7, #4]
 8004956:	69db      	ldr	r3, [r3, #28]
 8004958:	4313      	orrs	r3, r2
 800495a:	60fb      	str	r3, [r7, #12]
  MODIFY_REG(huart->Instance->CR1,
 800495c:	687b      	ldr	r3, [r7, #4]
 800495e:	681b      	ldr	r3, [r3, #0]
 8004960:	68db      	ldr	r3, [r3, #12]
 8004962:	f423 4316 	bic.w	r3, r3, #38400	; 0x9600
 8004966:	f023 030c 	bic.w	r3, r3, #12
 800496a:	687a      	ldr	r2, [r7, #4]
 800496c:	6812      	ldr	r2, [r2, #0]
 800496e:	68f9      	ldr	r1, [r7, #12]
 8004970:	430b      	orrs	r3, r1
 8004972:	60d3      	str	r3, [r2, #12]
             (uint32_t)(USART_CR1_M | USART_CR1_PCE | USART_CR1_PS | USART_CR1_TE | USART_CR1_RE | USART_CR1_OVER8),
             tmpreg);

  /*-------------------------- USART CR3 Configuration -----------------------*/
  /* Configure the UART HFC: Set CTSE and RTSE bits according to huart->Init.HwFlowCtl value */
  MODIFY_REG(huart->Instance->CR3, (USART_CR3_RTSE | USART_CR3_CTSE), huart->Init.HwFlowCtl);
 8004974:	687b      	ldr	r3, [r7, #4]
 8004976:	681b      	ldr	r3, [r3, #0]
 8004978:	695b      	ldr	r3, [r3, #20]
 800497a:	f423 7140 	bic.w	r1, r3, #768	; 0x300
 800497e:	687b      	ldr	r3, [r7, #4]
 8004980:	699a      	ldr	r2, [r3, #24]
 8004982:	687b      	ldr	r3, [r7, #4]
 8004984:	681b      	ldr	r3, [r3, #0]
 8004986:	430a      	orrs	r2, r1
 8004988:	615a      	str	r2, [r3, #20]

  /* Check the Over Sampling */
  if (huart->Init.OverSampling == UART_OVERSAMPLING_8)
 800498a:	687b      	ldr	r3, [r7, #4]
 800498c:	69db      	ldr	r3, [r3, #28]
 800498e:	f5b3 4f00 	cmp.w	r3, #32768	; 0x8000
 8004992:	f040 818b 	bne.w	8004cac <UART_SetConfig+0x388>
    {
      pclk = HAL_RCC_GetPCLK2Freq();
      huart->Instance->BRR = UART_BRR_SAMPLING8(pclk, huart->Init.BaudRate);
    }
#elif defined(USART6)
    if ((huart->Instance == USART1) || (huart->Instance == USART6))
 8004996:	687b      	ldr	r3, [r7, #4]
 8004998:	681b      	ldr	r3, [r3, #0]
 800499a:	4ac1      	ldr	r2, [pc, #772]	; (8004ca0 <UART_SetConfig+0x37c>)
 800499c:	4293      	cmp	r3, r2
 800499e:	d005      	beq.n	80049ac <UART_SetConfig+0x88>
 80049a0:	687b      	ldr	r3, [r7, #4]
 80049a2:	681b      	ldr	r3, [r3, #0]
 80049a4:	4abf      	ldr	r2, [pc, #764]	; (8004ca4 <UART_SetConfig+0x380>)
 80049a6:	4293      	cmp	r3, r2
 80049a8:	f040 80bd 	bne.w	8004b26 <UART_SetConfig+0x202>
    {
      pclk = HAL_RCC_GetPCLK2Freq();
 80049ac:	f7fe ffca 	bl	8003944 <HAL_RCC_GetPCLK2Freq>
 80049b0:	60b8      	str	r0, [r7, #8]
      huart->Instance->BRR = UART_BRR_SAMPLING8(pclk, huart->Init.BaudRate);
 80049b2:	68bb      	ldr	r3, [r7, #8]
 80049b4:	461d      	mov	r5, r3
 80049b6:	f04f 0600 	mov.w	r6, #0
 80049ba:	46a8      	mov	r8, r5
 80049bc:	46b1      	mov	r9, r6
 80049be:	eb18 0308 	adds.w	r3, r8, r8
 80049c2:	eb49 0409 	adc.w	r4, r9, r9
 80049c6:	4698      	mov	r8, r3
 80049c8:	46a1      	mov	r9, r4
 80049ca:	eb18 0805 	adds.w	r8, r8, r5
 80049ce:	eb49 0906 	adc.w	r9, r9, r6
 80049d2:	f04f 0100 	mov.w	r1, #0
 80049d6:	f04f 0200 	mov.w	r2, #0
 80049da:	ea4f 02c9 	mov.w	r2, r9, lsl #3
 80049de:	ea42 7258 	orr.w	r2, r2, r8, lsr #29
 80049e2:	ea4f 01c8 	mov.w	r1, r8, lsl #3
 80049e6:	4688      	mov	r8, r1
 80049e8:	4691      	mov	r9, r2
 80049ea:	eb18 0005 	adds.w	r0, r8, r5
 80049ee:	eb49 0106 	adc.w	r1, r9, r6
 80049f2:	687b      	ldr	r3, [r7, #4]
 80049f4:	685b      	ldr	r3, [r3, #4]
 80049f6:	461d      	mov	r5, r3
 80049f8:	f04f 0600 	mov.w	r6, #0
 80049fc:	196b      	adds	r3, r5, r5
 80049fe:	eb46 0406 	adc.w	r4, r6, r6
 8004a02:	461a      	mov	r2, r3
 8004a04:	4623      	mov	r3, r4
 8004a06:	f7fc f8ef 	bl	8000be8 <__aeabi_uldivmod>
 8004a0a:	4603      	mov	r3, r0
 8004a0c:	460c      	mov	r4, r1
 8004a0e:	461a      	mov	r2, r3
 8004a10:	4ba5      	ldr	r3, [pc, #660]	; (8004ca8 <UART_SetConfig+0x384>)
 8004a12:	fba3 2302 	umull	r2, r3, r3, r2
 8004a16:	095b      	lsrs	r3, r3, #5
 8004a18:	ea4f 1803 	mov.w	r8, r3, lsl #4
 8004a1c:	68bb      	ldr	r3, [r7, #8]
 8004a1e:	461d      	mov	r5, r3
 8004a20:	f04f 0600 	mov.w	r6, #0
 8004a24:	46a9      	mov	r9, r5
 8004a26:	46b2      	mov	sl, r6
 8004a28:	eb19 0309 	adds.w	r3, r9, r9
 8004a2c:	eb4a 040a 	adc.w	r4, sl, sl
 8004a30:	4699      	mov	r9, r3
 8004a32:	46a2      	mov	sl, r4
 8004a34:	eb19 0905 	adds.w	r9, r9, r5
 8004a38:	eb4a 0a06 	adc.w	sl, sl, r6
 8004a3c:	f04f 0100 	mov.w	r1, #0
 8004a40:	f04f 0200 	mov.w	r2, #0
 8004a44:	ea4f 02ca 	mov.w	r2, sl, lsl #3
 8004a48:	ea42 7259 	orr.w	r2, r2, r9, lsr #29
 8004a4c:	ea4f 01c9 	mov.w	r1, r9, lsl #3
 8004a50:	4689      	mov	r9, r1
 8004a52:	4692      	mov	sl, r2
 8004a54:	eb19 0005 	adds.w	r0, r9, r5
 8004a58:	eb4a 0106 	adc.w	r1, sl, r6
 8004a5c:	687b      	ldr	r3, [r7, #4]
 8004a5e:	685b      	ldr	r3, [r3, #4]
 8004a60:	461d      	mov	r5, r3
 8004a62:	f04f 0600 	mov.w	r6, #0
 8004a66:	196b      	adds	r3, r5, r5
 8004a68:	eb46 0406 	adc.w	r4, r6, r6
 8004a6c:	461a      	mov	r2, r3
 8004a6e:	4623      	mov	r3, r4
 8004a70:	f7fc f8ba 	bl	8000be8 <__aeabi_uldivmod>
 8004a74:	4603      	mov	r3, r0
 8004a76:	460c      	mov	r4, r1
 8004a78:	461a      	mov	r2, r3
 8004a7a:	4b8b      	ldr	r3, [pc, #556]	; (8004ca8 <UART_SetConfig+0x384>)
 8004a7c:	fba3 1302 	umull	r1, r3, r3, r2
 8004a80:	095b      	lsrs	r3, r3, #5
 8004a82:	2164      	movs	r1, #100	; 0x64
 8004a84:	fb01 f303 	mul.w	r3, r1, r3
 8004a88:	1ad3      	subs	r3, r2, r3
 8004a8a:	00db      	lsls	r3, r3, #3
 8004a8c:	3332      	adds	r3, #50	; 0x32
 8004a8e:	4a86      	ldr	r2, [pc, #536]	; (8004ca8 <UART_SetConfig+0x384>)
 8004a90:	fba2 2303 	umull	r2, r3, r2, r3
 8004a94:	095b      	lsrs	r3, r3, #5
 8004a96:	005b      	lsls	r3, r3, #1
 8004a98:	f403 73f8 	and.w	r3, r3, #496	; 0x1f0
 8004a9c:	4498      	add	r8, r3
 8004a9e:	68bb      	ldr	r3, [r7, #8]
 8004aa0:	461d      	mov	r5, r3
 8004aa2:	f04f 0600 	mov.w	r6, #0
 8004aa6:	46a9      	mov	r9, r5
 8004aa8:	46b2      	mov	sl, r6
 8004aaa:	eb19 0309 	adds.w	r3, r9, r9
 8004aae:	eb4a 040a 	adc.w	r4, sl, sl
 8004ab2:	4699      	mov	r9, r3
 8004ab4:	46a2      	mov	sl, r4
 8004ab6:	eb19 0905 	adds.w	r9, r9, r5
 8004aba:	eb4a 0a06 	adc.w	sl, sl, r6
 8004abe:	f04f 0100 	mov.w	r1, #0
 8004ac2:	f04f 0200 	mov.w	r2, #0
 8004ac6:	ea4f 02ca 	mov.w	r2, sl, lsl #3
 8004aca:	ea42 7259 	orr.w	r2, r2, r9, lsr #29
 8004ace:	ea4f 01c9 	mov.w	r1, r9, lsl #3
 8004ad2:	4689      	mov	r9, r1
 8004ad4:	4692      	mov	sl, r2
 8004ad6:	eb19 0005 	adds.w	r0, r9, r5
 8004ada:	eb4a 0106 	adc.w	r1, sl, r6
 8004ade:	687b      	ldr	r3, [r7, #4]
 8004ae0:	685b      	ldr	r3, [r3, #4]
 8004ae2:	461d      	mov	r5, r3
 8004ae4:	f04f 0600 	mov.w	r6, #0
 8004ae8:	196b      	adds	r3, r5, r5
 8004aea:	eb46 0406 	adc.w	r4, r6, r6
 8004aee:	461a      	mov	r2, r3
 8004af0:	4623      	mov	r3, r4
 8004af2:	f7fc f879 	bl	8000be8 <__aeabi_uldivmod>
 8004af6:	4603      	mov	r3, r0
 8004af8:	460c      	mov	r4, r1
 8004afa:	461a      	mov	r2, r3
 8004afc:	4b6a      	ldr	r3, [pc, #424]	; (8004ca8 <UART_SetConfig+0x384>)
 8004afe:	fba3 1302 	umull	r1, r3, r3, r2
 8004b02:	095b      	lsrs	r3, r3, #5
 8004b04:	2164      	movs	r1, #100	; 0x64
 8004b06:	fb01 f303 	mul.w	r3, r1, r3
 8004b0a:	1ad3      	subs	r3, r2, r3
 8004b0c:	00db      	lsls	r3, r3, #3
 8004b0e:	3332      	adds	r3, #50	; 0x32
 8004b10:	4a65      	ldr	r2, [pc, #404]	; (8004ca8 <UART_SetConfig+0x384>)
 8004b12:	fba2 2303 	umull	r2, r3, r2, r3
 8004b16:	095b      	lsrs	r3, r3, #5
 8004b18:	f003 0207 	and.w	r2, r3, #7
 8004b1c:	687b      	ldr	r3, [r7, #4]
 8004b1e:	681b      	ldr	r3, [r3, #0]
 8004b20:	4442      	add	r2, r8
 8004b22:	609a      	str	r2, [r3, #8]
 8004b24:	e26f      	b.n	8005006 <UART_SetConfig+0x6e2>
      huart->Instance->BRR = UART_BRR_SAMPLING8(pclk, huart->Init.BaudRate);
    }
#endif /* USART6 */
    else
    {
      pclk = HAL_RCC_GetPCLK1Freq();
 8004b26:	f7fe fef9 	bl	800391c <HAL_RCC_GetPCLK1Freq>
 8004b2a:	60b8      	str	r0, [r7, #8]
      huart->Instance->BRR = UART_BRR_SAMPLING8(pclk, huart->Init.BaudRate);
 8004b2c:	68bb      	ldr	r3, [r7, #8]
 8004b2e:	461d      	mov	r5, r3
 8004b30:	f04f 0600 	mov.w	r6, #0
 8004b34:	46a8      	mov	r8, r5
 8004b36:	46b1      	mov	r9, r6
 8004b38:	eb18 0308 	adds.w	r3, r8, r8
 8004b3c:	eb49 0409 	adc.w	r4, r9, r9
 8004b40:	4698      	mov	r8, r3
 8004b42:	46a1      	mov	r9, r4
 8004b44:	eb18 0805 	adds.w	r8, r8, r5
 8004b48:	eb49 0906 	adc.w	r9, r9, r6
 8004b4c:	f04f 0100 	mov.w	r1, #0
 8004b50:	f04f 0200 	mov.w	r2, #0
 8004b54:	ea4f 02c9 	mov.w	r2, r9, lsl #3
 8004b58:	ea42 7258 	orr.w	r2, r2, r8, lsr #29
 8004b5c:	ea4f 01c8 	mov.w	r1, r8, lsl #3
 8004b60:	4688      	mov	r8, r1
 8004b62:	4691      	mov	r9, r2
 8004b64:	eb18 0005 	adds.w	r0, r8, r5
 8004b68:	eb49 0106 	adc.w	r1, r9, r6
 8004b6c:	687b      	ldr	r3, [r7, #4]
 8004b6e:	685b      	ldr	r3, [r3, #4]
 8004b70:	461d      	mov	r5, r3
 8004b72:	f04f 0600 	mov.w	r6, #0
 8004b76:	196b      	adds	r3, r5, r5
 8004b78:	eb46 0406 	adc.w	r4, r6, r6
 8004b7c:	461a      	mov	r2, r3
 8004b7e:	4623      	mov	r3, r4
 8004b80:	f7fc f832 	bl	8000be8 <__aeabi_uldivmod>
 8004b84:	4603      	mov	r3, r0
 8004b86:	460c      	mov	r4, r1
 8004b88:	461a      	mov	r2, r3
 8004b8a:	4b47      	ldr	r3, [pc, #284]	; (8004ca8 <UART_SetConfig+0x384>)
 8004b8c:	fba3 2302 	umull	r2, r3, r3, r2
 8004b90:	095b      	lsrs	r3, r3, #5
 8004b92:	ea4f 1803 	mov.w	r8, r3, lsl #4
 8004b96:	68bb      	ldr	r3, [r7, #8]
 8004b98:	461d      	mov	r5, r3
 8004b9a:	f04f 0600 	mov.w	r6, #0
 8004b9e:	46a9      	mov	r9, r5
 8004ba0:	46b2      	mov	sl, r6
 8004ba2:	eb19 0309 	adds.w	r3, r9, r9
 8004ba6:	eb4a 040a 	adc.w	r4, sl, sl
 8004baa:	4699      	mov	r9, r3
 8004bac:	46a2      	mov	sl, r4
 8004bae:	eb19 0905 	adds.w	r9, r9, r5
 8004bb2:	eb4a 0a06 	adc.w	sl, sl, r6
 8004bb6:	f04f 0100 	mov.w	r1, #0
 8004bba:	f04f 0200 	mov.w	r2, #0
 8004bbe:	ea4f 02ca 	mov.w	r2, sl, lsl #3
 8004bc2:	ea42 7259 	orr.w	r2, r2, r9, lsr #29
 8004bc6:	ea4f 01c9 	mov.w	r1, r9, lsl #3
 8004bca:	4689      	mov	r9, r1
 8004bcc:	4692      	mov	sl, r2
 8004bce:	eb19 0005 	adds.w	r0, r9, r5
 8004bd2:	eb4a 0106 	adc.w	r1, sl, r6
 8004bd6:	687b      	ldr	r3, [r7, #4]
 8004bd8:	685b      	ldr	r3, [r3, #4]
 8004bda:	461d      	mov	r5, r3
 8004bdc:	f04f 0600 	mov.w	r6, #0
 8004be0:	196b      	adds	r3, r5, r5
 8004be2:	eb46 0406 	adc.w	r4, r6, r6
 8004be6:	461a      	mov	r2, r3
 8004be8:	4623      	mov	r3, r4
 8004bea:	f7fb fffd 	bl	8000be8 <__aeabi_uldivmod>
 8004bee:	4603      	mov	r3, r0
 8004bf0:	460c      	mov	r4, r1
 8004bf2:	461a      	mov	r2, r3
 8004bf4:	4b2c      	ldr	r3, [pc, #176]	; (8004ca8 <UART_SetConfig+0x384>)
 8004bf6:	fba3 1302 	umull	r1, r3, r3, r2
 8004bfa:	095b      	lsrs	r3, r3, #5
 8004bfc:	2164      	movs	r1, #100	; 0x64
 8004bfe:	fb01 f303 	mul.w	r3, r1, r3
 8004c02:	1ad3      	subs	r3, r2, r3
 8004c04:	00db      	lsls	r3, r3, #3
 8004c06:	3332      	adds	r3, #50	; 0x32
 8004c08:	4a27      	ldr	r2, [pc, #156]	; (8004ca8 <UART_SetConfig+0x384>)
 8004c0a:	fba2 2303 	umull	r2, r3, r2, r3
 8004c0e:	095b      	lsrs	r3, r3, #5
 8004c10:	005b      	lsls	r3, r3, #1
 8004c12:	f403 73f8 	and.w	r3, r3, #496	; 0x1f0
 8004c16:	4498      	add	r8, r3
 8004c18:	68bb      	ldr	r3, [r7, #8]
 8004c1a:	461d      	mov	r5, r3
 8004c1c:	f04f 0600 	mov.w	r6, #0
 8004c20:	46a9      	mov	r9, r5
 8004c22:	46b2      	mov	sl, r6
 8004c24:	eb19 0309 	adds.w	r3, r9, r9
 8004c28:	eb4a 040a 	adc.w	r4, sl, sl
 8004c2c:	4699      	mov	r9, r3
 8004c2e:	46a2      	mov	sl, r4
 8004c30:	eb19 0905 	adds.w	r9, r9, r5
 8004c34:	eb4a 0a06 	adc.w	sl, sl, r6
 8004c38:	f04f 0100 	mov.w	r1, #0
 8004c3c:	f04f 0200 	mov.w	r2, #0
 8004c40:	ea4f 02ca 	mov.w	r2, sl, lsl #3
 8004c44:	ea42 7259 	orr.w	r2, r2, r9, lsr #29
 8004c48:	ea4f 01c9 	mov.w	r1, r9, lsl #3
 8004c4c:	4689      	mov	r9, r1
 8004c4e:	4692      	mov	sl, r2
 8004c50:	eb19 0005 	adds.w	r0, r9, r5
 8004c54:	eb4a 0106 	adc.w	r1, sl, r6
 8004c58:	687b      	ldr	r3, [r7, #4]
 8004c5a:	685b      	ldr	r3, [r3, #4]
 8004c5c:	461d      	mov	r5, r3
 8004c5e:	f04f 0600 	mov.w	r6, #0
 8004c62:	196b      	adds	r3, r5, r5
 8004c64:	eb46 0406 	adc.w	r4, r6, r6
 8004c68:	461a      	mov	r2, r3
 8004c6a:	4623      	mov	r3, r4
 8004c6c:	f7fb ffbc 	bl	8000be8 <__aeabi_uldivmod>
 8004c70:	4603      	mov	r3, r0
 8004c72:	460c      	mov	r4, r1
 8004c74:	461a      	mov	r2, r3
 8004c76:	4b0c      	ldr	r3, [pc, #48]	; (8004ca8 <UART_SetConfig+0x384>)
 8004c78:	fba3 1302 	umull	r1, r3, r3, r2
 8004c7c:	095b      	lsrs	r3, r3, #5
 8004c7e:	2164      	movs	r1, #100	; 0x64
 8004c80:	fb01 f303 	mul.w	r3, r1, r3
 8004c84:	1ad3      	subs	r3, r2, r3
 8004c86:	00db      	lsls	r3, r3, #3
 8004c88:	3332      	adds	r3, #50	; 0x32
 8004c8a:	4a07      	ldr	r2, [pc, #28]	; (8004ca8 <UART_SetConfig+0x384>)
 8004c8c:	fba2 2303 	umull	r2, r3, r2, r3
 8004c90:	095b      	lsrs	r3, r3, #5
 8004c92:	f003 0207 	and.w	r2, r3, #7
 8004c96:	687b      	ldr	r3, [r7, #4]
 8004c98:	681b      	ldr	r3, [r3, #0]
 8004c9a:	4442      	add	r2, r8
 8004c9c:	609a      	str	r2, [r3, #8]
    {
      pclk = HAL_RCC_GetPCLK1Freq();
      huart->Instance->BRR = UART_BRR_SAMPLING16(pclk, huart->Init.BaudRate);
    }
  }
}
 8004c9e:	e1b2      	b.n	8005006 <UART_SetConfig+0x6e2>
 8004ca0:	40011000 	.word	0x40011000
 8004ca4:	40011400 	.word	0x40011400
 8004ca8:	51eb851f 	.word	0x51eb851f
    if ((huart->Instance == USART1) || (huart->Instance == USART6))
 8004cac:	687b      	ldr	r3, [r7, #4]
 8004cae:	681b      	ldr	r3, [r3, #0]
 8004cb0:	4ad7      	ldr	r2, [pc, #860]	; (8005010 <UART_SetConfig+0x6ec>)
 8004cb2:	4293      	cmp	r3, r2
 8004cb4:	d005      	beq.n	8004cc2 <UART_SetConfig+0x39e>
 8004cb6:	687b      	ldr	r3, [r7, #4]
 8004cb8:	681b      	ldr	r3, [r3, #0]
 8004cba:	4ad6      	ldr	r2, [pc, #856]	; (8005014 <UART_SetConfig+0x6f0>)
 8004cbc:	4293      	cmp	r3, r2
 8004cbe:	f040 80d1 	bne.w	8004e64 <UART_SetConfig+0x540>
      pclk = HAL_RCC_GetPCLK2Freq();
 8004cc2:	f7fe fe3f 	bl	8003944 <HAL_RCC_GetPCLK2Freq>
 8004cc6:	60b8      	str	r0, [r7, #8]
      huart->Instance->BRR = UART_BRR_SAMPLING16(pclk, huart->Init.BaudRate);
 8004cc8:	68bb      	ldr	r3, [r7, #8]
 8004cca:	469a      	mov	sl, r3
 8004ccc:	f04f 0b00 	mov.w	fp, #0
 8004cd0:	46d0      	mov	r8, sl
 8004cd2:	46d9      	mov	r9, fp
 8004cd4:	eb18 0308 	adds.w	r3, r8, r8
 8004cd8:	eb49 0409 	adc.w	r4, r9, r9
 8004cdc:	4698      	mov	r8, r3
 8004cde:	46a1      	mov	r9, r4
 8004ce0:	eb18 080a 	adds.w	r8, r8, sl
 8004ce4:	eb49 090b 	adc.w	r9, r9, fp
 8004ce8:	f04f 0100 	mov.w	r1, #0
 8004cec:	f04f 0200 	mov.w	r2, #0
 8004cf0:	ea4f 02c9 	mov.w	r2, r9, lsl #3
 8004cf4:	ea42 7258 	orr.w	r2, r2, r8, lsr #29
 8004cf8:	ea4f 01c8 	mov.w	r1, r8, lsl #3
 8004cfc:	4688      	mov	r8, r1
 8004cfe:	4691      	mov	r9, r2
 8004d00:	eb1a 0508 	adds.w	r5, sl, r8
 8004d04:	eb4b 0609 	adc.w	r6, fp, r9
 8004d08:	687b      	ldr	r3, [r7, #4]
 8004d0a:	685b      	ldr	r3, [r3, #4]
 8004d0c:	4619      	mov	r1, r3
 8004d0e:	f04f 0200 	mov.w	r2, #0
 8004d12:	f04f 0300 	mov.w	r3, #0
 8004d16:	f04f 0400 	mov.w	r4, #0
 8004d1a:	0094      	lsls	r4, r2, #2
 8004d1c:	ea44 7491 	orr.w	r4, r4, r1, lsr #30
 8004d20:	008b      	lsls	r3, r1, #2
 8004d22:	461a      	mov	r2, r3
 8004d24:	4623      	mov	r3, r4
 8004d26:	4628      	mov	r0, r5
 8004d28:	4631      	mov	r1, r6
 8004d2a:	f7fb ff5d 	bl	8000be8 <__aeabi_uldivmod>
 8004d2e:	4603      	mov	r3, r0
 8004d30:	460c      	mov	r4, r1
 8004d32:	461a      	mov	r2, r3
 8004d34:	4bb8      	ldr	r3, [pc, #736]	; (8005018 <UART_SetConfig+0x6f4>)
 8004d36:	fba3 2302 	umull	r2, r3, r3, r2
 8004d3a:	095b      	lsrs	r3, r3, #5
 8004d3c:	ea4f 1803 	mov.w	r8, r3, lsl #4
 8004d40:	68bb      	ldr	r3, [r7, #8]
 8004d42:	469b      	mov	fp, r3
 8004d44:	f04f 0c00 	mov.w	ip, #0
 8004d48:	46d9      	mov	r9, fp
 8004d4a:	46e2      	mov	sl, ip
 8004d4c:	eb19 0309 	adds.w	r3, r9, r9
 8004d50:	eb4a 040a 	adc.w	r4, sl, sl
 8004d54:	4699      	mov	r9, r3
 8004d56:	46a2      	mov	sl, r4
 8004d58:	eb19 090b 	adds.w	r9, r9, fp
 8004d5c:	eb4a 0a0c 	adc.w	sl, sl, ip
 8004d60:	f04f 0100 	mov.w	r1, #0
 8004d64:	f04f 0200 	mov.w	r2, #0
 8004d68:	ea4f 02ca 	mov.w	r2, sl, lsl #3
 8004d6c:	ea42 7259 	orr.w	r2, r2, r9, lsr #29
 8004d70:	ea4f 01c9 	mov.w	r1, r9, lsl #3
 8004d74:	4689      	mov	r9, r1
 8004d76:	4692      	mov	sl, r2
 8004d78:	eb1b 0509 	adds.w	r5, fp, r9
 8004d7c:	eb4c 060a 	adc.w	r6, ip, sl
 8004d80:	687b      	ldr	r3, [r7, #4]
 8004d82:	685b      	ldr	r3, [r3, #4]
 8004d84:	4619      	mov	r1, r3
 8004d86:	f04f 0200 	mov.w	r2, #0
 8004d8a:	f04f 0300 	mov.w	r3, #0
 8004d8e:	f04f 0400 	mov.w	r4, #0
 8004d92:	0094      	lsls	r4, r2, #2
 8004d94:	ea44 7491 	orr.w	r4, r4, r1, lsr #30
 8004d98:	008b      	lsls	r3, r1, #2
 8004d9a:	461a      	mov	r2, r3
 8004d9c:	4623      	mov	r3, r4
 8004d9e:	4628      	mov	r0, r5
 8004da0:	4631      	mov	r1, r6
 8004da2:	f7fb ff21 	bl	8000be8 <__aeabi_uldivmod>
 8004da6:	4603      	mov	r3, r0
 8004da8:	460c      	mov	r4, r1
 8004daa:	461a      	mov	r2, r3
 8004dac:	4b9a      	ldr	r3, [pc, #616]	; (8005018 <UART_SetConfig+0x6f4>)
 8004dae:	fba3 1302 	umull	r1, r3, r3, r2
 8004db2:	095b      	lsrs	r3, r3, #5
 8004db4:	2164      	movs	r1, #100	; 0x64
 8004db6:	fb01 f303 	mul.w	r3, r1, r3
 8004dba:	1ad3      	subs	r3, r2, r3
 8004dbc:	011b      	lsls	r3, r3, #4
 8004dbe:	3332      	adds	r3, #50	; 0x32
 8004dc0:	4a95      	ldr	r2, [pc, #596]	; (8005018 <UART_SetConfig+0x6f4>)
 8004dc2:	fba2 2303 	umull	r2, r3, r2, r3
 8004dc6:	095b      	lsrs	r3, r3, #5
 8004dc8:	f003 03f0 	and.w	r3, r3, #240	; 0xf0
 8004dcc:	4498      	add	r8, r3
 8004dce:	68bb      	ldr	r3, [r7, #8]
 8004dd0:	469b      	mov	fp, r3
 8004dd2:	f04f 0c00 	mov.w	ip, #0
 8004dd6:	46d9      	mov	r9, fp
 8004dd8:	46e2      	mov	sl, ip
 8004dda:	eb19 0309 	adds.w	r3, r9, r9
 8004dde:	eb4a 040a 	adc.w	r4, sl, sl
 8004de2:	4699      	mov	r9, r3
 8004de4:	46a2      	mov	sl, r4
 8004de6:	eb19 090b 	adds.w	r9, r9, fp
 8004dea:	eb4a 0a0c 	adc.w	sl, sl, ip
 8004dee:	f04f 0100 	mov.w	r1, #0
 8004df2:	f04f 0200 	mov.w	r2, #0
 8004df6:	ea4f 02ca 	mov.w	r2, sl, lsl #3
 8004dfa:	ea42 7259 	orr.w	r2, r2, r9, lsr #29
 8004dfe:	ea4f 01c9 	mov.w	r1, r9, lsl #3
 8004e02:	4689      	mov	r9, r1
 8004e04:	4692      	mov	sl, r2
 8004e06:	eb1b 0509 	adds.w	r5, fp, r9
 8004e0a:	eb4c 060a 	adc.w	r6, ip, sl
 8004e0e:	687b      	ldr	r3, [r7, #4]
 8004e10:	685b      	ldr	r3, [r3, #4]
 8004e12:	4619      	mov	r1, r3
 8004e14:	f04f 0200 	mov.w	r2, #0
 8004e18:	f04f 0300 	mov.w	r3, #0
 8004e1c:	f04f 0400 	mov.w	r4, #0
 8004e20:	0094      	lsls	r4, r2, #2
 8004e22:	ea44 7491 	orr.w	r4, r4, r1, lsr #30
 8004e26:	008b      	lsls	r3, r1, #2
 8004e28:	461a      	mov	r2, r3
 8004e2a:	4623      	mov	r3, r4
 8004e2c:	4628      	mov	r0, r5
 8004e2e:	4631      	mov	r1, r6
 8004e30:	f7fb feda 	bl	8000be8 <__aeabi_uldivmod>
 8004e34:	4603      	mov	r3, r0
 8004e36:	460c      	mov	r4, r1
 8004e38:	461a      	mov	r2, r3
 8004e3a:	4b77      	ldr	r3, [pc, #476]	; (8005018 <UART_SetConfig+0x6f4>)
 8004e3c:	fba3 1302 	umull	r1, r3, r3, r2
 8004e40:	095b      	lsrs	r3, r3, #5
 8004e42:	2164      	movs	r1, #100	; 0x64
 8004e44:	fb01 f303 	mul.w	r3, r1, r3
 8004e48:	1ad3      	subs	r3, r2, r3
 8004e4a:	011b      	lsls	r3, r3, #4
 8004e4c:	3332      	adds	r3, #50	; 0x32
 8004e4e:	4a72      	ldr	r2, [pc, #456]	; (8005018 <UART_SetConfig+0x6f4>)
 8004e50:	fba2 2303 	umull	r2, r3, r2, r3
 8004e54:	095b      	lsrs	r3, r3, #5
 8004e56:	f003 020f 	and.w	r2, r3, #15
 8004e5a:	687b      	ldr	r3, [r7, #4]
 8004e5c:	681b      	ldr	r3, [r3, #0]
 8004e5e:	4442      	add	r2, r8
 8004e60:	609a      	str	r2, [r3, #8]
 8004e62:	e0d0      	b.n	8005006 <UART_SetConfig+0x6e2>
      pclk = HAL_RCC_GetPCLK1Freq();
 8004e64:	f7fe fd5a 	bl	800391c <HAL_RCC_GetPCLK1Freq>
 8004e68:	60b8      	str	r0, [r7, #8]
      huart->Instance->BRR = UART_BRR_SAMPLING16(pclk, huart->Init.BaudRate);
 8004e6a:	68bb      	ldr	r3, [r7, #8]
 8004e6c:	469a      	mov	sl, r3
 8004e6e:	f04f 0b00 	mov.w	fp, #0
 8004e72:	46d0      	mov	r8, sl
 8004e74:	46d9      	mov	r9, fp
 8004e76:	eb18 0308 	adds.w	r3, r8, r8
 8004e7a:	eb49 0409 	adc.w	r4, r9, r9
 8004e7e:	4698      	mov	r8, r3
 8004e80:	46a1      	mov	r9, r4
 8004e82:	eb18 080a 	adds.w	r8, r8, sl
 8004e86:	eb49 090b 	adc.w	r9, r9, fp
 8004e8a:	f04f 0100 	mov.w	r1, #0
 8004e8e:	f04f 0200 	mov.w	r2, #0
 8004e92:	ea4f 02c9 	mov.w	r2, r9, lsl #3
 8004e96:	ea42 7258 	orr.w	r2, r2, r8, lsr #29
 8004e9a:	ea4f 01c8 	mov.w	r1, r8, lsl #3
 8004e9e:	4688      	mov	r8, r1
 8004ea0:	4691      	mov	r9, r2
 8004ea2:	eb1a 0508 	adds.w	r5, sl, r8
 8004ea6:	eb4b 0609 	adc.w	r6, fp, r9
 8004eaa:	687b      	ldr	r3, [r7, #4]
 8004eac:	685b      	ldr	r3, [r3, #4]
 8004eae:	4619      	mov	r1, r3
 8004eb0:	f04f 0200 	mov.w	r2, #0
 8004eb4:	f04f 0300 	mov.w	r3, #0
 8004eb8:	f04f 0400 	mov.w	r4, #0
 8004ebc:	0094      	lsls	r4, r2, #2
 8004ebe:	ea44 7491 	orr.w	r4, r4, r1, lsr #30
 8004ec2:	008b      	lsls	r3, r1, #2
 8004ec4:	461a      	mov	r2, r3
 8004ec6:	4623      	mov	r3, r4
 8004ec8:	4628      	mov	r0, r5
 8004eca:	4631      	mov	r1, r6
 8004ecc:	f7fb fe8c 	bl	8000be8 <__aeabi_uldivmod>
 8004ed0:	4603      	mov	r3, r0
 8004ed2:	460c      	mov	r4, r1
 8004ed4:	461a      	mov	r2, r3
 8004ed6:	4b50      	ldr	r3, [pc, #320]	; (8005018 <UART_SetConfig+0x6f4>)
 8004ed8:	fba3 2302 	umull	r2, r3, r3, r2
 8004edc:	095b      	lsrs	r3, r3, #5
 8004ede:	ea4f 1803 	mov.w	r8, r3, lsl #4
 8004ee2:	68bb      	ldr	r3, [r7, #8]
 8004ee4:	469b      	mov	fp, r3
 8004ee6:	f04f 0c00 	mov.w	ip, #0
 8004eea:	46d9      	mov	r9, fp
 8004eec:	46e2      	mov	sl, ip
 8004eee:	eb19 0309 	adds.w	r3, r9, r9
 8004ef2:	eb4a 040a 	adc.w	r4, sl, sl
 8004ef6:	4699      	mov	r9, r3
 8004ef8:	46a2      	mov	sl, r4
 8004efa:	eb19 090b 	adds.w	r9, r9, fp
 8004efe:	eb4a 0a0c 	adc.w	sl, sl, ip
 8004f02:	f04f 0100 	mov.w	r1, #0
 8004f06:	f04f 0200 	mov.w	r2, #0
 8004f0a:	ea4f 02ca 	mov.w	r2, sl, lsl #3
 8004f0e:	ea42 7259 	orr.w	r2, r2, r9, lsr #29
 8004f12:	ea4f 01c9 	mov.w	r1, r9, lsl #3
 8004f16:	4689      	mov	r9, r1
 8004f18:	4692      	mov	sl, r2
 8004f1a:	eb1b 0509 	adds.w	r5, fp, r9
 8004f1e:	eb4c 060a 	adc.w	r6, ip, sl
 8004f22:	687b      	ldr	r3, [r7, #4]
 8004f24:	685b      	ldr	r3, [r3, #4]
 8004f26:	4619      	mov	r1, r3
 8004f28:	f04f 0200 	mov.w	r2, #0
 8004f2c:	f04f 0300 	mov.w	r3, #0
 8004f30:	f04f 0400 	mov.w	r4, #0
 8004f34:	0094      	lsls	r4, r2, #2
 8004f36:	ea44 7491 	orr.w	r4, r4, r1, lsr #30
 8004f3a:	008b      	lsls	r3, r1, #2
 8004f3c:	461a      	mov	r2, r3
 8004f3e:	4623      	mov	r3, r4
 8004f40:	4628      	mov	r0, r5
 8004f42:	4631      	mov	r1, r6
 8004f44:	f7fb fe50 	bl	8000be8 <__aeabi_uldivmod>
 8004f48:	4603      	mov	r3, r0
 8004f4a:	460c      	mov	r4, r1
 8004f4c:	461a      	mov	r2, r3
 8004f4e:	4b32      	ldr	r3, [pc, #200]	; (8005018 <UART_SetConfig+0x6f4>)
 8004f50:	fba3 1302 	umull	r1, r3, r3, r2
 8004f54:	095b      	lsrs	r3, r3, #5
 8004f56:	2164      	movs	r1, #100	; 0x64
 8004f58:	fb01 f303 	mul.w	r3, r1, r3
 8004f5c:	1ad3      	subs	r3, r2, r3
 8004f5e:	011b      	lsls	r3, r3, #4
 8004f60:	3332      	adds	r3, #50	; 0x32
 8004f62:	4a2d      	ldr	r2, [pc, #180]	; (8005018 <UART_SetConfig+0x6f4>)
 8004f64:	fba2 2303 	umull	r2, r3, r2, r3
 8004f68:	095b      	lsrs	r3, r3, #5
 8004f6a:	f003 03f0 	and.w	r3, r3, #240	; 0xf0
 8004f6e:	4498      	add	r8, r3
 8004f70:	68bb      	ldr	r3, [r7, #8]
 8004f72:	469b      	mov	fp, r3
 8004f74:	f04f 0c00 	mov.w	ip, #0
 8004f78:	46d9      	mov	r9, fp
 8004f7a:	46e2      	mov	sl, ip
 8004f7c:	eb19 0309 	adds.w	r3, r9, r9
 8004f80:	eb4a 040a 	adc.w	r4, sl, sl
 8004f84:	4699      	mov	r9, r3
 8004f86:	46a2      	mov	sl, r4
 8004f88:	eb19 090b 	adds.w	r9, r9, fp
 8004f8c:	eb4a 0a0c 	adc.w	sl, sl, ip
 8004f90:	f04f 0100 	mov.w	r1, #0
 8004f94:	f04f 0200 	mov.w	r2, #0
 8004f98:	ea4f 02ca 	mov.w	r2, sl, lsl #3
 8004f9c:	ea42 7259 	orr.w	r2, r2, r9, lsr #29
 8004fa0:	ea4f 01c9 	mov.w	r1, r9, lsl #3
 8004fa4:	4689      	mov	r9, r1
 8004fa6:	4692      	mov	sl, r2
 8004fa8:	eb1b 0509 	adds.w	r5, fp, r9
 8004fac:	eb4c 060a 	adc.w	r6, ip, sl
 8004fb0:	687b      	ldr	r3, [r7, #4]
 8004fb2:	685b      	ldr	r3, [r3, #4]
 8004fb4:	4619      	mov	r1, r3
 8004fb6:	f04f 0200 	mov.w	r2, #0
 8004fba:	f04f 0300 	mov.w	r3, #0
 8004fbe:	f04f 0400 	mov.w	r4, #0
 8004fc2:	0094      	lsls	r4, r2, #2
 8004fc4:	ea44 7491 	orr.w	r4, r4, r1, lsr #30
 8004fc8:	008b      	lsls	r3, r1, #2
 8004fca:	461a      	mov	r2, r3
 8004fcc:	4623      	mov	r3, r4
 8004fce:	4628      	mov	r0, r5
 8004fd0:	4631      	mov	r1, r6
 8004fd2:	f7fb fe09 	bl	8000be8 <__aeabi_uldivmod>
 8004fd6:	4603      	mov	r3, r0
 8004fd8:	460c      	mov	r4, r1
 8004fda:	461a      	mov	r2, r3
 8004fdc:	4b0e      	ldr	r3, [pc, #56]	; (8005018 <UART_SetConfig+0x6f4>)
 8004fde:	fba3 1302 	umull	r1, r3, r3, r2
 8004fe2:	095b      	lsrs	r3, r3, #5
 8004fe4:	2164      	movs	r1, #100	; 0x64
 8004fe6:	fb01 f303 	mul.w	r3, r1, r3
 8004fea:	1ad3      	subs	r3, r2, r3
 8004fec:	011b      	lsls	r3, r3, #4
 8004fee:	3332      	adds	r3, #50	; 0x32
 8004ff0:	4a09      	ldr	r2, [pc, #36]	; (8005018 <UART_SetConfig+0x6f4>)
 8004ff2:	fba2 2303 	umull	r2, r3, r2, r3
 8004ff6:	095b      	lsrs	r3, r3, #5
 8004ff8:	f003 020f 	and.w	r2, r3, #15
 8004ffc:	687b      	ldr	r3, [r7, #4]
 8004ffe:	681b      	ldr	r3, [r3, #0]
 8005000:	4442      	add	r2, r8
 8005002:	609a      	str	r2, [r3, #8]
}
 8005004:	e7ff      	b.n	8005006 <UART_SetConfig+0x6e2>
 8005006:	bf00      	nop
 8005008:	3714      	adds	r7, #20
 800500a:	46bd      	mov	sp, r7
 800500c:	e8bd 8ff0 	ldmia.w	sp!, {r4, r5, r6, r7, r8, r9, sl, fp, pc}
 8005010:	40011000 	.word	0x40011000
 8005014:	40011400 	.word	0x40011400
 8005018:	51eb851f 	.word	0x51eb851f

0800501c <MX_FATFS_Init>:
/* USER CODE BEGIN Variables */

/* USER CODE END Variables */

void MX_FATFS_Init(void)
{
 800501c:	b580      	push	{r7, lr}
 800501e:	af00      	add	r7, sp, #0
  /*## FatFS: Link the USER driver ###########################*/
  retUSER = FATFS_LinkDriver(&USER_Driver, USERPath);
 8005020:	4904      	ldr	r1, [pc, #16]	; (8005034 <MX_FATFS_Init+0x18>)
 8005022:	4805      	ldr	r0, [pc, #20]	; (8005038 <MX_FATFS_Init+0x1c>)
 8005024:	f003 f9aa 	bl	800837c <FATFS_LinkDriver>
 8005028:	4603      	mov	r3, r0
 800502a:	461a      	mov	r2, r3
 800502c:	4b03      	ldr	r3, [pc, #12]	; (800503c <MX_FATFS_Init+0x20>)
 800502e:	701a      	strb	r2, [r3, #0]

  /* USER CODE BEGIN Init */
  /* additional user code for init */
  /* USER CODE END Init */
}
 8005030:	bf00      	nop
 8005032:	bd80      	pop	{r7, pc}
 8005034:	20000d30 	.word	0x20000d30
 8005038:	2000000c 	.word	0x2000000c
 800503c:	20000d34 	.word	0x20000d34

08005040 <get_fattime>:
  * @brief  Gets Time from RTC
  * @param  None
  * @retval Time in DWORD
  */
DWORD get_fattime(void)
{
 8005040:	b480      	push	{r7}
 8005042:	af00      	add	r7, sp, #0
  /* USER CODE BEGIN get_fattime */
  return 0;
 8005044:	2300      	movs	r3, #0
  /* USER CODE END get_fattime */
}
 8005046:	4618      	mov	r0, r3
 8005048:	46bd      	mov	sp, r7
 800504a:	f85d 7b04 	ldr.w	r7, [sp], #4
 800504e:	4770      	bx	lr

08005050 <USER_initialize>:
  * @retval DSTATUS: Operation status
  */
DSTATUS USER_initialize (
	BYTE pdrv           /* Physical drive nmuber to identify the drive */
)
{
 8005050:	b580      	push	{r7, lr}
 8005052:	b082      	sub	sp, #8
 8005054:	af00      	add	r7, sp, #0
 8005056:	4603      	mov	r3, r0
 8005058:	71fb      	strb	r3, [r7, #7]
  /* USER CODE BEGIN INIT */
	return USER_SPI_initialize(pdrv);
 800505a:	79fb      	ldrb	r3, [r7, #7]
 800505c:	4618      	mov	r0, r3
 800505e:	f000 f9d7 	bl	8005410 <USER_SPI_initialize>
 8005062:	4603      	mov	r3, r0
  /* USER CODE END INIT */
}
 8005064:	4618      	mov	r0, r3
 8005066:	3708      	adds	r7, #8
 8005068:	46bd      	mov	sp, r7
 800506a:	bd80      	pop	{r7, pc}

0800506c <USER_status>:
  * @retval DSTATUS: Operation status
  */
DSTATUS USER_status (
	BYTE pdrv       /* Physical drive number to identify the drive */
)
{
 800506c:	b580      	push	{r7, lr}
 800506e:	b082      	sub	sp, #8
 8005070:	af00      	add	r7, sp, #0
 8005072:	4603      	mov	r3, r0
 8005074:	71fb      	strb	r3, [r7, #7]
  /* USER CODE BEGIN STATUS */
	return USER_SPI_status(pdrv);
 8005076:	79fb      	ldrb	r3, [r7, #7]
 8005078:	4618      	mov	r0, r3
 800507a:	f000 fab5 	bl	80055e8 <USER_SPI_status>
 800507e:	4603      	mov	r3, r0
  /* USER CODE END STATUS */
}
 8005080:	4618      	mov	r0, r3
 8005082:	3708      	adds	r7, #8
 8005084:	46bd      	mov	sp, r7
 8005086:	bd80      	pop	{r7, pc}

08005088 <USER_read>:
	BYTE pdrv,      /* Physical drive nmuber to identify the drive */
	BYTE *buff,     /* Data buffer to store read data */
	DWORD sector,   /* Sector address in LBA */
	UINT count      /* Number of sectors to read */
)
{
 8005088:	b580      	push	{r7, lr}
 800508a:	b084      	sub	sp, #16
 800508c:	af00      	add	r7, sp, #0
 800508e:	60b9      	str	r1, [r7, #8]
 8005090:	607a      	str	r2, [r7, #4]
 8005092:	603b      	str	r3, [r7, #0]
 8005094:	4603      	mov	r3, r0
 8005096:	73fb      	strb	r3, [r7, #15]
  /* USER CODE BEGIN READ */
	return USER_SPI_read(pdrv, buff, sector, count);
 8005098:	7bf8      	ldrb	r0, [r7, #15]
 800509a:	683b      	ldr	r3, [r7, #0]
 800509c:	687a      	ldr	r2, [r7, #4]
 800509e:	68b9      	ldr	r1, [r7, #8]
 80050a0:	f000 fab8 	bl	8005614 <USER_SPI_read>
 80050a4:	4603      	mov	r3, r0
  /* USER CODE END READ */
}
 80050a6:	4618      	mov	r0, r3
 80050a8:	3710      	adds	r7, #16
 80050aa:	46bd      	mov	sp, r7
 80050ac:	bd80      	pop	{r7, pc}

080050ae <USER_write>:
	BYTE pdrv,          /* Physical drive nmuber to identify the drive */
	const BYTE *buff,   /* Data to be written */
	DWORD sector,       /* Sector address in LBA */
	UINT count          /* Number of sectors to write */
)
{
 80050ae:	b580      	push	{r7, lr}
 80050b0:	b084      	sub	sp, #16
 80050b2:	af00      	add	r7, sp, #0
 80050b4:	60b9      	str	r1, [r7, #8]
 80050b6:	607a      	str	r2, [r7, #4]
 80050b8:	603b      	str	r3, [r7, #0]
 80050ba:	4603      	mov	r3, r0
 80050bc:	73fb      	strb	r3, [r7, #15]
  /* USER CODE BEGIN WRITE */
  /* USER CODE HERE */
	return USER_SPI_write(pdrv, buff, sector, count);
 80050be:	7bf8      	ldrb	r0, [r7, #15]
 80050c0:	683b      	ldr	r3, [r7, #0]
 80050c2:	687a      	ldr	r2, [r7, #4]
 80050c4:	68b9      	ldr	r1, [r7, #8]
 80050c6:	f000 fb0b 	bl	80056e0 <USER_SPI_write>
 80050ca:	4603      	mov	r3, r0
  /* USER CODE END WRITE */
}
 80050cc:	4618      	mov	r0, r3
 80050ce:	3710      	adds	r7, #16
 80050d0:	46bd      	mov	sp, r7
 80050d2:	bd80      	pop	{r7, pc}

080050d4 <USER_ioctl>:
DRESULT USER_ioctl (
	BYTE pdrv,      /* Physical drive nmuber (0..) */
	BYTE cmd,       /* Control code */
	void *buff      /* Buffer to send/receive control data */
)
{
 80050d4:	b580      	push	{r7, lr}
 80050d6:	b082      	sub	sp, #8
 80050d8:	af00      	add	r7, sp, #0
 80050da:	4603      	mov	r3, r0
 80050dc:	603a      	str	r2, [r7, #0]
 80050de:	71fb      	strb	r3, [r7, #7]
 80050e0:	460b      	mov	r3, r1
 80050e2:	71bb      	strb	r3, [r7, #6]
  /* USER CODE BEGIN IOCTL */
	return USER_SPI_ioctl(pdrv, cmd, buff);
 80050e4:	79b9      	ldrb	r1, [r7, #6]
 80050e6:	79fb      	ldrb	r3, [r7, #7]
 80050e8:	683a      	ldr	r2, [r7, #0]
 80050ea:	4618      	mov	r0, r3
 80050ec:	f000 fb74 	bl	80057d8 <USER_SPI_ioctl>
 80050f0:	4603      	mov	r3, r0
  /* USER CODE END IOCTL */
}
 80050f2:	4618      	mov	r0, r3
 80050f4:	3708      	adds	r7, #8
 80050f6:	46bd      	mov	sp, r7
 80050f8:	bd80      	pop	{r7, pc}
	...

080050fc <SPI_Timer_On>:
BYTE CardType;			/* Card type flags */

uint32_t spiTimerTickStart;
uint32_t spiTimerTickDelay;

void SPI_Timer_On(uint32_t waitTicks) {
 80050fc:	b580      	push	{r7, lr}
 80050fe:	b082      	sub	sp, #8
 8005100:	af00      	add	r7, sp, #0
 8005102:	6078      	str	r0, [r7, #4]
    spiTimerTickStart = HAL_GetTick();
 8005104:	f7fc fe9e 	bl	8001e44 <HAL_GetTick>
 8005108:	4602      	mov	r2, r0
 800510a:	4b04      	ldr	r3, [pc, #16]	; (800511c <SPI_Timer_On+0x20>)
 800510c:	601a      	str	r2, [r3, #0]
    spiTimerTickDelay = waitTicks;
 800510e:	4a04      	ldr	r2, [pc, #16]	; (8005120 <SPI_Timer_On+0x24>)
 8005110:	687b      	ldr	r3, [r7, #4]
 8005112:	6013      	str	r3, [r2, #0]
}
 8005114:	bf00      	nop
 8005116:	3708      	adds	r7, #8
 8005118:	46bd      	mov	sp, r7
 800511a:	bd80      	pop	{r7, pc}
 800511c:	20001198 	.word	0x20001198
 8005120:	2000119c 	.word	0x2000119c

08005124 <SPI_Timer_Status>:

uint8_t SPI_Timer_Status() {
 8005124:	b580      	push	{r7, lr}
 8005126:	af00      	add	r7, sp, #0
    return ((HAL_GetTick() - spiTimerTickStart) < spiTimerTickDelay);
 8005128:	f7fc fe8c 	bl	8001e44 <HAL_GetTick>
 800512c:	4602      	mov	r2, r0
 800512e:	4b06      	ldr	r3, [pc, #24]	; (8005148 <SPI_Timer_Status+0x24>)
 8005130:	681b      	ldr	r3, [r3, #0]
 8005132:	1ad2      	subs	r2, r2, r3
 8005134:	4b05      	ldr	r3, [pc, #20]	; (800514c <SPI_Timer_Status+0x28>)
 8005136:	681b      	ldr	r3, [r3, #0]
 8005138:	429a      	cmp	r2, r3
 800513a:	bf34      	ite	cc
 800513c:	2301      	movcc	r3, #1
 800513e:	2300      	movcs	r3, #0
 8005140:	b2db      	uxtb	r3, r3
}
 8005142:	4618      	mov	r0, r3
 8005144:	bd80      	pop	{r7, pc}
 8005146:	bf00      	nop
 8005148:	20001198 	.word	0x20001198
 800514c:	2000119c 	.word	0x2000119c

08005150 <xchg_spi>:
static
BYTE xchg_spi (
	BYTE dat	/* Data to send */

)
{
 8005150:	b580      	push	{r7, lr}
 8005152:	b086      	sub	sp, #24
 8005154:	af02      	add	r7, sp, #8
 8005156:	4603      	mov	r3, r0
 8005158:	71fb      	strb	r3, [r7, #7]
	BYTE rxDat;
    HAL_SPI_TransmitReceive(&SD_SPI_HANDLE, &dat, &rxDat, 1, 50);
 800515a:	f107 020f 	add.w	r2, r7, #15
 800515e:	1df9      	adds	r1, r7, #7
 8005160:	2332      	movs	r3, #50	; 0x32
 8005162:	9300      	str	r3, [sp, #0]
 8005164:	2301      	movs	r3, #1
 8005166:	4804      	ldr	r0, [pc, #16]	; (8005178 <xchg_spi+0x28>)
 8005168:	f7ff f85e 	bl	8004228 <HAL_SPI_TransmitReceive>
    return rxDat;
 800516c:	7bfb      	ldrb	r3, [r7, #15]
}
 800516e:	4618      	mov	r0, r3
 8005170:	3710      	adds	r7, #16
 8005172:	46bd      	mov	sp, r7
 8005174:	bd80      	pop	{r7, pc}
 8005176:	bf00      	nop
 8005178:	20000754 	.word	0x20000754

0800517c <rcvr_spi_multi>:
static
void rcvr_spi_multi (
	BYTE *buff,		/* Pointer to data buffer */
	UINT btr		/* Number of bytes to receive (even number) */
)
{
 800517c:	b590      	push	{r4, r7, lr}
 800517e:	b085      	sub	sp, #20
 8005180:	af00      	add	r7, sp, #0
 8005182:	6078      	str	r0, [r7, #4]
 8005184:	6039      	str	r1, [r7, #0]
	for(UINT i=0; i<btr; i++) {
 8005186:	2300      	movs	r3, #0
 8005188:	60fb      	str	r3, [r7, #12]
 800518a:	e00a      	b.n	80051a2 <rcvr_spi_multi+0x26>
		*(buff+i) = xchg_spi(0xFF);
 800518c:	687a      	ldr	r2, [r7, #4]
 800518e:	68fb      	ldr	r3, [r7, #12]
 8005190:	18d4      	adds	r4, r2, r3
 8005192:	20ff      	movs	r0, #255	; 0xff
 8005194:	f7ff ffdc 	bl	8005150 <xchg_spi>
 8005198:	4603      	mov	r3, r0
 800519a:	7023      	strb	r3, [r4, #0]
	for(UINT i=0; i<btr; i++) {
 800519c:	68fb      	ldr	r3, [r7, #12]
 800519e:	3301      	adds	r3, #1
 80051a0:	60fb      	str	r3, [r7, #12]
 80051a2:	68fa      	ldr	r2, [r7, #12]
 80051a4:	683b      	ldr	r3, [r7, #0]
 80051a6:	429a      	cmp	r2, r3
 80051a8:	d3f0      	bcc.n	800518c <rcvr_spi_multi+0x10>
	}
}
 80051aa:	bf00      	nop
 80051ac:	3714      	adds	r7, #20
 80051ae:	46bd      	mov	sp, r7
 80051b0:	bd90      	pop	{r4, r7, pc}

080051b2 <xmit_spi_multi>:
static
void xmit_spi_multi (
	const BYTE *buff,	/* Pointer to the data */
	UINT btx			/* Number of bytes to send (even number) */
)
{
 80051b2:	b580      	push	{r7, lr}
 80051b4:	b084      	sub	sp, #16
 80051b6:	af00      	add	r7, sp, #0
 80051b8:	6078      	str	r0, [r7, #4]
 80051ba:	6039      	str	r1, [r7, #0]
	for(UINT i=0; i<btx; i++) {
 80051bc:	2300      	movs	r3, #0
 80051be:	60fb      	str	r3, [r7, #12]
 80051c0:	e009      	b.n	80051d6 <xmit_spi_multi+0x24>
		xchg_spi(*(buff+i));
 80051c2:	687a      	ldr	r2, [r7, #4]
 80051c4:	68fb      	ldr	r3, [r7, #12]
 80051c6:	4413      	add	r3, r2
 80051c8:	781b      	ldrb	r3, [r3, #0]
 80051ca:	4618      	mov	r0, r3
 80051cc:	f7ff ffc0 	bl	8005150 <xchg_spi>
	for(UINT i=0; i<btx; i++) {
 80051d0:	68fb      	ldr	r3, [r7, #12]
 80051d2:	3301      	adds	r3, #1
 80051d4:	60fb      	str	r3, [r7, #12]
 80051d6:	68fa      	ldr	r2, [r7, #12]
 80051d8:	683b      	ldr	r3, [r7, #0]
 80051da:	429a      	cmp	r2, r3
 80051dc:	d3f1      	bcc.n	80051c2 <xmit_spi_multi+0x10>
	}
}
 80051de:	bf00      	nop
 80051e0:	3710      	adds	r7, #16
 80051e2:	46bd      	mov	sp, r7
 80051e4:	bd80      	pop	{r7, pc}

080051e6 <wait_ready>:

static
int wait_ready (	/* 1:Ready, 0:Timeout */
	UINT wt			/* Timeout [ms] */
)
{
 80051e6:	b580      	push	{r7, lr}
 80051e8:	b086      	sub	sp, #24
 80051ea:	af00      	add	r7, sp, #0
 80051ec:	6078      	str	r0, [r7, #4]
	//wait_ready needs its own timer, unfortunately, so it can't use the
	//spi_timer functions
	uint32_t waitSpiTimerTickStart;
	uint32_t waitSpiTimerTickDelay;

	waitSpiTimerTickStart = HAL_GetTick();
 80051ee:	f7fc fe29 	bl	8001e44 <HAL_GetTick>
 80051f2:	6178      	str	r0, [r7, #20]
	waitSpiTimerTickDelay = (uint32_t)wt;
 80051f4:	687b      	ldr	r3, [r7, #4]
 80051f6:	613b      	str	r3, [r7, #16]
	do {
		d = xchg_spi(0xFF);
 80051f8:	20ff      	movs	r0, #255	; 0xff
 80051fa:	f7ff ffa9 	bl	8005150 <xchg_spi>
 80051fe:	4603      	mov	r3, r0
 8005200:	73fb      	strb	r3, [r7, #15]
		/* This loop takes a time. Insert rot_rdq() here for multitask envilonment. */
	} while (d != 0xFF && ((HAL_GetTick() - waitSpiTimerTickStart) < waitSpiTimerTickDelay));	/* Wait for card goes ready or timeout */
 8005202:	7bfb      	ldrb	r3, [r7, #15]
 8005204:	2bff      	cmp	r3, #255	; 0xff
 8005206:	d007      	beq.n	8005218 <wait_ready+0x32>
 8005208:	f7fc fe1c 	bl	8001e44 <HAL_GetTick>
 800520c:	4602      	mov	r2, r0
 800520e:	697b      	ldr	r3, [r7, #20]
 8005210:	1ad3      	subs	r3, r2, r3
 8005212:	693a      	ldr	r2, [r7, #16]
 8005214:	429a      	cmp	r2, r3
 8005216:	d8ef      	bhi.n	80051f8 <wait_ready+0x12>

	return (d == 0xFF) ? 1 : 0;
 8005218:	7bfb      	ldrb	r3, [r7, #15]
 800521a:	2bff      	cmp	r3, #255	; 0xff
 800521c:	bf0c      	ite	eq
 800521e:	2301      	moveq	r3, #1
 8005220:	2300      	movne	r3, #0
 8005222:	b2db      	uxtb	r3, r3
}
 8005224:	4618      	mov	r0, r3
 8005226:	3718      	adds	r7, #24
 8005228:	46bd      	mov	sp, r7
 800522a:	bd80      	pop	{r7, pc}

0800522c <despiselect>:
/* Despiselect card and release SPI                                         */
/*-----------------------------------------------------------------------*/

static
void despiselect (void)
{
 800522c:	b580      	push	{r7, lr}
 800522e:	af00      	add	r7, sp, #0
	CS_HIGH();		/* Set CS# high */
 8005230:	2201      	movs	r2, #1
 8005232:	2101      	movs	r1, #1
 8005234:	4803      	ldr	r0, [pc, #12]	; (8005244 <despiselect+0x18>)
 8005236:	f7fd fa7f 	bl	8002738 <HAL_GPIO_WritePin>
	xchg_spi(0xFF);	/* Dummy clock (force DO hi-z for multiple slave SPI) */
 800523a:	20ff      	movs	r0, #255	; 0xff
 800523c:	f7ff ff88 	bl	8005150 <xchg_spi>

}
 8005240:	bf00      	nop
 8005242:	bd80      	pop	{r7, pc}
 8005244:	40020800 	.word	0x40020800

08005248 <spiselect>:
/* Select card and wait for ready                                        */
/*-----------------------------------------------------------------------*/

static
int spiselect (void)	/* 1:OK, 0:Timeout */
{
 8005248:	b580      	push	{r7, lr}
 800524a:	af00      	add	r7, sp, #0
	CS_LOW();		/* Set CS# low */
 800524c:	2200      	movs	r2, #0
 800524e:	2101      	movs	r1, #1
 8005250:	4809      	ldr	r0, [pc, #36]	; (8005278 <spiselect+0x30>)
 8005252:	f7fd fa71 	bl	8002738 <HAL_GPIO_WritePin>
	xchg_spi(0xFF);	/* Dummy clock (force DO enabled) */
 8005256:	20ff      	movs	r0, #255	; 0xff
 8005258:	f7ff ff7a 	bl	8005150 <xchg_spi>
	if (wait_ready(500)) return 1;	/* Wait for card ready */
 800525c:	f44f 70fa 	mov.w	r0, #500	; 0x1f4
 8005260:	f7ff ffc1 	bl	80051e6 <wait_ready>
 8005264:	4603      	mov	r3, r0
 8005266:	2b00      	cmp	r3, #0
 8005268:	d001      	beq.n	800526e <spiselect+0x26>
 800526a:	2301      	movs	r3, #1
 800526c:	e002      	b.n	8005274 <spiselect+0x2c>

	despiselect();
 800526e:	f7ff ffdd 	bl	800522c <despiselect>
	return 0;	/* Timeout */
 8005272:	2300      	movs	r3, #0
}
 8005274:	4618      	mov	r0, r3
 8005276:	bd80      	pop	{r7, pc}
 8005278:	40020800 	.word	0x40020800

0800527c <rcvr_datablock>:
static
int rcvr_datablock (	/* 1:OK, 0:Error */
	BYTE *buff,			/* Data buffer */
	UINT btr			/* Data block length (byte) */
)
{
 800527c:	b580      	push	{r7, lr}
 800527e:	b084      	sub	sp, #16
 8005280:	af00      	add	r7, sp, #0
 8005282:	6078      	str	r0, [r7, #4]
 8005284:	6039      	str	r1, [r7, #0]
	BYTE token;


	SPI_Timer_On(200);
 8005286:	20c8      	movs	r0, #200	; 0xc8
 8005288:	f7ff ff38 	bl	80050fc <SPI_Timer_On>
	do {							/* Wait for DataStart token in timeout of 200ms */
		token = xchg_spi(0xFF);
 800528c:	20ff      	movs	r0, #255	; 0xff
 800528e:	f7ff ff5f 	bl	8005150 <xchg_spi>
 8005292:	4603      	mov	r3, r0
 8005294:	73fb      	strb	r3, [r7, #15]
		/* This loop will take a time. Insert rot_rdq() here for multitask envilonment. */
	} while ((token == 0xFF) && SPI_Timer_Status());
 8005296:	7bfb      	ldrb	r3, [r7, #15]
 8005298:	2bff      	cmp	r3, #255	; 0xff
 800529a:	d104      	bne.n	80052a6 <rcvr_datablock+0x2a>
 800529c:	f7ff ff42 	bl	8005124 <SPI_Timer_Status>
 80052a0:	4603      	mov	r3, r0
 80052a2:	2b00      	cmp	r3, #0
 80052a4:	d1f2      	bne.n	800528c <rcvr_datablock+0x10>
	if(token != 0xFE) return 0;		/* Function fails if invalid DataStart token or timeout */
 80052a6:	7bfb      	ldrb	r3, [r7, #15]
 80052a8:	2bfe      	cmp	r3, #254	; 0xfe
 80052aa:	d001      	beq.n	80052b0 <rcvr_datablock+0x34>
 80052ac:	2300      	movs	r3, #0
 80052ae:	e00a      	b.n	80052c6 <rcvr_datablock+0x4a>

	rcvr_spi_multi(buff, btr);		/* Store trailing data to the buffer */
 80052b0:	6839      	ldr	r1, [r7, #0]
 80052b2:	6878      	ldr	r0, [r7, #4]
 80052b4:	f7ff ff62 	bl	800517c <rcvr_spi_multi>
	xchg_spi(0xFF); xchg_spi(0xFF);			/* Discard CRC */
 80052b8:	20ff      	movs	r0, #255	; 0xff
 80052ba:	f7ff ff49 	bl	8005150 <xchg_spi>
 80052be:	20ff      	movs	r0, #255	; 0xff
 80052c0:	f7ff ff46 	bl	8005150 <xchg_spi>

	return 1;						/* Function succeeded */
 80052c4:	2301      	movs	r3, #1
}
 80052c6:	4618      	mov	r0, r3
 80052c8:	3710      	adds	r7, #16
 80052ca:	46bd      	mov	sp, r7
 80052cc:	bd80      	pop	{r7, pc}

080052ce <xmit_datablock>:
static
int xmit_datablock (	/* 1:OK, 0:Failed */
	const BYTE *buff,	/* Ponter to 512 byte data to be sent */
	BYTE token			/* Token */
)
{
 80052ce:	b580      	push	{r7, lr}
 80052d0:	b084      	sub	sp, #16
 80052d2:	af00      	add	r7, sp, #0
 80052d4:	6078      	str	r0, [r7, #4]
 80052d6:	460b      	mov	r3, r1
 80052d8:	70fb      	strb	r3, [r7, #3]
	BYTE resp;


	if (!wait_ready(500)) return 0;		/* Wait for card ready */
 80052da:	f44f 70fa 	mov.w	r0, #500	; 0x1f4
 80052de:	f7ff ff82 	bl	80051e6 <wait_ready>
 80052e2:	4603      	mov	r3, r0
 80052e4:	2b00      	cmp	r3, #0
 80052e6:	d101      	bne.n	80052ec <xmit_datablock+0x1e>
 80052e8:	2300      	movs	r3, #0
 80052ea:	e01e      	b.n	800532a <xmit_datablock+0x5c>

	xchg_spi(token);					/* Send token */
 80052ec:	78fb      	ldrb	r3, [r7, #3]
 80052ee:	4618      	mov	r0, r3
 80052f0:	f7ff ff2e 	bl	8005150 <xchg_spi>
	if (token != 0xFD) {				/* Send data if token is other than StopTran */
 80052f4:	78fb      	ldrb	r3, [r7, #3]
 80052f6:	2bfd      	cmp	r3, #253	; 0xfd
 80052f8:	d016      	beq.n	8005328 <xmit_datablock+0x5a>
		xmit_spi_multi(buff, 512);		/* Data */
 80052fa:	f44f 7100 	mov.w	r1, #512	; 0x200
 80052fe:	6878      	ldr	r0, [r7, #4]
 8005300:	f7ff ff57 	bl	80051b2 <xmit_spi_multi>
		xchg_spi(0xFF); xchg_spi(0xFF);	/* Dummy CRC */
 8005304:	20ff      	movs	r0, #255	; 0xff
 8005306:	f7ff ff23 	bl	8005150 <xchg_spi>
 800530a:	20ff      	movs	r0, #255	; 0xff
 800530c:	f7ff ff20 	bl	8005150 <xchg_spi>

		resp = xchg_spi(0xFF);				/* Receive data resp */
 8005310:	20ff      	movs	r0, #255	; 0xff
 8005312:	f7ff ff1d 	bl	8005150 <xchg_spi>
 8005316:	4603      	mov	r3, r0
 8005318:	73fb      	strb	r3, [r7, #15]
		if ((resp & 0x1F) != 0x05) return 0;	/* Function fails if the data packet was not accepted */
 800531a:	7bfb      	ldrb	r3, [r7, #15]
 800531c:	f003 031f 	and.w	r3, r3, #31
 8005320:	2b05      	cmp	r3, #5
 8005322:	d001      	beq.n	8005328 <xmit_datablock+0x5a>
 8005324:	2300      	movs	r3, #0
 8005326:	e000      	b.n	800532a <xmit_datablock+0x5c>
	}
	return 1;
 8005328:	2301      	movs	r3, #1
}
 800532a:	4618      	mov	r0, r3
 800532c:	3710      	adds	r7, #16
 800532e:	46bd      	mov	sp, r7
 8005330:	bd80      	pop	{r7, pc}

08005332 <send_cmd>:
static
BYTE send_cmd (		/* Return value: R1 resp (bit7==1:Failed to send) */
	BYTE cmd,		/* Command index */
	DWORD arg		/* Argument */
)
{
 8005332:	b580      	push	{r7, lr}
 8005334:	b084      	sub	sp, #16
 8005336:	af00      	add	r7, sp, #0
 8005338:	4603      	mov	r3, r0
 800533a:	6039      	str	r1, [r7, #0]
 800533c:	71fb      	strb	r3, [r7, #7]
	BYTE n, res;


	if (cmd & 0x80) {	/* Send a CMD55 prior to ACMD<n> */
 800533e:	f997 3007 	ldrsb.w	r3, [r7, #7]
 8005342:	2b00      	cmp	r3, #0
 8005344:	da0e      	bge.n	8005364 <send_cmd+0x32>
		cmd &= 0x7F;
 8005346:	79fb      	ldrb	r3, [r7, #7]
 8005348:	f003 037f 	and.w	r3, r3, #127	; 0x7f
 800534c:	71fb      	strb	r3, [r7, #7]
		res = send_cmd(CMD55, 0);
 800534e:	2100      	movs	r1, #0
 8005350:	2037      	movs	r0, #55	; 0x37
 8005352:	f7ff ffee 	bl	8005332 <send_cmd>
 8005356:	4603      	mov	r3, r0
 8005358:	73bb      	strb	r3, [r7, #14]
		if (res > 1) return res;
 800535a:	7bbb      	ldrb	r3, [r7, #14]
 800535c:	2b01      	cmp	r3, #1
 800535e:	d901      	bls.n	8005364 <send_cmd+0x32>
 8005360:	7bbb      	ldrb	r3, [r7, #14]
 8005362:	e051      	b.n	8005408 <send_cmd+0xd6>
	}

	/* Select the card and wait for ready except to stop multiple block read */
	if (cmd != CMD12) {
 8005364:	79fb      	ldrb	r3, [r7, #7]
 8005366:	2b0c      	cmp	r3, #12
 8005368:	d008      	beq.n	800537c <send_cmd+0x4a>
		despiselect();
 800536a:	f7ff ff5f 	bl	800522c <despiselect>
		if (!spiselect()) return 0xFF;
 800536e:	f7ff ff6b 	bl	8005248 <spiselect>
 8005372:	4603      	mov	r3, r0
 8005374:	2b00      	cmp	r3, #0
 8005376:	d101      	bne.n	800537c <send_cmd+0x4a>
 8005378:	23ff      	movs	r3, #255	; 0xff
 800537a:	e045      	b.n	8005408 <send_cmd+0xd6>
	}

	/* Send command packet */
	xchg_spi(0x40 | cmd);				/* Start + command index */
 800537c:	79fb      	ldrb	r3, [r7, #7]
 800537e:	f043 0340 	orr.w	r3, r3, #64	; 0x40
 8005382:	b2db      	uxtb	r3, r3
 8005384:	4618      	mov	r0, r3
 8005386:	f7ff fee3 	bl	8005150 <xchg_spi>
	xchg_spi((BYTE)(arg >> 24));		/* Argument[31..24] */
 800538a:	683b      	ldr	r3, [r7, #0]
 800538c:	0e1b      	lsrs	r3, r3, #24
 800538e:	b2db      	uxtb	r3, r3
 8005390:	4618      	mov	r0, r3
 8005392:	f7ff fedd 	bl	8005150 <xchg_spi>
	xchg_spi((BYTE)(arg >> 16));		/* Argument[23..16] */
 8005396:	683b      	ldr	r3, [r7, #0]
 8005398:	0c1b      	lsrs	r3, r3, #16
 800539a:	b2db      	uxtb	r3, r3
 800539c:	4618      	mov	r0, r3
 800539e:	f7ff fed7 	bl	8005150 <xchg_spi>
	xchg_spi((BYTE)(arg >> 8));			/* Argument[15..8] */
 80053a2:	683b      	ldr	r3, [r7, #0]
 80053a4:	0a1b      	lsrs	r3, r3, #8
 80053a6:	b2db      	uxtb	r3, r3
 80053a8:	4618      	mov	r0, r3
 80053aa:	f7ff fed1 	bl	8005150 <xchg_spi>
	xchg_spi((BYTE)arg);				/* Argument[7..0] */
 80053ae:	683b      	ldr	r3, [r7, #0]
 80053b0:	b2db      	uxtb	r3, r3
 80053b2:	4618      	mov	r0, r3
 80053b4:	f7ff fecc 	bl	8005150 <xchg_spi>
	n = 0x01;							/* Dummy CRC + Stop */
 80053b8:	2301      	movs	r3, #1
 80053ba:	73fb      	strb	r3, [r7, #15]
	if (cmd == CMD0) n = 0x95;			/* Valid CRC for CMD0(0) */
 80053bc:	79fb      	ldrb	r3, [r7, #7]
 80053be:	2b00      	cmp	r3, #0
 80053c0:	d101      	bne.n	80053c6 <send_cmd+0x94>
 80053c2:	2395      	movs	r3, #149	; 0x95
 80053c4:	73fb      	strb	r3, [r7, #15]
	if (cmd == CMD8) n = 0x87;			/* Valid CRC for CMD8(0x1AA) */
 80053c6:	79fb      	ldrb	r3, [r7, #7]
 80053c8:	2b08      	cmp	r3, #8
 80053ca:	d101      	bne.n	80053d0 <send_cmd+0x9e>
 80053cc:	2387      	movs	r3, #135	; 0x87
 80053ce:	73fb      	strb	r3, [r7, #15]
	xchg_spi(n);
 80053d0:	7bfb      	ldrb	r3, [r7, #15]
 80053d2:	4618      	mov	r0, r3
 80053d4:	f7ff febc 	bl	8005150 <xchg_spi>

	/* Receive command resp */
	if (cmd == CMD12) xchg_spi(0xFF);	/* Diacard following one byte when CMD12 */
 80053d8:	79fb      	ldrb	r3, [r7, #7]
 80053da:	2b0c      	cmp	r3, #12
 80053dc:	d102      	bne.n	80053e4 <send_cmd+0xb2>
 80053de:	20ff      	movs	r0, #255	; 0xff
 80053e0:	f7ff feb6 	bl	8005150 <xchg_spi>
	n = 10;								/* Wait for response (10 bytes max) */
 80053e4:	230a      	movs	r3, #10
 80053e6:	73fb      	strb	r3, [r7, #15]
	do {
		res = xchg_spi(0xFF);
 80053e8:	20ff      	movs	r0, #255	; 0xff
 80053ea:	f7ff feb1 	bl	8005150 <xchg_spi>
 80053ee:	4603      	mov	r3, r0
 80053f0:	73bb      	strb	r3, [r7, #14]
	} while ((res & 0x80) && --n);
 80053f2:	f997 300e 	ldrsb.w	r3, [r7, #14]
 80053f6:	2b00      	cmp	r3, #0
 80053f8:	da05      	bge.n	8005406 <send_cmd+0xd4>
 80053fa:	7bfb      	ldrb	r3, [r7, #15]
 80053fc:	3b01      	subs	r3, #1
 80053fe:	73fb      	strb	r3, [r7, #15]
 8005400:	7bfb      	ldrb	r3, [r7, #15]
 8005402:	2b00      	cmp	r3, #0
 8005404:	d1f0      	bne.n	80053e8 <send_cmd+0xb6>

	return res;							/* Return received response */
 8005406:	7bbb      	ldrb	r3, [r7, #14]
}
 8005408:	4618      	mov	r0, r3
 800540a:	3710      	adds	r7, #16
 800540c:	46bd      	mov	sp, r7
 800540e:	bd80      	pop	{r7, pc}

08005410 <USER_SPI_initialize>:
/*-----------------------------------------------------------------------*/

inline DSTATUS USER_SPI_initialize (
	BYTE drv		/* Physical drive number (0) */
)
{
 8005410:	b590      	push	{r4, r7, lr}
 8005412:	b085      	sub	sp, #20
 8005414:	af00      	add	r7, sp, #0
 8005416:	4603      	mov	r3, r0
 8005418:	71fb      	strb	r3, [r7, #7]
	BYTE n, cmd, ty, ocr[4];

	if (drv != 0) return STA_NOINIT;		/* Supports only drive 0 */
 800541a:	79fb      	ldrb	r3, [r7, #7]
 800541c:	2b00      	cmp	r3, #0
 800541e:	d001      	beq.n	8005424 <USER_SPI_initialize+0x14>
 8005420:	2301      	movs	r3, #1
 8005422:	e0d6      	b.n	80055d2 <USER_SPI_initialize+0x1c2>
	//assume SPI already init init_spi();	/* Initialize SPI */

	if (Stat & STA_NODISK) return Stat;	/* Is card existing in the soket? */
 8005424:	4b6d      	ldr	r3, [pc, #436]	; (80055dc <USER_SPI_initialize+0x1cc>)
 8005426:	781b      	ldrb	r3, [r3, #0]
 8005428:	b2db      	uxtb	r3, r3
 800542a:	f003 0302 	and.w	r3, r3, #2
 800542e:	2b00      	cmp	r3, #0
 8005430:	d003      	beq.n	800543a <USER_SPI_initialize+0x2a>
 8005432:	4b6a      	ldr	r3, [pc, #424]	; (80055dc <USER_SPI_initialize+0x1cc>)
 8005434:	781b      	ldrb	r3, [r3, #0]
 8005436:	b2db      	uxtb	r3, r3
 8005438:	e0cb      	b.n	80055d2 <USER_SPI_initialize+0x1c2>

	FCLK_SLOW();
 800543a:	4b69      	ldr	r3, [pc, #420]	; (80055e0 <USER_SPI_initialize+0x1d0>)
 800543c:	681b      	ldr	r3, [r3, #0]
 800543e:	681b      	ldr	r3, [r3, #0]
 8005440:	f023 0238 	bic.w	r2, r3, #56	; 0x38
 8005444:	4b66      	ldr	r3, [pc, #408]	; (80055e0 <USER_SPI_initialize+0x1d0>)
 8005446:	681b      	ldr	r3, [r3, #0]
 8005448:	f042 0230 	orr.w	r2, r2, #48	; 0x30
 800544c:	601a      	str	r2, [r3, #0]
	for (n = 10; n; n--) xchg_spi(0xFF);	/* Send 80 dummy clocks */
 800544e:	230a      	movs	r3, #10
 8005450:	73fb      	strb	r3, [r7, #15]
 8005452:	e005      	b.n	8005460 <USER_SPI_initialize+0x50>
 8005454:	20ff      	movs	r0, #255	; 0xff
 8005456:	f7ff fe7b 	bl	8005150 <xchg_spi>
 800545a:	7bfb      	ldrb	r3, [r7, #15]
 800545c:	3b01      	subs	r3, #1
 800545e:	73fb      	strb	r3, [r7, #15]
 8005460:	7bfb      	ldrb	r3, [r7, #15]
 8005462:	2b00      	cmp	r3, #0
 8005464:	d1f6      	bne.n	8005454 <USER_SPI_initialize+0x44>

	ty = 0;
 8005466:	2300      	movs	r3, #0
 8005468:	737b      	strb	r3, [r7, #13]
	if (send_cmd(CMD0, 0) == 1) {			/* Put the card SPI/Idle state */
 800546a:	2100      	movs	r1, #0
 800546c:	2000      	movs	r0, #0
 800546e:	f7ff ff60 	bl	8005332 <send_cmd>
 8005472:	4603      	mov	r3, r0
 8005474:	2b01      	cmp	r3, #1
 8005476:	f040 808b 	bne.w	8005590 <USER_SPI_initialize+0x180>
		SPI_Timer_On(1000);					/* Initialization timeout = 1 sec */
 800547a:	f44f 707a 	mov.w	r0, #1000	; 0x3e8
 800547e:	f7ff fe3d 	bl	80050fc <SPI_Timer_On>
		if (send_cmd(CMD8, 0x1AA) == 1) {	/* SDv2? */
 8005482:	f44f 71d5 	mov.w	r1, #426	; 0x1aa
 8005486:	2008      	movs	r0, #8
 8005488:	f7ff ff53 	bl	8005332 <send_cmd>
 800548c:	4603      	mov	r3, r0
 800548e:	2b01      	cmp	r3, #1
 8005490:	d151      	bne.n	8005536 <USER_SPI_initialize+0x126>
			for (n = 0; n < 4; n++) ocr[n] = xchg_spi(0xFF);	/* Get 32 bit return value of R7 resp */
 8005492:	2300      	movs	r3, #0
 8005494:	73fb      	strb	r3, [r7, #15]
 8005496:	e00d      	b.n	80054b4 <USER_SPI_initialize+0xa4>
 8005498:	7bfc      	ldrb	r4, [r7, #15]
 800549a:	20ff      	movs	r0, #255	; 0xff
 800549c:	f7ff fe58 	bl	8005150 <xchg_spi>
 80054a0:	4603      	mov	r3, r0
 80054a2:	461a      	mov	r2, r3
 80054a4:	f107 0310 	add.w	r3, r7, #16
 80054a8:	4423      	add	r3, r4
 80054aa:	f803 2c08 	strb.w	r2, [r3, #-8]
 80054ae:	7bfb      	ldrb	r3, [r7, #15]
 80054b0:	3301      	adds	r3, #1
 80054b2:	73fb      	strb	r3, [r7, #15]
 80054b4:	7bfb      	ldrb	r3, [r7, #15]
 80054b6:	2b03      	cmp	r3, #3
 80054b8:	d9ee      	bls.n	8005498 <USER_SPI_initialize+0x88>
			if (ocr[2] == 0x01 && ocr[3] == 0xAA) {				/* Is the card supports vcc of 2.7-3.6V? */
 80054ba:	7abb      	ldrb	r3, [r7, #10]
 80054bc:	2b01      	cmp	r3, #1
 80054be:	d167      	bne.n	8005590 <USER_SPI_initialize+0x180>
 80054c0:	7afb      	ldrb	r3, [r7, #11]
 80054c2:	2baa      	cmp	r3, #170	; 0xaa
 80054c4:	d164      	bne.n	8005590 <USER_SPI_initialize+0x180>
				while (SPI_Timer_Status() && send_cmd(ACMD41, 1UL << 30)) ;	/* Wait for end of initialization with ACMD41(HCS) */
 80054c6:	bf00      	nop
 80054c8:	f7ff fe2c 	bl	8005124 <SPI_Timer_Status>
 80054cc:	4603      	mov	r3, r0
 80054ce:	2b00      	cmp	r3, #0
 80054d0:	d007      	beq.n	80054e2 <USER_SPI_initialize+0xd2>
 80054d2:	f04f 4180 	mov.w	r1, #1073741824	; 0x40000000
 80054d6:	20a9      	movs	r0, #169	; 0xa9
 80054d8:	f7ff ff2b 	bl	8005332 <send_cmd>
 80054dc:	4603      	mov	r3, r0
 80054de:	2b00      	cmp	r3, #0
 80054e0:	d1f2      	bne.n	80054c8 <USER_SPI_initialize+0xb8>
				if (SPI_Timer_Status() && send_cmd(CMD58, 0) == 0) {		/* Check CCS bit in the OCR */
 80054e2:	f7ff fe1f 	bl	8005124 <SPI_Timer_Status>
 80054e6:	4603      	mov	r3, r0
 80054e8:	2b00      	cmp	r3, #0
 80054ea:	d051      	beq.n	8005590 <USER_SPI_initialize+0x180>
 80054ec:	2100      	movs	r1, #0
 80054ee:	203a      	movs	r0, #58	; 0x3a
 80054f0:	f7ff ff1f 	bl	8005332 <send_cmd>
 80054f4:	4603      	mov	r3, r0
 80054f6:	2b00      	cmp	r3, #0
 80054f8:	d14a      	bne.n	8005590 <USER_SPI_initialize+0x180>
					for (n = 0; n < 4; n++) ocr[n] = xchg_spi(0xFF);
 80054fa:	2300      	movs	r3, #0
 80054fc:	73fb      	strb	r3, [r7, #15]
 80054fe:	e00d      	b.n	800551c <USER_SPI_initialize+0x10c>
 8005500:	7bfc      	ldrb	r4, [r7, #15]
 8005502:	20ff      	movs	r0, #255	; 0xff
 8005504:	f7ff fe24 	bl	8005150 <xchg_spi>
 8005508:	4603      	mov	r3, r0
 800550a:	461a      	mov	r2, r3
 800550c:	f107 0310 	add.w	r3, r7, #16
 8005510:	4423      	add	r3, r4
 8005512:	f803 2c08 	strb.w	r2, [r3, #-8]
 8005516:	7bfb      	ldrb	r3, [r7, #15]
 8005518:	3301      	adds	r3, #1
 800551a:	73fb      	strb	r3, [r7, #15]
 800551c:	7bfb      	ldrb	r3, [r7, #15]
 800551e:	2b03      	cmp	r3, #3
 8005520:	d9ee      	bls.n	8005500 <USER_SPI_initialize+0xf0>
					ty = (ocr[0] & 0x40) ? CT_SD2 | CT_BLOCK : CT_SD2;	/* Card id SDv2 */
 8005522:	7a3b      	ldrb	r3, [r7, #8]
 8005524:	f003 0340 	and.w	r3, r3, #64	; 0x40
 8005528:	2b00      	cmp	r3, #0
 800552a:	d001      	beq.n	8005530 <USER_SPI_initialize+0x120>
 800552c:	230c      	movs	r3, #12
 800552e:	e000      	b.n	8005532 <USER_SPI_initialize+0x122>
 8005530:	2304      	movs	r3, #4
 8005532:	737b      	strb	r3, [r7, #13]
 8005534:	e02c      	b.n	8005590 <USER_SPI_initialize+0x180>
				}
			}
		} else {	/* Not SDv2 card */
			if (send_cmd(ACMD41, 0) <= 1) 	{	/* SDv1 or MMC? */
 8005536:	2100      	movs	r1, #0
 8005538:	20a9      	movs	r0, #169	; 0xa9
 800553a:	f7ff fefa 	bl	8005332 <send_cmd>
 800553e:	4603      	mov	r3, r0
 8005540:	2b01      	cmp	r3, #1
 8005542:	d804      	bhi.n	800554e <USER_SPI_initialize+0x13e>
				ty = CT_SD1; cmd = ACMD41;	/* SDv1 (ACMD41(0)) */
 8005544:	2302      	movs	r3, #2
 8005546:	737b      	strb	r3, [r7, #13]
 8005548:	23a9      	movs	r3, #169	; 0xa9
 800554a:	73bb      	strb	r3, [r7, #14]
 800554c:	e003      	b.n	8005556 <USER_SPI_initialize+0x146>
			} else {
				ty = CT_MMC; cmd = CMD1;	/* MMCv3 (CMD1(0)) */
 800554e:	2301      	movs	r3, #1
 8005550:	737b      	strb	r3, [r7, #13]
 8005552:	2301      	movs	r3, #1
 8005554:	73bb      	strb	r3, [r7, #14]
			}
			while (SPI_Timer_Status() && send_cmd(cmd, 0)) ;		/* Wait for end of initialization */
 8005556:	bf00      	nop
 8005558:	f7ff fde4 	bl	8005124 <SPI_Timer_Status>
 800555c:	4603      	mov	r3, r0
 800555e:	2b00      	cmp	r3, #0
 8005560:	d007      	beq.n	8005572 <USER_SPI_initialize+0x162>
 8005562:	7bbb      	ldrb	r3, [r7, #14]
 8005564:	2100      	movs	r1, #0
 8005566:	4618      	mov	r0, r3
 8005568:	f7ff fee3 	bl	8005332 <send_cmd>
 800556c:	4603      	mov	r3, r0
 800556e:	2b00      	cmp	r3, #0
 8005570:	d1f2      	bne.n	8005558 <USER_SPI_initialize+0x148>
			if (!SPI_Timer_Status() || send_cmd(CMD16, 512) != 0)	/* Set block length: 512 */
 8005572:	f7ff fdd7 	bl	8005124 <SPI_Timer_Status>
 8005576:	4603      	mov	r3, r0
 8005578:	2b00      	cmp	r3, #0
 800557a:	d007      	beq.n	800558c <USER_SPI_initialize+0x17c>
 800557c:	f44f 7100 	mov.w	r1, #512	; 0x200
 8005580:	2010      	movs	r0, #16
 8005582:	f7ff fed6 	bl	8005332 <send_cmd>
 8005586:	4603      	mov	r3, r0
 8005588:	2b00      	cmp	r3, #0
 800558a:	d001      	beq.n	8005590 <USER_SPI_initialize+0x180>
				ty = 0;
 800558c:	2300      	movs	r3, #0
 800558e:	737b      	strb	r3, [r7, #13]
		}
	}
	CardType = ty;	/* Card type */
 8005590:	4a14      	ldr	r2, [pc, #80]	; (80055e4 <USER_SPI_initialize+0x1d4>)
 8005592:	7b7b      	ldrb	r3, [r7, #13]
 8005594:	7013      	strb	r3, [r2, #0]
	despiselect();
 8005596:	f7ff fe49 	bl	800522c <despiselect>

	if (ty) {			/* OK */
 800559a:	7b7b      	ldrb	r3, [r7, #13]
 800559c:	2b00      	cmp	r3, #0
 800559e:	d012      	beq.n	80055c6 <USER_SPI_initialize+0x1b6>
		FCLK_FAST();			/* Set fast clock */
 80055a0:	4b0f      	ldr	r3, [pc, #60]	; (80055e0 <USER_SPI_initialize+0x1d0>)
 80055a2:	681b      	ldr	r3, [r3, #0]
 80055a4:	681b      	ldr	r3, [r3, #0]
 80055a6:	f023 0238 	bic.w	r2, r3, #56	; 0x38
 80055aa:	4b0d      	ldr	r3, [pc, #52]	; (80055e0 <USER_SPI_initialize+0x1d0>)
 80055ac:	681b      	ldr	r3, [r3, #0]
 80055ae:	f042 0210 	orr.w	r2, r2, #16
 80055b2:	601a      	str	r2, [r3, #0]
		Stat &= ~STA_NOINIT;	/* Clear STA_NOINIT flag */
 80055b4:	4b09      	ldr	r3, [pc, #36]	; (80055dc <USER_SPI_initialize+0x1cc>)
 80055b6:	781b      	ldrb	r3, [r3, #0]
 80055b8:	b2db      	uxtb	r3, r3
 80055ba:	f023 0301 	bic.w	r3, r3, #1
 80055be:	b2da      	uxtb	r2, r3
 80055c0:	4b06      	ldr	r3, [pc, #24]	; (80055dc <USER_SPI_initialize+0x1cc>)
 80055c2:	701a      	strb	r2, [r3, #0]
 80055c4:	e002      	b.n	80055cc <USER_SPI_initialize+0x1bc>
	} else {			/* Failed */
		Stat = STA_NOINIT;
 80055c6:	4b05      	ldr	r3, [pc, #20]	; (80055dc <USER_SPI_initialize+0x1cc>)
 80055c8:	2201      	movs	r2, #1
 80055ca:	701a      	strb	r2, [r3, #0]
	}

	return Stat;
 80055cc:	4b03      	ldr	r3, [pc, #12]	; (80055dc <USER_SPI_initialize+0x1cc>)
 80055ce:	781b      	ldrb	r3, [r3, #0]
 80055d0:	b2db      	uxtb	r3, r3
}
 80055d2:	4618      	mov	r0, r3
 80055d4:	3714      	adds	r7, #20
 80055d6:	46bd      	mov	sp, r7
 80055d8:	bd90      	pop	{r4, r7, pc}
 80055da:	bf00      	nop
 80055dc:	20000020 	.word	0x20000020
 80055e0:	20000754 	.word	0x20000754
 80055e4:	20000714 	.word	0x20000714

080055e8 <USER_SPI_status>:
/*-----------------------------------------------------------------------*/

inline DSTATUS USER_SPI_status (
	BYTE drv		/* Physical drive number (0) */
)
{
 80055e8:	b480      	push	{r7}
 80055ea:	b083      	sub	sp, #12
 80055ec:	af00      	add	r7, sp, #0
 80055ee:	4603      	mov	r3, r0
 80055f0:	71fb      	strb	r3, [r7, #7]
	if (drv) return STA_NOINIT;		/* Supports only drive 0 */
 80055f2:	79fb      	ldrb	r3, [r7, #7]
 80055f4:	2b00      	cmp	r3, #0
 80055f6:	d001      	beq.n	80055fc <USER_SPI_status+0x14>
 80055f8:	2301      	movs	r3, #1
 80055fa:	e002      	b.n	8005602 <USER_SPI_status+0x1a>

	return Stat;	/* Return disk status */
 80055fc:	4b04      	ldr	r3, [pc, #16]	; (8005610 <USER_SPI_status+0x28>)
 80055fe:	781b      	ldrb	r3, [r3, #0]
 8005600:	b2db      	uxtb	r3, r3
}
 8005602:	4618      	mov	r0, r3
 8005604:	370c      	adds	r7, #12
 8005606:	46bd      	mov	sp, r7
 8005608:	f85d 7b04 	ldr.w	r7, [sp], #4
 800560c:	4770      	bx	lr
 800560e:	bf00      	nop
 8005610:	20000020 	.word	0x20000020

08005614 <USER_SPI_read>:
	BYTE drv,		/* Physical drive number (0) */
	BYTE *buff,		/* Pointer to the data buffer to store read data */
	DWORD sector,	/* Start sector number (LBA) */
	UINT count		/* Number of sectors to read (1..128) */
)
{
 8005614:	b580      	push	{r7, lr}
 8005616:	b084      	sub	sp, #16
 8005618:	af00      	add	r7, sp, #0
 800561a:	60b9      	str	r1, [r7, #8]
 800561c:	607a      	str	r2, [r7, #4]
 800561e:	603b      	str	r3, [r7, #0]
 8005620:	4603      	mov	r3, r0
 8005622:	73fb      	strb	r3, [r7, #15]
	if (drv || !count) return RES_PARERR;		/* Check parameter */
 8005624:	7bfb      	ldrb	r3, [r7, #15]
 8005626:	2b00      	cmp	r3, #0
 8005628:	d102      	bne.n	8005630 <USER_SPI_read+0x1c>
 800562a:	683b      	ldr	r3, [r7, #0]
 800562c:	2b00      	cmp	r3, #0
 800562e:	d101      	bne.n	8005634 <USER_SPI_read+0x20>
 8005630:	2304      	movs	r3, #4
 8005632:	e04d      	b.n	80056d0 <USER_SPI_read+0xbc>
	if (Stat & STA_NOINIT) return RES_NOTRDY;	/* Check if drive is ready */
 8005634:	4b28      	ldr	r3, [pc, #160]	; (80056d8 <USER_SPI_read+0xc4>)
 8005636:	781b      	ldrb	r3, [r3, #0]
 8005638:	b2db      	uxtb	r3, r3
 800563a:	f003 0301 	and.w	r3, r3, #1
 800563e:	2b00      	cmp	r3, #0
 8005640:	d001      	beq.n	8005646 <USER_SPI_read+0x32>
 8005642:	2303      	movs	r3, #3
 8005644:	e044      	b.n	80056d0 <USER_SPI_read+0xbc>

	if (!(CardType & CT_BLOCK)) sector *= 512;	/* LBA ot BA conversion (byte addressing cards) */
 8005646:	4b25      	ldr	r3, [pc, #148]	; (80056dc <USER_SPI_read+0xc8>)
 8005648:	781b      	ldrb	r3, [r3, #0]
 800564a:	f003 0308 	and.w	r3, r3, #8
 800564e:	2b00      	cmp	r3, #0
 8005650:	d102      	bne.n	8005658 <USER_SPI_read+0x44>
 8005652:	687b      	ldr	r3, [r7, #4]
 8005654:	025b      	lsls	r3, r3, #9
 8005656:	607b      	str	r3, [r7, #4]

	if (count == 1) {	/* Single sector read */
 8005658:	683b      	ldr	r3, [r7, #0]
 800565a:	2b01      	cmp	r3, #1
 800565c:	d111      	bne.n	8005682 <USER_SPI_read+0x6e>
		if ((send_cmd(CMD17, sector) == 0)	/* READ_SINGLE_BLOCK */
 800565e:	6879      	ldr	r1, [r7, #4]
 8005660:	2011      	movs	r0, #17
 8005662:	f7ff fe66 	bl	8005332 <send_cmd>
 8005666:	4603      	mov	r3, r0
 8005668:	2b00      	cmp	r3, #0
 800566a:	d129      	bne.n	80056c0 <USER_SPI_read+0xac>
			&& rcvr_datablock(buff, 512)) {
 800566c:	f44f 7100 	mov.w	r1, #512	; 0x200
 8005670:	68b8      	ldr	r0, [r7, #8]
 8005672:	f7ff fe03 	bl	800527c <rcvr_datablock>
 8005676:	4603      	mov	r3, r0
 8005678:	2b00      	cmp	r3, #0
 800567a:	d021      	beq.n	80056c0 <USER_SPI_read+0xac>
			count = 0;
 800567c:	2300      	movs	r3, #0
 800567e:	603b      	str	r3, [r7, #0]
 8005680:	e01e      	b.n	80056c0 <USER_SPI_read+0xac>
		}
	}
	else {				/* Multiple sector read */
		if (send_cmd(CMD18, sector) == 0) {	/* READ_MULTIPLE_BLOCK */
 8005682:	6879      	ldr	r1, [r7, #4]
 8005684:	2012      	movs	r0, #18
 8005686:	f7ff fe54 	bl	8005332 <send_cmd>
 800568a:	4603      	mov	r3, r0
 800568c:	2b00      	cmp	r3, #0
 800568e:	d117      	bne.n	80056c0 <USER_SPI_read+0xac>
			do {
				if (!rcvr_datablock(buff, 512)) break;
 8005690:	f44f 7100 	mov.w	r1, #512	; 0x200
 8005694:	68b8      	ldr	r0, [r7, #8]
 8005696:	f7ff fdf1 	bl	800527c <rcvr_datablock>
 800569a:	4603      	mov	r3, r0
 800569c:	2b00      	cmp	r3, #0
 800569e:	d00a      	beq.n	80056b6 <USER_SPI_read+0xa2>
				buff += 512;
 80056a0:	68bb      	ldr	r3, [r7, #8]
 80056a2:	f503 7300 	add.w	r3, r3, #512	; 0x200
 80056a6:	60bb      	str	r3, [r7, #8]
			} while (--count);
 80056a8:	683b      	ldr	r3, [r7, #0]
 80056aa:	3b01      	subs	r3, #1
 80056ac:	603b      	str	r3, [r7, #0]
 80056ae:	683b      	ldr	r3, [r7, #0]
 80056b0:	2b00      	cmp	r3, #0
 80056b2:	d1ed      	bne.n	8005690 <USER_SPI_read+0x7c>
 80056b4:	e000      	b.n	80056b8 <USER_SPI_read+0xa4>
				if (!rcvr_datablock(buff, 512)) break;
 80056b6:	bf00      	nop
			send_cmd(CMD12, 0);				/* STOP_TRANSMISSION */
 80056b8:	2100      	movs	r1, #0
 80056ba:	200c      	movs	r0, #12
 80056bc:	f7ff fe39 	bl	8005332 <send_cmd>
		}
	}
	despiselect();
 80056c0:	f7ff fdb4 	bl	800522c <despiselect>

	return count ? RES_ERROR : RES_OK;	/* Return result */
 80056c4:	683b      	ldr	r3, [r7, #0]
 80056c6:	2b00      	cmp	r3, #0
 80056c8:	bf14      	ite	ne
 80056ca:	2301      	movne	r3, #1
 80056cc:	2300      	moveq	r3, #0
 80056ce:	b2db      	uxtb	r3, r3
}
 80056d0:	4618      	mov	r0, r3
 80056d2:	3710      	adds	r7, #16
 80056d4:	46bd      	mov	sp, r7
 80056d6:	bd80      	pop	{r7, pc}
 80056d8:	20000020 	.word	0x20000020
 80056dc:	20000714 	.word	0x20000714

080056e0 <USER_SPI_write>:
	BYTE drv,			/* Physical drive number (0) */
	const BYTE *buff,	/* Ponter to the data to write */
	DWORD sector,		/* Start sector number (LBA) */
	UINT count			/* Number of sectors to write (1..128) */
)
{
 80056e0:	b580      	push	{r7, lr}
 80056e2:	b084      	sub	sp, #16
 80056e4:	af00      	add	r7, sp, #0
 80056e6:	60b9      	str	r1, [r7, #8]
 80056e8:	607a      	str	r2, [r7, #4]
 80056ea:	603b      	str	r3, [r7, #0]
 80056ec:	4603      	mov	r3, r0
 80056ee:	73fb      	strb	r3, [r7, #15]
	if (drv || !count) return RES_PARERR;		/* Check parameter */
 80056f0:	7bfb      	ldrb	r3, [r7, #15]
 80056f2:	2b00      	cmp	r3, #0
 80056f4:	d102      	bne.n	80056fc <USER_SPI_write+0x1c>
 80056f6:	683b      	ldr	r3, [r7, #0]
 80056f8:	2b00      	cmp	r3, #0
 80056fa:	d101      	bne.n	8005700 <USER_SPI_write+0x20>
 80056fc:	2304      	movs	r3, #4
 80056fe:	e063      	b.n	80057c8 <USER_SPI_write+0xe8>
	if (Stat & STA_NOINIT) return RES_NOTRDY;	/* Check drive status */
 8005700:	4b33      	ldr	r3, [pc, #204]	; (80057d0 <USER_SPI_write+0xf0>)
 8005702:	781b      	ldrb	r3, [r3, #0]
 8005704:	b2db      	uxtb	r3, r3
 8005706:	f003 0301 	and.w	r3, r3, #1
 800570a:	2b00      	cmp	r3, #0
 800570c:	d001      	beq.n	8005712 <USER_SPI_write+0x32>
 800570e:	2303      	movs	r3, #3
 8005710:	e05a      	b.n	80057c8 <USER_SPI_write+0xe8>
	if (Stat & STA_PROTECT) return RES_WRPRT;	/* Check write protect */
 8005712:	4b2f      	ldr	r3, [pc, #188]	; (80057d0 <USER_SPI_write+0xf0>)
 8005714:	781b      	ldrb	r3, [r3, #0]
 8005716:	b2db      	uxtb	r3, r3
 8005718:	f003 0304 	and.w	r3, r3, #4
 800571c:	2b00      	cmp	r3, #0
 800571e:	d001      	beq.n	8005724 <USER_SPI_write+0x44>
 8005720:	2302      	movs	r3, #2
 8005722:	e051      	b.n	80057c8 <USER_SPI_write+0xe8>

	if (!(CardType & CT_BLOCK)) sector *= 512;	/* LBA ==> BA conversion (byte addressing cards) */
 8005724:	4b2b      	ldr	r3, [pc, #172]	; (80057d4 <USER_SPI_write+0xf4>)
 8005726:	781b      	ldrb	r3, [r3, #0]
 8005728:	f003 0308 	and.w	r3, r3, #8
 800572c:	2b00      	cmp	r3, #0
 800572e:	d102      	bne.n	8005736 <USER_SPI_write+0x56>
 8005730:	687b      	ldr	r3, [r7, #4]
 8005732:	025b      	lsls	r3, r3, #9
 8005734:	607b      	str	r3, [r7, #4]

	if (count == 1) {	/* Single sector write */
 8005736:	683b      	ldr	r3, [r7, #0]
 8005738:	2b01      	cmp	r3, #1
 800573a:	d110      	bne.n	800575e <USER_SPI_write+0x7e>
		if ((send_cmd(CMD24, sector) == 0)	/* WRITE_BLOCK */
 800573c:	6879      	ldr	r1, [r7, #4]
 800573e:	2018      	movs	r0, #24
 8005740:	f7ff fdf7 	bl	8005332 <send_cmd>
 8005744:	4603      	mov	r3, r0
 8005746:	2b00      	cmp	r3, #0
 8005748:	d136      	bne.n	80057b8 <USER_SPI_write+0xd8>
			&& xmit_datablock(buff, 0xFE)) {
 800574a:	21fe      	movs	r1, #254	; 0xfe
 800574c:	68b8      	ldr	r0, [r7, #8]
 800574e:	f7ff fdbe 	bl	80052ce <xmit_datablock>
 8005752:	4603      	mov	r3, r0
 8005754:	2b00      	cmp	r3, #0
 8005756:	d02f      	beq.n	80057b8 <USER_SPI_write+0xd8>
			count = 0;
 8005758:	2300      	movs	r3, #0
 800575a:	603b      	str	r3, [r7, #0]
 800575c:	e02c      	b.n	80057b8 <USER_SPI_write+0xd8>
		}
	}
	else {				/* Multiple sector write */
		if (CardType & CT_SDC) send_cmd(ACMD23, count);	/* Predefine number of sectors */
 800575e:	4b1d      	ldr	r3, [pc, #116]	; (80057d4 <USER_SPI_write+0xf4>)
 8005760:	781b      	ldrb	r3, [r3, #0]
 8005762:	f003 0306 	and.w	r3, r3, #6
 8005766:	2b00      	cmp	r3, #0
 8005768:	d003      	beq.n	8005772 <USER_SPI_write+0x92>
 800576a:	6839      	ldr	r1, [r7, #0]
 800576c:	2097      	movs	r0, #151	; 0x97
 800576e:	f7ff fde0 	bl	8005332 <send_cmd>
		if (send_cmd(CMD25, sector) == 0) {	/* WRITE_MULTIPLE_BLOCK */
 8005772:	6879      	ldr	r1, [r7, #4]
 8005774:	2019      	movs	r0, #25
 8005776:	f7ff fddc 	bl	8005332 <send_cmd>
 800577a:	4603      	mov	r3, r0
 800577c:	2b00      	cmp	r3, #0
 800577e:	d11b      	bne.n	80057b8 <USER_SPI_write+0xd8>
			do {
				if (!xmit_datablock(buff, 0xFC)) break;
 8005780:	21fc      	movs	r1, #252	; 0xfc
 8005782:	68b8      	ldr	r0, [r7, #8]
 8005784:	f7ff fda3 	bl	80052ce <xmit_datablock>
 8005788:	4603      	mov	r3, r0
 800578a:	2b00      	cmp	r3, #0
 800578c:	d00a      	beq.n	80057a4 <USER_SPI_write+0xc4>
				buff += 512;
 800578e:	68bb      	ldr	r3, [r7, #8]
 8005790:	f503 7300 	add.w	r3, r3, #512	; 0x200
 8005794:	60bb      	str	r3, [r7, #8]
			} while (--count);
 8005796:	683b      	ldr	r3, [r7, #0]
 8005798:	3b01      	subs	r3, #1
 800579a:	603b      	str	r3, [r7, #0]
 800579c:	683b      	ldr	r3, [r7, #0]
 800579e:	2b00      	cmp	r3, #0
 80057a0:	d1ee      	bne.n	8005780 <USER_SPI_write+0xa0>
 80057a2:	e000      	b.n	80057a6 <USER_SPI_write+0xc6>
				if (!xmit_datablock(buff, 0xFC)) break;
 80057a4:	bf00      	nop
			if (!xmit_datablock(0, 0xFD)) count = 1;	/* STOP_TRAN token */
 80057a6:	21fd      	movs	r1, #253	; 0xfd
 80057a8:	2000      	movs	r0, #0
 80057aa:	f7ff fd90 	bl	80052ce <xmit_datablock>
 80057ae:	4603      	mov	r3, r0
 80057b0:	2b00      	cmp	r3, #0
 80057b2:	d101      	bne.n	80057b8 <USER_SPI_write+0xd8>
 80057b4:	2301      	movs	r3, #1
 80057b6:	603b      	str	r3, [r7, #0]
		}
	}
	despiselect();
 80057b8:	f7ff fd38 	bl	800522c <despiselect>

	return count ? RES_ERROR : RES_OK;	/* Return result */
 80057bc:	683b      	ldr	r3, [r7, #0]
 80057be:	2b00      	cmp	r3, #0
 80057c0:	bf14      	ite	ne
 80057c2:	2301      	movne	r3, #1
 80057c4:	2300      	moveq	r3, #0
 80057c6:	b2db      	uxtb	r3, r3
}
 80057c8:	4618      	mov	r0, r3
 80057ca:	3710      	adds	r7, #16
 80057cc:	46bd      	mov	sp, r7
 80057ce:	bd80      	pop	{r7, pc}
 80057d0:	20000020 	.word	0x20000020
 80057d4:	20000714 	.word	0x20000714

080057d8 <USER_SPI_ioctl>:
inline DRESULT USER_SPI_ioctl (
	BYTE drv,		/* Physical drive number (0) */
	BYTE cmd,		/* Control command code */
	void *buff		/* Pointer to the conrtol data */
)
{
 80057d8:	b580      	push	{r7, lr}
 80057da:	b08c      	sub	sp, #48	; 0x30
 80057dc:	af00      	add	r7, sp, #0
 80057de:	4603      	mov	r3, r0
 80057e0:	603a      	str	r2, [r7, #0]
 80057e2:	71fb      	strb	r3, [r7, #7]
 80057e4:	460b      	mov	r3, r1
 80057e6:	71bb      	strb	r3, [r7, #6]
	DRESULT res;
	BYTE n, csd[16];
	DWORD *dp, st, ed, csize;


	if (drv) return RES_PARERR;					/* Check parameter */
 80057e8:	79fb      	ldrb	r3, [r7, #7]
 80057ea:	2b00      	cmp	r3, #0
 80057ec:	d001      	beq.n	80057f2 <USER_SPI_ioctl+0x1a>
 80057ee:	2304      	movs	r3, #4
 80057f0:	e15a      	b.n	8005aa8 <USER_SPI_ioctl+0x2d0>
	if (Stat & STA_NOINIT) return RES_NOTRDY;	/* Check if drive is ready */
 80057f2:	4baf      	ldr	r3, [pc, #700]	; (8005ab0 <USER_SPI_ioctl+0x2d8>)
 80057f4:	781b      	ldrb	r3, [r3, #0]
 80057f6:	b2db      	uxtb	r3, r3
 80057f8:	f003 0301 	and.w	r3, r3, #1
 80057fc:	2b00      	cmp	r3, #0
 80057fe:	d001      	beq.n	8005804 <USER_SPI_ioctl+0x2c>
 8005800:	2303      	movs	r3, #3
 8005802:	e151      	b.n	8005aa8 <USER_SPI_ioctl+0x2d0>

	res = RES_ERROR;
 8005804:	2301      	movs	r3, #1
 8005806:	f887 302f 	strb.w	r3, [r7, #47]	; 0x2f

	switch (cmd) {
 800580a:	79bb      	ldrb	r3, [r7, #6]
 800580c:	2b04      	cmp	r3, #4
 800580e:	f200 8136 	bhi.w	8005a7e <USER_SPI_ioctl+0x2a6>
 8005812:	a201      	add	r2, pc, #4	; (adr r2, 8005818 <USER_SPI_ioctl+0x40>)
 8005814:	f852 f023 	ldr.w	pc, [r2, r3, lsl #2]
 8005818:	0800582d 	.word	0x0800582d
 800581c:	08005841 	.word	0x08005841
 8005820:	08005a7f 	.word	0x08005a7f
 8005824:	080058ed 	.word	0x080058ed
 8005828:	080059e3 	.word	0x080059e3
	case CTRL_SYNC :		/* Wait for end of internal write process of the drive */
		if (spiselect()) res = RES_OK;
 800582c:	f7ff fd0c 	bl	8005248 <spiselect>
 8005830:	4603      	mov	r3, r0
 8005832:	2b00      	cmp	r3, #0
 8005834:	f000 8127 	beq.w	8005a86 <USER_SPI_ioctl+0x2ae>
 8005838:	2300      	movs	r3, #0
 800583a:	f887 302f 	strb.w	r3, [r7, #47]	; 0x2f
		break;
 800583e:	e122      	b.n	8005a86 <USER_SPI_ioctl+0x2ae>

	case GET_SECTOR_COUNT :	/* Get drive capacity in unit of sector (DWORD) */
		if ((send_cmd(CMD9, 0) == 0) && rcvr_datablock(csd, 16)) {
 8005840:	2100      	movs	r1, #0
 8005842:	2009      	movs	r0, #9
 8005844:	f7ff fd75 	bl	8005332 <send_cmd>
 8005848:	4603      	mov	r3, r0
 800584a:	2b00      	cmp	r3, #0
 800584c:	f040 811d 	bne.w	8005a8a <USER_SPI_ioctl+0x2b2>
 8005850:	f107 030c 	add.w	r3, r7, #12
 8005854:	2110      	movs	r1, #16
 8005856:	4618      	mov	r0, r3
 8005858:	f7ff fd10 	bl	800527c <rcvr_datablock>
 800585c:	4603      	mov	r3, r0
 800585e:	2b00      	cmp	r3, #0
 8005860:	f000 8113 	beq.w	8005a8a <USER_SPI_ioctl+0x2b2>
			if ((csd[0] >> 6) == 1) {	/* SDC ver 2.00 */
 8005864:	7b3b      	ldrb	r3, [r7, #12]
 8005866:	099b      	lsrs	r3, r3, #6
 8005868:	b2db      	uxtb	r3, r3
 800586a:	2b01      	cmp	r3, #1
 800586c:	d111      	bne.n	8005892 <USER_SPI_ioctl+0xba>
				csize = csd[9] + ((WORD)csd[8] << 8) + ((DWORD)(csd[7] & 63) << 16) + 1;
 800586e:	7d7b      	ldrb	r3, [r7, #21]
 8005870:	461a      	mov	r2, r3
 8005872:	7d3b      	ldrb	r3, [r7, #20]
 8005874:	021b      	lsls	r3, r3, #8
 8005876:	4413      	add	r3, r2
 8005878:	461a      	mov	r2, r3
 800587a:	7cfb      	ldrb	r3, [r7, #19]
 800587c:	041b      	lsls	r3, r3, #16
 800587e:	f403 137c 	and.w	r3, r3, #4128768	; 0x3f0000
 8005882:	4413      	add	r3, r2
 8005884:	3301      	adds	r3, #1
 8005886:	61fb      	str	r3, [r7, #28]
				*(DWORD*)buff = csize << 10;
 8005888:	69fb      	ldr	r3, [r7, #28]
 800588a:	029a      	lsls	r2, r3, #10
 800588c:	683b      	ldr	r3, [r7, #0]
 800588e:	601a      	str	r2, [r3, #0]
 8005890:	e028      	b.n	80058e4 <USER_SPI_ioctl+0x10c>
			} else {					/* SDC ver 1.XX or MMC ver 3 */
				n = (csd[5] & 15) + ((csd[10] & 128) >> 7) + ((csd[9] & 3) << 1) + 2;
 8005892:	7c7b      	ldrb	r3, [r7, #17]
 8005894:	f003 030f 	and.w	r3, r3, #15
 8005898:	b2da      	uxtb	r2, r3
 800589a:	7dbb      	ldrb	r3, [r7, #22]
 800589c:	09db      	lsrs	r3, r3, #7
 800589e:	b2db      	uxtb	r3, r3
 80058a0:	4413      	add	r3, r2
 80058a2:	b2da      	uxtb	r2, r3
 80058a4:	7d7b      	ldrb	r3, [r7, #21]
 80058a6:	005b      	lsls	r3, r3, #1
 80058a8:	b2db      	uxtb	r3, r3
 80058aa:	f003 0306 	and.w	r3, r3, #6
 80058ae:	b2db      	uxtb	r3, r3
 80058b0:	4413      	add	r3, r2
 80058b2:	b2db      	uxtb	r3, r3
 80058b4:	3302      	adds	r3, #2
 80058b6:	f887 302e 	strb.w	r3, [r7, #46]	; 0x2e
				csize = (csd[8] >> 6) + ((WORD)csd[7] << 2) + ((WORD)(csd[6] & 3) << 10) + 1;
 80058ba:	7d3b      	ldrb	r3, [r7, #20]
 80058bc:	099b      	lsrs	r3, r3, #6
 80058be:	b2db      	uxtb	r3, r3
 80058c0:	461a      	mov	r2, r3
 80058c2:	7cfb      	ldrb	r3, [r7, #19]
 80058c4:	009b      	lsls	r3, r3, #2
 80058c6:	441a      	add	r2, r3
 80058c8:	7cbb      	ldrb	r3, [r7, #18]
 80058ca:	029b      	lsls	r3, r3, #10
 80058cc:	f403 6340 	and.w	r3, r3, #3072	; 0xc00
 80058d0:	4413      	add	r3, r2
 80058d2:	3301      	adds	r3, #1
 80058d4:	61fb      	str	r3, [r7, #28]
				*(DWORD*)buff = csize << (n - 9);
 80058d6:	f897 302e 	ldrb.w	r3, [r7, #46]	; 0x2e
 80058da:	3b09      	subs	r3, #9
 80058dc:	69fa      	ldr	r2, [r7, #28]
 80058de:	409a      	lsls	r2, r3
 80058e0:	683b      	ldr	r3, [r7, #0]
 80058e2:	601a      	str	r2, [r3, #0]
			}
			res = RES_OK;
 80058e4:	2300      	movs	r3, #0
 80058e6:	f887 302f 	strb.w	r3, [r7, #47]	; 0x2f
		}
		break;
 80058ea:	e0ce      	b.n	8005a8a <USER_SPI_ioctl+0x2b2>

	case GET_BLOCK_SIZE :	/* Get erase block size in unit of sector (DWORD) */
		if (CardType & CT_SD2) {	/* SDC ver 2.00 */
 80058ec:	4b71      	ldr	r3, [pc, #452]	; (8005ab4 <USER_SPI_ioctl+0x2dc>)
 80058ee:	781b      	ldrb	r3, [r3, #0]
 80058f0:	f003 0304 	and.w	r3, r3, #4
 80058f4:	2b00      	cmp	r3, #0
 80058f6:	d031      	beq.n	800595c <USER_SPI_ioctl+0x184>
			if (send_cmd(ACMD13, 0) == 0) {	/* Read SD status */
 80058f8:	2100      	movs	r1, #0
 80058fa:	208d      	movs	r0, #141	; 0x8d
 80058fc:	f7ff fd19 	bl	8005332 <send_cmd>
 8005900:	4603      	mov	r3, r0
 8005902:	2b00      	cmp	r3, #0
 8005904:	f040 80c3 	bne.w	8005a8e <USER_SPI_ioctl+0x2b6>
				xchg_spi(0xFF);
 8005908:	20ff      	movs	r0, #255	; 0xff
 800590a:	f7ff fc21 	bl	8005150 <xchg_spi>
				if (rcvr_datablock(csd, 16)) {				/* Read partial block */
 800590e:	f107 030c 	add.w	r3, r7, #12
 8005912:	2110      	movs	r1, #16
 8005914:	4618      	mov	r0, r3
 8005916:	f7ff fcb1 	bl	800527c <rcvr_datablock>
 800591a:	4603      	mov	r3, r0
 800591c:	2b00      	cmp	r3, #0
 800591e:	f000 80b6 	beq.w	8005a8e <USER_SPI_ioctl+0x2b6>
					for (n = 64 - 16; n; n--) xchg_spi(0xFF);	/* Purge trailing data */
 8005922:	2330      	movs	r3, #48	; 0x30
 8005924:	f887 302e 	strb.w	r3, [r7, #46]	; 0x2e
 8005928:	e007      	b.n	800593a <USER_SPI_ioctl+0x162>
 800592a:	20ff      	movs	r0, #255	; 0xff
 800592c:	f7ff fc10 	bl	8005150 <xchg_spi>
 8005930:	f897 302e 	ldrb.w	r3, [r7, #46]	; 0x2e
 8005934:	3b01      	subs	r3, #1
 8005936:	f887 302e 	strb.w	r3, [r7, #46]	; 0x2e
 800593a:	f897 302e 	ldrb.w	r3, [r7, #46]	; 0x2e
 800593e:	2b00      	cmp	r3, #0
 8005940:	d1f3      	bne.n	800592a <USER_SPI_ioctl+0x152>
					*(DWORD*)buff = 16UL << (csd[10] >> 4);
 8005942:	7dbb      	ldrb	r3, [r7, #22]
 8005944:	091b      	lsrs	r3, r3, #4
 8005946:	b2db      	uxtb	r3, r3
 8005948:	461a      	mov	r2, r3
 800594a:	2310      	movs	r3, #16
 800594c:	fa03 f202 	lsl.w	r2, r3, r2
 8005950:	683b      	ldr	r3, [r7, #0]
 8005952:	601a      	str	r2, [r3, #0]
					res = RES_OK;
 8005954:	2300      	movs	r3, #0
 8005956:	f887 302f 	strb.w	r3, [r7, #47]	; 0x2f
					*(DWORD*)buff = ((WORD)((csd[10] & 124) >> 2) + 1) * (((csd[11] & 3) << 3) + ((csd[11] & 224) >> 5) + 1);
				}
				res = RES_OK;
			}
		}
		break;
 800595a:	e098      	b.n	8005a8e <USER_SPI_ioctl+0x2b6>
			if ((send_cmd(CMD9, 0) == 0) && rcvr_datablock(csd, 16)) {	/* Read CSD */
 800595c:	2100      	movs	r1, #0
 800595e:	2009      	movs	r0, #9
 8005960:	f7ff fce7 	bl	8005332 <send_cmd>
 8005964:	4603      	mov	r3, r0
 8005966:	2b00      	cmp	r3, #0
 8005968:	f040 8091 	bne.w	8005a8e <USER_SPI_ioctl+0x2b6>
 800596c:	f107 030c 	add.w	r3, r7, #12
 8005970:	2110      	movs	r1, #16
 8005972:	4618      	mov	r0, r3
 8005974:	f7ff fc82 	bl	800527c <rcvr_datablock>
 8005978:	4603      	mov	r3, r0
 800597a:	2b00      	cmp	r3, #0
 800597c:	f000 8087 	beq.w	8005a8e <USER_SPI_ioctl+0x2b6>
				if (CardType & CT_SD1) {	/* SDC ver 1.XX */
 8005980:	4b4c      	ldr	r3, [pc, #304]	; (8005ab4 <USER_SPI_ioctl+0x2dc>)
 8005982:	781b      	ldrb	r3, [r3, #0]
 8005984:	f003 0302 	and.w	r3, r3, #2
 8005988:	2b00      	cmp	r3, #0
 800598a:	d012      	beq.n	80059b2 <USER_SPI_ioctl+0x1da>
					*(DWORD*)buff = (((csd[10] & 63) << 1) + ((WORD)(csd[11] & 128) >> 7) + 1) << ((csd[13] >> 6) - 1);
 800598c:	7dbb      	ldrb	r3, [r7, #22]
 800598e:	005b      	lsls	r3, r3, #1
 8005990:	f003 037e 	and.w	r3, r3, #126	; 0x7e
 8005994:	7dfa      	ldrb	r2, [r7, #23]
 8005996:	09d2      	lsrs	r2, r2, #7
 8005998:	b2d2      	uxtb	r2, r2
 800599a:	4413      	add	r3, r2
 800599c:	1c5a      	adds	r2, r3, #1
 800599e:	7e7b      	ldrb	r3, [r7, #25]
 80059a0:	099b      	lsrs	r3, r3, #6
 80059a2:	b2db      	uxtb	r3, r3
 80059a4:	3b01      	subs	r3, #1
 80059a6:	fa02 f303 	lsl.w	r3, r2, r3
 80059aa:	461a      	mov	r2, r3
 80059ac:	683b      	ldr	r3, [r7, #0]
 80059ae:	601a      	str	r2, [r3, #0]
 80059b0:	e013      	b.n	80059da <USER_SPI_ioctl+0x202>
					*(DWORD*)buff = ((WORD)((csd[10] & 124) >> 2) + 1) * (((csd[11] & 3) << 3) + ((csd[11] & 224) >> 5) + 1);
 80059b2:	7dbb      	ldrb	r3, [r7, #22]
 80059b4:	109b      	asrs	r3, r3, #2
 80059b6:	b29b      	uxth	r3, r3
 80059b8:	f003 031f 	and.w	r3, r3, #31
 80059bc:	3301      	adds	r3, #1
 80059be:	7dfa      	ldrb	r2, [r7, #23]
 80059c0:	00d2      	lsls	r2, r2, #3
 80059c2:	f002 0218 	and.w	r2, r2, #24
 80059c6:	7df9      	ldrb	r1, [r7, #23]
 80059c8:	0949      	lsrs	r1, r1, #5
 80059ca:	b2c9      	uxtb	r1, r1
 80059cc:	440a      	add	r2, r1
 80059ce:	3201      	adds	r2, #1
 80059d0:	fb02 f303 	mul.w	r3, r2, r3
 80059d4:	461a      	mov	r2, r3
 80059d6:	683b      	ldr	r3, [r7, #0]
 80059d8:	601a      	str	r2, [r3, #0]
				res = RES_OK;
 80059da:	2300      	movs	r3, #0
 80059dc:	f887 302f 	strb.w	r3, [r7, #47]	; 0x2f
		break;
 80059e0:	e055      	b.n	8005a8e <USER_SPI_ioctl+0x2b6>

	case CTRL_TRIM :	/* Erase a block of sectors (used when _USE_ERASE == 1) */
		if (!(CardType & CT_SDC)) break;				/* Check if the card is SDC */
 80059e2:	4b34      	ldr	r3, [pc, #208]	; (8005ab4 <USER_SPI_ioctl+0x2dc>)
 80059e4:	781b      	ldrb	r3, [r3, #0]
 80059e6:	f003 0306 	and.w	r3, r3, #6
 80059ea:	2b00      	cmp	r3, #0
 80059ec:	d051      	beq.n	8005a92 <USER_SPI_ioctl+0x2ba>
		if (USER_SPI_ioctl(drv, MMC_GET_CSD, csd)) break;	/* Get CSD */
 80059ee:	f107 020c 	add.w	r2, r7, #12
 80059f2:	79fb      	ldrb	r3, [r7, #7]
 80059f4:	210b      	movs	r1, #11
 80059f6:	4618      	mov	r0, r3
 80059f8:	f7ff feee 	bl	80057d8 <USER_SPI_ioctl>
 80059fc:	4603      	mov	r3, r0
 80059fe:	2b00      	cmp	r3, #0
 8005a00:	d149      	bne.n	8005a96 <USER_SPI_ioctl+0x2be>
		if (!(csd[0] >> 6) && !(csd[10] & 0x40)) break;	/* Check if sector erase can be applied to the card */
 8005a02:	7b3b      	ldrb	r3, [r7, #12]
 8005a04:	099b      	lsrs	r3, r3, #6
 8005a06:	b2db      	uxtb	r3, r3
 8005a08:	2b00      	cmp	r3, #0
 8005a0a:	d104      	bne.n	8005a16 <USER_SPI_ioctl+0x23e>
 8005a0c:	7dbb      	ldrb	r3, [r7, #22]
 8005a0e:	f003 0340 	and.w	r3, r3, #64	; 0x40
 8005a12:	2b00      	cmp	r3, #0
 8005a14:	d041      	beq.n	8005a9a <USER_SPI_ioctl+0x2c2>
		dp = buff; st = dp[0]; ed = dp[1];				/* Load sector block */
 8005a16:	683b      	ldr	r3, [r7, #0]
 8005a18:	623b      	str	r3, [r7, #32]
 8005a1a:	6a3b      	ldr	r3, [r7, #32]
 8005a1c:	681b      	ldr	r3, [r3, #0]
 8005a1e:	62bb      	str	r3, [r7, #40]	; 0x28
 8005a20:	6a3b      	ldr	r3, [r7, #32]
 8005a22:	685b      	ldr	r3, [r3, #4]
 8005a24:	627b      	str	r3, [r7, #36]	; 0x24
		if (!(CardType & CT_BLOCK)) {
 8005a26:	4b23      	ldr	r3, [pc, #140]	; (8005ab4 <USER_SPI_ioctl+0x2dc>)
 8005a28:	781b      	ldrb	r3, [r3, #0]
 8005a2a:	f003 0308 	and.w	r3, r3, #8
 8005a2e:	2b00      	cmp	r3, #0
 8005a30:	d105      	bne.n	8005a3e <USER_SPI_ioctl+0x266>
			st *= 512; ed *= 512;
 8005a32:	6abb      	ldr	r3, [r7, #40]	; 0x28
 8005a34:	025b      	lsls	r3, r3, #9
 8005a36:	62bb      	str	r3, [r7, #40]	; 0x28
 8005a38:	6a7b      	ldr	r3, [r7, #36]	; 0x24
 8005a3a:	025b      	lsls	r3, r3, #9
 8005a3c:	627b      	str	r3, [r7, #36]	; 0x24
		}
		if (send_cmd(CMD32, st) == 0 && send_cmd(CMD33, ed) == 0 && send_cmd(CMD38, 0) == 0 && wait_ready(30000)) {	/* Erase sector block */
 8005a3e:	6ab9      	ldr	r1, [r7, #40]	; 0x28
 8005a40:	2020      	movs	r0, #32
 8005a42:	f7ff fc76 	bl	8005332 <send_cmd>
 8005a46:	4603      	mov	r3, r0
 8005a48:	2b00      	cmp	r3, #0
 8005a4a:	d128      	bne.n	8005a9e <USER_SPI_ioctl+0x2c6>
 8005a4c:	6a79      	ldr	r1, [r7, #36]	; 0x24
 8005a4e:	2021      	movs	r0, #33	; 0x21
 8005a50:	f7ff fc6f 	bl	8005332 <send_cmd>
 8005a54:	4603      	mov	r3, r0
 8005a56:	2b00      	cmp	r3, #0
 8005a58:	d121      	bne.n	8005a9e <USER_SPI_ioctl+0x2c6>
 8005a5a:	2100      	movs	r1, #0
 8005a5c:	2026      	movs	r0, #38	; 0x26
 8005a5e:	f7ff fc68 	bl	8005332 <send_cmd>
 8005a62:	4603      	mov	r3, r0
 8005a64:	2b00      	cmp	r3, #0
 8005a66:	d11a      	bne.n	8005a9e <USER_SPI_ioctl+0x2c6>
 8005a68:	f247 5030 	movw	r0, #30000	; 0x7530
 8005a6c:	f7ff fbbb 	bl	80051e6 <wait_ready>
 8005a70:	4603      	mov	r3, r0
 8005a72:	2b00      	cmp	r3, #0
 8005a74:	d013      	beq.n	8005a9e <USER_SPI_ioctl+0x2c6>
			res = RES_OK;	/* FatFs does not check result of this command */
 8005a76:	2300      	movs	r3, #0
 8005a78:	f887 302f 	strb.w	r3, [r7, #47]	; 0x2f
		}
		break;
 8005a7c:	e00f      	b.n	8005a9e <USER_SPI_ioctl+0x2c6>

	default:
		res = RES_PARERR;
 8005a7e:	2304      	movs	r3, #4
 8005a80:	f887 302f 	strb.w	r3, [r7, #47]	; 0x2f
 8005a84:	e00c      	b.n	8005aa0 <USER_SPI_ioctl+0x2c8>
		break;
 8005a86:	bf00      	nop
 8005a88:	e00a      	b.n	8005aa0 <USER_SPI_ioctl+0x2c8>
		break;
 8005a8a:	bf00      	nop
 8005a8c:	e008      	b.n	8005aa0 <USER_SPI_ioctl+0x2c8>
		break;
 8005a8e:	bf00      	nop
 8005a90:	e006      	b.n	8005aa0 <USER_SPI_ioctl+0x2c8>
		if (!(CardType & CT_SDC)) break;				/* Check if the card is SDC */
 8005a92:	bf00      	nop
 8005a94:	e004      	b.n	8005aa0 <USER_SPI_ioctl+0x2c8>
		if (USER_SPI_ioctl(drv, MMC_GET_CSD, csd)) break;	/* Get CSD */
 8005a96:	bf00      	nop
 8005a98:	e002      	b.n	8005aa0 <USER_SPI_ioctl+0x2c8>
		if (!(csd[0] >> 6) && !(csd[10] & 0x40)) break;	/* Check if sector erase can be applied to the card */
 8005a9a:	bf00      	nop
 8005a9c:	e000      	b.n	8005aa0 <USER_SPI_ioctl+0x2c8>
		break;
 8005a9e:	bf00      	nop
	}

	despiselect();
 8005aa0:	f7ff fbc4 	bl	800522c <despiselect>

	return res;
 8005aa4:	f897 302f 	ldrb.w	r3, [r7, #47]	; 0x2f
}
 8005aa8:	4618      	mov	r0, r3
 8005aaa:	3730      	adds	r7, #48	; 0x30
 8005aac:	46bd      	mov	sp, r7
 8005aae:	bd80      	pop	{r7, pc}
 8005ab0:	20000020 	.word	0x20000020
 8005ab4:	20000714 	.word	0x20000714

08005ab8 <disk_status>:
  * @retval DSTATUS: Operation status
  */
DSTATUS disk_status (
	BYTE pdrv		/* Physical drive number to identify the drive */
)
{
 8005ab8:	b580      	push	{r7, lr}
 8005aba:	b084      	sub	sp, #16
 8005abc:	af00      	add	r7, sp, #0
 8005abe:	4603      	mov	r3, r0
 8005ac0:	71fb      	strb	r3, [r7, #7]
  DSTATUS stat;

  stat = disk.drv[pdrv]->disk_status(disk.lun[pdrv]);
 8005ac2:	79fb      	ldrb	r3, [r7, #7]
 8005ac4:	4a08      	ldr	r2, [pc, #32]	; (8005ae8 <disk_status+0x30>)
 8005ac6:	009b      	lsls	r3, r3, #2
 8005ac8:	4413      	add	r3, r2
 8005aca:	685b      	ldr	r3, [r3, #4]
 8005acc:	685b      	ldr	r3, [r3, #4]
 8005ace:	79fa      	ldrb	r2, [r7, #7]
 8005ad0:	4905      	ldr	r1, [pc, #20]	; (8005ae8 <disk_status+0x30>)
 8005ad2:	440a      	add	r2, r1
 8005ad4:	7a12      	ldrb	r2, [r2, #8]
 8005ad6:	4610      	mov	r0, r2
 8005ad8:	4798      	blx	r3
 8005ada:	4603      	mov	r3, r0
 8005adc:	73fb      	strb	r3, [r7, #15]
  return stat;
 8005ade:	7bfb      	ldrb	r3, [r7, #15]
}
 8005ae0:	4618      	mov	r0, r3
 8005ae2:	3710      	adds	r7, #16
 8005ae4:	46bd      	mov	sp, r7
 8005ae6:	bd80      	pop	{r7, pc}
 8005ae8:	20000740 	.word	0x20000740

08005aec <disk_initialize>:
  * @retval DSTATUS: Operation status
  */
DSTATUS disk_initialize (
	BYTE pdrv				/* Physical drive nmuber to identify the drive */
)
{
 8005aec:	b580      	push	{r7, lr}
 8005aee:	b084      	sub	sp, #16
 8005af0:	af00      	add	r7, sp, #0
 8005af2:	4603      	mov	r3, r0
 8005af4:	71fb      	strb	r3, [r7, #7]
  DSTATUS stat = RES_OK;
 8005af6:	2300      	movs	r3, #0
 8005af8:	73fb      	strb	r3, [r7, #15]

  if(disk.is_initialized[pdrv] == 0)
 8005afa:	79fb      	ldrb	r3, [r7, #7]
 8005afc:	4a0d      	ldr	r2, [pc, #52]	; (8005b34 <disk_initialize+0x48>)
 8005afe:	5cd3      	ldrb	r3, [r2, r3]
 8005b00:	2b00      	cmp	r3, #0
 8005b02:	d111      	bne.n	8005b28 <disk_initialize+0x3c>
  {
    disk.is_initialized[pdrv] = 1;
 8005b04:	79fb      	ldrb	r3, [r7, #7]
 8005b06:	4a0b      	ldr	r2, [pc, #44]	; (8005b34 <disk_initialize+0x48>)
 8005b08:	2101      	movs	r1, #1
 8005b0a:	54d1      	strb	r1, [r2, r3]
    stat = disk.drv[pdrv]->disk_initialize(disk.lun[pdrv]);
 8005b0c:	79fb      	ldrb	r3, [r7, #7]
 8005b0e:	4a09      	ldr	r2, [pc, #36]	; (8005b34 <disk_initialize+0x48>)
 8005b10:	009b      	lsls	r3, r3, #2
 8005b12:	4413      	add	r3, r2
 8005b14:	685b      	ldr	r3, [r3, #4]
 8005b16:	681b      	ldr	r3, [r3, #0]
 8005b18:	79fa      	ldrb	r2, [r7, #7]
 8005b1a:	4906      	ldr	r1, [pc, #24]	; (8005b34 <disk_initialize+0x48>)
 8005b1c:	440a      	add	r2, r1
 8005b1e:	7a12      	ldrb	r2, [r2, #8]
 8005b20:	4610      	mov	r0, r2
 8005b22:	4798      	blx	r3
 8005b24:	4603      	mov	r3, r0
 8005b26:	73fb      	strb	r3, [r7, #15]
  }
  return stat;
 8005b28:	7bfb      	ldrb	r3, [r7, #15]
}
 8005b2a:	4618      	mov	r0, r3
 8005b2c:	3710      	adds	r7, #16
 8005b2e:	46bd      	mov	sp, r7
 8005b30:	bd80      	pop	{r7, pc}
 8005b32:	bf00      	nop
 8005b34:	20000740 	.word	0x20000740

08005b38 <disk_read>:
	BYTE pdrv,		/* Physical drive nmuber to identify the drive */
	BYTE *buff,		/* Data buffer to store read data */
	DWORD sector,	        /* Sector address in LBA */
	UINT count		/* Number of sectors to read */
)
{
 8005b38:	b590      	push	{r4, r7, lr}
 8005b3a:	b087      	sub	sp, #28
 8005b3c:	af00      	add	r7, sp, #0
 8005b3e:	60b9      	str	r1, [r7, #8]
 8005b40:	607a      	str	r2, [r7, #4]
 8005b42:	603b      	str	r3, [r7, #0]
 8005b44:	4603      	mov	r3, r0
 8005b46:	73fb      	strb	r3, [r7, #15]
  DRESULT res;

  res = disk.drv[pdrv]->disk_read(disk.lun[pdrv], buff, sector, count);
 8005b48:	7bfb      	ldrb	r3, [r7, #15]
 8005b4a:	4a0a      	ldr	r2, [pc, #40]	; (8005b74 <disk_read+0x3c>)
 8005b4c:	009b      	lsls	r3, r3, #2
 8005b4e:	4413      	add	r3, r2
 8005b50:	685b      	ldr	r3, [r3, #4]
 8005b52:	689c      	ldr	r4, [r3, #8]
 8005b54:	7bfb      	ldrb	r3, [r7, #15]
 8005b56:	4a07      	ldr	r2, [pc, #28]	; (8005b74 <disk_read+0x3c>)
 8005b58:	4413      	add	r3, r2
 8005b5a:	7a18      	ldrb	r0, [r3, #8]
 8005b5c:	683b      	ldr	r3, [r7, #0]
 8005b5e:	687a      	ldr	r2, [r7, #4]
 8005b60:	68b9      	ldr	r1, [r7, #8]
 8005b62:	47a0      	blx	r4
 8005b64:	4603      	mov	r3, r0
 8005b66:	75fb      	strb	r3, [r7, #23]
  return res;
 8005b68:	7dfb      	ldrb	r3, [r7, #23]
}
 8005b6a:	4618      	mov	r0, r3
 8005b6c:	371c      	adds	r7, #28
 8005b6e:	46bd      	mov	sp, r7
 8005b70:	bd90      	pop	{r4, r7, pc}
 8005b72:	bf00      	nop
 8005b74:	20000740 	.word	0x20000740

08005b78 <disk_write>:
	BYTE pdrv,		/* Physical drive nmuber to identify the drive */
	const BYTE *buff,	/* Data to be written */
	DWORD sector,		/* Sector address in LBA */
	UINT count        	/* Number of sectors to write */
)
{
 8005b78:	b590      	push	{r4, r7, lr}
 8005b7a:	b087      	sub	sp, #28
 8005b7c:	af00      	add	r7, sp, #0
 8005b7e:	60b9      	str	r1, [r7, #8]
 8005b80:	607a      	str	r2, [r7, #4]
 8005b82:	603b      	str	r3, [r7, #0]
 8005b84:	4603      	mov	r3, r0
 8005b86:	73fb      	strb	r3, [r7, #15]
  DRESULT res;

  res = disk.drv[pdrv]->disk_write(disk.lun[pdrv], buff, sector, count);
 8005b88:	7bfb      	ldrb	r3, [r7, #15]
 8005b8a:	4a0a      	ldr	r2, [pc, #40]	; (8005bb4 <disk_write+0x3c>)
 8005b8c:	009b      	lsls	r3, r3, #2
 8005b8e:	4413      	add	r3, r2
 8005b90:	685b      	ldr	r3, [r3, #4]
 8005b92:	68dc      	ldr	r4, [r3, #12]
 8005b94:	7bfb      	ldrb	r3, [r7, #15]
 8005b96:	4a07      	ldr	r2, [pc, #28]	; (8005bb4 <disk_write+0x3c>)
 8005b98:	4413      	add	r3, r2
 8005b9a:	7a18      	ldrb	r0, [r3, #8]
 8005b9c:	683b      	ldr	r3, [r7, #0]
 8005b9e:	687a      	ldr	r2, [r7, #4]
 8005ba0:	68b9      	ldr	r1, [r7, #8]
 8005ba2:	47a0      	blx	r4
 8005ba4:	4603      	mov	r3, r0
 8005ba6:	75fb      	strb	r3, [r7, #23]
  return res;
 8005ba8:	7dfb      	ldrb	r3, [r7, #23]
}
 8005baa:	4618      	mov	r0, r3
 8005bac:	371c      	adds	r7, #28
 8005bae:	46bd      	mov	sp, r7
 8005bb0:	bd90      	pop	{r4, r7, pc}
 8005bb2:	bf00      	nop
 8005bb4:	20000740 	.word	0x20000740

08005bb8 <disk_ioctl>:
DRESULT disk_ioctl (
	BYTE pdrv,		/* Physical drive nmuber (0..) */
	BYTE cmd,		/* Control code */
	void *buff		/* Buffer to send/receive control data */
)
{
 8005bb8:	b580      	push	{r7, lr}
 8005bba:	b084      	sub	sp, #16
 8005bbc:	af00      	add	r7, sp, #0
 8005bbe:	4603      	mov	r3, r0
 8005bc0:	603a      	str	r2, [r7, #0]
 8005bc2:	71fb      	strb	r3, [r7, #7]
 8005bc4:	460b      	mov	r3, r1
 8005bc6:	71bb      	strb	r3, [r7, #6]
  DRESULT res;

  res = disk.drv[pdrv]->disk_ioctl(disk.lun[pdrv], cmd, buff);
 8005bc8:	79fb      	ldrb	r3, [r7, #7]
 8005bca:	4a09      	ldr	r2, [pc, #36]	; (8005bf0 <disk_ioctl+0x38>)
 8005bcc:	009b      	lsls	r3, r3, #2
 8005bce:	4413      	add	r3, r2
 8005bd0:	685b      	ldr	r3, [r3, #4]
 8005bd2:	691b      	ldr	r3, [r3, #16]
 8005bd4:	79fa      	ldrb	r2, [r7, #7]
 8005bd6:	4906      	ldr	r1, [pc, #24]	; (8005bf0 <disk_ioctl+0x38>)
 8005bd8:	440a      	add	r2, r1
 8005bda:	7a10      	ldrb	r0, [r2, #8]
 8005bdc:	79b9      	ldrb	r1, [r7, #6]
 8005bde:	683a      	ldr	r2, [r7, #0]
 8005be0:	4798      	blx	r3
 8005be2:	4603      	mov	r3, r0
 8005be4:	73fb      	strb	r3, [r7, #15]
  return res;
 8005be6:	7bfb      	ldrb	r3, [r7, #15]
}
 8005be8:	4618      	mov	r0, r3
 8005bea:	3710      	adds	r7, #16
 8005bec:	46bd      	mov	sp, r7
 8005bee:	bd80      	pop	{r7, pc}
 8005bf0:	20000740 	.word	0x20000740

08005bf4 <ld_word>:
/* Load/Store multi-byte word in the FAT structure                       */
/*-----------------------------------------------------------------------*/

static
WORD ld_word (const BYTE* ptr)	/*	 Load a 2-byte little-endian word */
{
 8005bf4:	b480      	push	{r7}
 8005bf6:	b085      	sub	sp, #20
 8005bf8:	af00      	add	r7, sp, #0
 8005bfa:	6078      	str	r0, [r7, #4]
	WORD rv;

	rv = ptr[1];
 8005bfc:	687b      	ldr	r3, [r7, #4]
 8005bfe:	3301      	adds	r3, #1
 8005c00:	781b      	ldrb	r3, [r3, #0]
 8005c02:	81fb      	strh	r3, [r7, #14]
	rv = rv << 8 | ptr[0];
 8005c04:	89fb      	ldrh	r3, [r7, #14]
 8005c06:	021b      	lsls	r3, r3, #8
 8005c08:	b21a      	sxth	r2, r3
 8005c0a:	687b      	ldr	r3, [r7, #4]
 8005c0c:	781b      	ldrb	r3, [r3, #0]
 8005c0e:	b21b      	sxth	r3, r3
 8005c10:	4313      	orrs	r3, r2
 8005c12:	b21b      	sxth	r3, r3
 8005c14:	81fb      	strh	r3, [r7, #14]
	return rv;
 8005c16:	89fb      	ldrh	r3, [r7, #14]
}
 8005c18:	4618      	mov	r0, r3
 8005c1a:	3714      	adds	r7, #20
 8005c1c:	46bd      	mov	sp, r7
 8005c1e:	f85d 7b04 	ldr.w	r7, [sp], #4
 8005c22:	4770      	bx	lr

08005c24 <ld_dword>:

static
DWORD ld_dword (const BYTE* ptr)	/* Load a 4-byte little-endian word */
{
 8005c24:	b480      	push	{r7}
 8005c26:	b085      	sub	sp, #20
 8005c28:	af00      	add	r7, sp, #0
 8005c2a:	6078      	str	r0, [r7, #4]
	DWORD rv;

	rv = ptr[3];
 8005c2c:	687b      	ldr	r3, [r7, #4]
 8005c2e:	3303      	adds	r3, #3
 8005c30:	781b      	ldrb	r3, [r3, #0]
 8005c32:	60fb      	str	r3, [r7, #12]
	rv = rv << 8 | ptr[2];
 8005c34:	68fb      	ldr	r3, [r7, #12]
 8005c36:	021b      	lsls	r3, r3, #8
 8005c38:	687a      	ldr	r2, [r7, #4]
 8005c3a:	3202      	adds	r2, #2
 8005c3c:	7812      	ldrb	r2, [r2, #0]
 8005c3e:	4313      	orrs	r3, r2
 8005c40:	60fb      	str	r3, [r7, #12]
	rv = rv << 8 | ptr[1];
 8005c42:	68fb      	ldr	r3, [r7, #12]
 8005c44:	021b      	lsls	r3, r3, #8
 8005c46:	687a      	ldr	r2, [r7, #4]
 8005c48:	3201      	adds	r2, #1
 8005c4a:	7812      	ldrb	r2, [r2, #0]
 8005c4c:	4313      	orrs	r3, r2
 8005c4e:	60fb      	str	r3, [r7, #12]
	rv = rv << 8 | ptr[0];
 8005c50:	68fb      	ldr	r3, [r7, #12]
 8005c52:	021b      	lsls	r3, r3, #8
 8005c54:	687a      	ldr	r2, [r7, #4]
 8005c56:	7812      	ldrb	r2, [r2, #0]
 8005c58:	4313      	orrs	r3, r2
 8005c5a:	60fb      	str	r3, [r7, #12]
	return rv;
 8005c5c:	68fb      	ldr	r3, [r7, #12]
}
 8005c5e:	4618      	mov	r0, r3
 8005c60:	3714      	adds	r7, #20
 8005c62:	46bd      	mov	sp, r7
 8005c64:	f85d 7b04 	ldr.w	r7, [sp], #4
 8005c68:	4770      	bx	lr

08005c6a <st_word>:
#endif

#if !_FS_READONLY
static
void st_word (BYTE* ptr, WORD val)	/* Store a 2-byte word in little-endian */
{
 8005c6a:	b480      	push	{r7}
 8005c6c:	b083      	sub	sp, #12
 8005c6e:	af00      	add	r7, sp, #0
 8005c70:	6078      	str	r0, [r7, #4]
 8005c72:	460b      	mov	r3, r1
 8005c74:	807b      	strh	r3, [r7, #2]
	*ptr++ = (BYTE)val; val >>= 8;
 8005c76:	687b      	ldr	r3, [r7, #4]
 8005c78:	1c5a      	adds	r2, r3, #1
 8005c7a:	607a      	str	r2, [r7, #4]
 8005c7c:	887a      	ldrh	r2, [r7, #2]
 8005c7e:	b2d2      	uxtb	r2, r2
 8005c80:	701a      	strb	r2, [r3, #0]
 8005c82:	887b      	ldrh	r3, [r7, #2]
 8005c84:	0a1b      	lsrs	r3, r3, #8
 8005c86:	807b      	strh	r3, [r7, #2]
	*ptr++ = (BYTE)val;
 8005c88:	687b      	ldr	r3, [r7, #4]
 8005c8a:	1c5a      	adds	r2, r3, #1
 8005c8c:	607a      	str	r2, [r7, #4]
 8005c8e:	887a      	ldrh	r2, [r7, #2]
 8005c90:	b2d2      	uxtb	r2, r2
 8005c92:	701a      	strb	r2, [r3, #0]
}
 8005c94:	bf00      	nop
 8005c96:	370c      	adds	r7, #12
 8005c98:	46bd      	mov	sp, r7
 8005c9a:	f85d 7b04 	ldr.w	r7, [sp], #4
 8005c9e:	4770      	bx	lr

08005ca0 <st_dword>:

static
void st_dword (BYTE* ptr, DWORD val)	/* Store a 4-byte word in little-endian */
{
 8005ca0:	b480      	push	{r7}
 8005ca2:	b083      	sub	sp, #12
 8005ca4:	af00      	add	r7, sp, #0
 8005ca6:	6078      	str	r0, [r7, #4]
 8005ca8:	6039      	str	r1, [r7, #0]
	*ptr++ = (BYTE)val; val >>= 8;
 8005caa:	687b      	ldr	r3, [r7, #4]
 8005cac:	1c5a      	adds	r2, r3, #1
 8005cae:	607a      	str	r2, [r7, #4]
 8005cb0:	683a      	ldr	r2, [r7, #0]
 8005cb2:	b2d2      	uxtb	r2, r2
 8005cb4:	701a      	strb	r2, [r3, #0]
 8005cb6:	683b      	ldr	r3, [r7, #0]
 8005cb8:	0a1b      	lsrs	r3, r3, #8
 8005cba:	603b      	str	r3, [r7, #0]
	*ptr++ = (BYTE)val; val >>= 8;
 8005cbc:	687b      	ldr	r3, [r7, #4]
 8005cbe:	1c5a      	adds	r2, r3, #1
 8005cc0:	607a      	str	r2, [r7, #4]
 8005cc2:	683a      	ldr	r2, [r7, #0]
 8005cc4:	b2d2      	uxtb	r2, r2
 8005cc6:	701a      	strb	r2, [r3, #0]
 8005cc8:	683b      	ldr	r3, [r7, #0]
 8005cca:	0a1b      	lsrs	r3, r3, #8
 8005ccc:	603b      	str	r3, [r7, #0]
	*ptr++ = (BYTE)val; val >>= 8;
 8005cce:	687b      	ldr	r3, [r7, #4]
 8005cd0:	1c5a      	adds	r2, r3, #1
 8005cd2:	607a      	str	r2, [r7, #4]
 8005cd4:	683a      	ldr	r2, [r7, #0]
 8005cd6:	b2d2      	uxtb	r2, r2
 8005cd8:	701a      	strb	r2, [r3, #0]
 8005cda:	683b      	ldr	r3, [r7, #0]
 8005cdc:	0a1b      	lsrs	r3, r3, #8
 8005cde:	603b      	str	r3, [r7, #0]
	*ptr++ = (BYTE)val;
 8005ce0:	687b      	ldr	r3, [r7, #4]
 8005ce2:	1c5a      	adds	r2, r3, #1
 8005ce4:	607a      	str	r2, [r7, #4]
 8005ce6:	683a      	ldr	r2, [r7, #0]
 8005ce8:	b2d2      	uxtb	r2, r2
 8005cea:	701a      	strb	r2, [r3, #0]
}
 8005cec:	bf00      	nop
 8005cee:	370c      	adds	r7, #12
 8005cf0:	46bd      	mov	sp, r7
 8005cf2:	f85d 7b04 	ldr.w	r7, [sp], #4
 8005cf6:	4770      	bx	lr

08005cf8 <mem_cpy>:
/* String functions                                                      */
/*-----------------------------------------------------------------------*/

/* Copy memory to memory */
static
void mem_cpy (void* dst, const void* src, UINT cnt) {
 8005cf8:	b480      	push	{r7}
 8005cfa:	b087      	sub	sp, #28
 8005cfc:	af00      	add	r7, sp, #0
 8005cfe:	60f8      	str	r0, [r7, #12]
 8005d00:	60b9      	str	r1, [r7, #8]
 8005d02:	607a      	str	r2, [r7, #4]
	BYTE *d = (BYTE*)dst;
 8005d04:	68fb      	ldr	r3, [r7, #12]
 8005d06:	617b      	str	r3, [r7, #20]
	const BYTE *s = (const BYTE*)src;
 8005d08:	68bb      	ldr	r3, [r7, #8]
 8005d0a:	613b      	str	r3, [r7, #16]

	if (cnt) {
 8005d0c:	687b      	ldr	r3, [r7, #4]
 8005d0e:	2b00      	cmp	r3, #0
 8005d10:	d00d      	beq.n	8005d2e <mem_cpy+0x36>
		do {
			*d++ = *s++;
 8005d12:	693a      	ldr	r2, [r7, #16]
 8005d14:	1c53      	adds	r3, r2, #1
 8005d16:	613b      	str	r3, [r7, #16]
 8005d18:	697b      	ldr	r3, [r7, #20]
 8005d1a:	1c59      	adds	r1, r3, #1
 8005d1c:	6179      	str	r1, [r7, #20]
 8005d1e:	7812      	ldrb	r2, [r2, #0]
 8005d20:	701a      	strb	r2, [r3, #0]
		} while (--cnt);
 8005d22:	687b      	ldr	r3, [r7, #4]
 8005d24:	3b01      	subs	r3, #1
 8005d26:	607b      	str	r3, [r7, #4]
 8005d28:	687b      	ldr	r3, [r7, #4]
 8005d2a:	2b00      	cmp	r3, #0
 8005d2c:	d1f1      	bne.n	8005d12 <mem_cpy+0x1a>
	}
}
 8005d2e:	bf00      	nop
 8005d30:	371c      	adds	r7, #28
 8005d32:	46bd      	mov	sp, r7
 8005d34:	f85d 7b04 	ldr.w	r7, [sp], #4
 8005d38:	4770      	bx	lr

08005d3a <mem_set>:

/* Fill memory block */
static
void mem_set (void* dst, int val, UINT cnt) {
 8005d3a:	b480      	push	{r7}
 8005d3c:	b087      	sub	sp, #28
 8005d3e:	af00      	add	r7, sp, #0
 8005d40:	60f8      	str	r0, [r7, #12]
 8005d42:	60b9      	str	r1, [r7, #8]
 8005d44:	607a      	str	r2, [r7, #4]
	BYTE *d = (BYTE*)dst;
 8005d46:	68fb      	ldr	r3, [r7, #12]
 8005d48:	617b      	str	r3, [r7, #20]

	do {
		*d++ = (BYTE)val;
 8005d4a:	697b      	ldr	r3, [r7, #20]
 8005d4c:	1c5a      	adds	r2, r3, #1
 8005d4e:	617a      	str	r2, [r7, #20]
 8005d50:	68ba      	ldr	r2, [r7, #8]
 8005d52:	b2d2      	uxtb	r2, r2
 8005d54:	701a      	strb	r2, [r3, #0]
	} while (--cnt);
 8005d56:	687b      	ldr	r3, [r7, #4]
 8005d58:	3b01      	subs	r3, #1
 8005d5a:	607b      	str	r3, [r7, #4]
 8005d5c:	687b      	ldr	r3, [r7, #4]
 8005d5e:	2b00      	cmp	r3, #0
 8005d60:	d1f3      	bne.n	8005d4a <mem_set+0x10>
}
 8005d62:	bf00      	nop
 8005d64:	371c      	adds	r7, #28
 8005d66:	46bd      	mov	sp, r7
 8005d68:	f85d 7b04 	ldr.w	r7, [sp], #4
 8005d6c:	4770      	bx	lr

08005d6e <mem_cmp>:

/* Compare memory block */
static
int mem_cmp (const void* dst, const void* src, UINT cnt) {	/* ZR:same, NZ:different */
 8005d6e:	b480      	push	{r7}
 8005d70:	b089      	sub	sp, #36	; 0x24
 8005d72:	af00      	add	r7, sp, #0
 8005d74:	60f8      	str	r0, [r7, #12]
 8005d76:	60b9      	str	r1, [r7, #8]
 8005d78:	607a      	str	r2, [r7, #4]
	const BYTE *d = (const BYTE *)dst, *s = (const BYTE *)src;
 8005d7a:	68fb      	ldr	r3, [r7, #12]
 8005d7c:	61fb      	str	r3, [r7, #28]
 8005d7e:	68bb      	ldr	r3, [r7, #8]
 8005d80:	61bb      	str	r3, [r7, #24]
	int r = 0;
 8005d82:	2300      	movs	r3, #0
 8005d84:	617b      	str	r3, [r7, #20]

	do {
		r = *d++ - *s++;
 8005d86:	69fb      	ldr	r3, [r7, #28]
 8005d88:	1c5a      	adds	r2, r3, #1
 8005d8a:	61fa      	str	r2, [r7, #28]
 8005d8c:	781b      	ldrb	r3, [r3, #0]
 8005d8e:	4619      	mov	r1, r3
 8005d90:	69bb      	ldr	r3, [r7, #24]
 8005d92:	1c5a      	adds	r2, r3, #1
 8005d94:	61ba      	str	r2, [r7, #24]
 8005d96:	781b      	ldrb	r3, [r3, #0]
 8005d98:	1acb      	subs	r3, r1, r3
 8005d9a:	617b      	str	r3, [r7, #20]
	} while (--cnt && r == 0);
 8005d9c:	687b      	ldr	r3, [r7, #4]
 8005d9e:	3b01      	subs	r3, #1
 8005da0:	607b      	str	r3, [r7, #4]
 8005da2:	687b      	ldr	r3, [r7, #4]
 8005da4:	2b00      	cmp	r3, #0
 8005da6:	d002      	beq.n	8005dae <mem_cmp+0x40>
 8005da8:	697b      	ldr	r3, [r7, #20]
 8005daa:	2b00      	cmp	r3, #0
 8005dac:	d0eb      	beq.n	8005d86 <mem_cmp+0x18>

	return r;
 8005dae:	697b      	ldr	r3, [r7, #20]
}
 8005db0:	4618      	mov	r0, r3
 8005db2:	3724      	adds	r7, #36	; 0x24
 8005db4:	46bd      	mov	sp, r7
 8005db6:	f85d 7b04 	ldr.w	r7, [sp], #4
 8005dba:	4770      	bx	lr

08005dbc <chk_chr>:

/* Check if chr is contained in the string */
static
int chk_chr (const char* str, int chr) {	/* NZ:contained, ZR:not contained */
 8005dbc:	b480      	push	{r7}
 8005dbe:	b083      	sub	sp, #12
 8005dc0:	af00      	add	r7, sp, #0
 8005dc2:	6078      	str	r0, [r7, #4]
 8005dc4:	6039      	str	r1, [r7, #0]
	while (*str && *str != chr) str++;
 8005dc6:	e002      	b.n	8005dce <chk_chr+0x12>
 8005dc8:	687b      	ldr	r3, [r7, #4]
 8005dca:	3301      	adds	r3, #1
 8005dcc:	607b      	str	r3, [r7, #4]
 8005dce:	687b      	ldr	r3, [r7, #4]
 8005dd0:	781b      	ldrb	r3, [r3, #0]
 8005dd2:	2b00      	cmp	r3, #0
 8005dd4:	d005      	beq.n	8005de2 <chk_chr+0x26>
 8005dd6:	687b      	ldr	r3, [r7, #4]
 8005dd8:	781b      	ldrb	r3, [r3, #0]
 8005dda:	461a      	mov	r2, r3
 8005ddc:	683b      	ldr	r3, [r7, #0]
 8005dde:	4293      	cmp	r3, r2
 8005de0:	d1f2      	bne.n	8005dc8 <chk_chr+0xc>
	return *str;
 8005de2:	687b      	ldr	r3, [r7, #4]
 8005de4:	781b      	ldrb	r3, [r3, #0]
}
 8005de6:	4618      	mov	r0, r3
 8005de8:	370c      	adds	r7, #12
 8005dea:	46bd      	mov	sp, r7
 8005dec:	f85d 7b04 	ldr.w	r7, [sp], #4
 8005df0:	4770      	bx	lr
	...

08005df4 <chk_lock>:
static
FRESULT chk_lock (	/* Check if the file can be accessed */
	DIR* dp,		/* Directory object pointing the file to be checked */
	int acc			/* Desired access type (0:Read, 1:Write, 2:Delete/Rename) */
)
{
 8005df4:	b480      	push	{r7}
 8005df6:	b085      	sub	sp, #20
 8005df8:	af00      	add	r7, sp, #0
 8005dfa:	6078      	str	r0, [r7, #4]
 8005dfc:	6039      	str	r1, [r7, #0]
	UINT i, be;

	/* Search file semaphore table */
	for (i = be = 0; i < _FS_LOCK; i++) {
 8005dfe:	2300      	movs	r3, #0
 8005e00:	60bb      	str	r3, [r7, #8]
 8005e02:	68bb      	ldr	r3, [r7, #8]
 8005e04:	60fb      	str	r3, [r7, #12]
 8005e06:	e029      	b.n	8005e5c <chk_lock+0x68>
		if (Files[i].fs) {	/* Existing entry */
 8005e08:	4a27      	ldr	r2, [pc, #156]	; (8005ea8 <chk_lock+0xb4>)
 8005e0a:	68fb      	ldr	r3, [r7, #12]
 8005e0c:	011b      	lsls	r3, r3, #4
 8005e0e:	4413      	add	r3, r2
 8005e10:	681b      	ldr	r3, [r3, #0]
 8005e12:	2b00      	cmp	r3, #0
 8005e14:	d01d      	beq.n	8005e52 <chk_lock+0x5e>
			if (Files[i].fs == dp->obj.fs &&	 	/* Check if the object matched with an open object */
 8005e16:	4a24      	ldr	r2, [pc, #144]	; (8005ea8 <chk_lock+0xb4>)
 8005e18:	68fb      	ldr	r3, [r7, #12]
 8005e1a:	011b      	lsls	r3, r3, #4
 8005e1c:	4413      	add	r3, r2
 8005e1e:	681a      	ldr	r2, [r3, #0]
 8005e20:	687b      	ldr	r3, [r7, #4]
 8005e22:	681b      	ldr	r3, [r3, #0]
 8005e24:	429a      	cmp	r2, r3
 8005e26:	d116      	bne.n	8005e56 <chk_lock+0x62>
				Files[i].clu == dp->obj.sclust &&
 8005e28:	4a1f      	ldr	r2, [pc, #124]	; (8005ea8 <chk_lock+0xb4>)
 8005e2a:	68fb      	ldr	r3, [r7, #12]
 8005e2c:	011b      	lsls	r3, r3, #4
 8005e2e:	4413      	add	r3, r2
 8005e30:	3304      	adds	r3, #4
 8005e32:	681a      	ldr	r2, [r3, #0]
 8005e34:	687b      	ldr	r3, [r7, #4]
 8005e36:	689b      	ldr	r3, [r3, #8]
			if (Files[i].fs == dp->obj.fs &&	 	/* Check if the object matched with an open object */
 8005e38:	429a      	cmp	r2, r3
 8005e3a:	d10c      	bne.n	8005e56 <chk_lock+0x62>
				Files[i].ofs == dp->dptr) break;
 8005e3c:	4a1a      	ldr	r2, [pc, #104]	; (8005ea8 <chk_lock+0xb4>)
 8005e3e:	68fb      	ldr	r3, [r7, #12]
 8005e40:	011b      	lsls	r3, r3, #4
 8005e42:	4413      	add	r3, r2
 8005e44:	3308      	adds	r3, #8
 8005e46:	681a      	ldr	r2, [r3, #0]
 8005e48:	687b      	ldr	r3, [r7, #4]
 8005e4a:	695b      	ldr	r3, [r3, #20]
				Files[i].clu == dp->obj.sclust &&
 8005e4c:	429a      	cmp	r2, r3
 8005e4e:	d102      	bne.n	8005e56 <chk_lock+0x62>
				Files[i].ofs == dp->dptr) break;
 8005e50:	e007      	b.n	8005e62 <chk_lock+0x6e>
		} else {			/* Blank entry */
			be = 1;
 8005e52:	2301      	movs	r3, #1
 8005e54:	60bb      	str	r3, [r7, #8]
	for (i = be = 0; i < _FS_LOCK; i++) {
 8005e56:	68fb      	ldr	r3, [r7, #12]
 8005e58:	3301      	adds	r3, #1
 8005e5a:	60fb      	str	r3, [r7, #12]
 8005e5c:	68fb      	ldr	r3, [r7, #12]
 8005e5e:	2b01      	cmp	r3, #1
 8005e60:	d9d2      	bls.n	8005e08 <chk_lock+0x14>
		}
	}
	if (i == _FS_LOCK) {	/* The object is not opened */
 8005e62:	68fb      	ldr	r3, [r7, #12]
 8005e64:	2b02      	cmp	r3, #2
 8005e66:	d109      	bne.n	8005e7c <chk_lock+0x88>
		return (be || acc == 2) ? FR_OK : FR_TOO_MANY_OPEN_FILES;	/* Is there a blank entry for new object? */
 8005e68:	68bb      	ldr	r3, [r7, #8]
 8005e6a:	2b00      	cmp	r3, #0
 8005e6c:	d102      	bne.n	8005e74 <chk_lock+0x80>
 8005e6e:	683b      	ldr	r3, [r7, #0]
 8005e70:	2b02      	cmp	r3, #2
 8005e72:	d101      	bne.n	8005e78 <chk_lock+0x84>
 8005e74:	2300      	movs	r3, #0
 8005e76:	e010      	b.n	8005e9a <chk_lock+0xa6>
 8005e78:	2312      	movs	r3, #18
 8005e7a:	e00e      	b.n	8005e9a <chk_lock+0xa6>
	}

	/* The object has been opened. Reject any open against writing file and all write mode open */
	return (acc || Files[i].ctr == 0x100) ? FR_LOCKED : FR_OK;
 8005e7c:	683b      	ldr	r3, [r7, #0]
 8005e7e:	2b00      	cmp	r3, #0
 8005e80:	d108      	bne.n	8005e94 <chk_lock+0xa0>
 8005e82:	4a09      	ldr	r2, [pc, #36]	; (8005ea8 <chk_lock+0xb4>)
 8005e84:	68fb      	ldr	r3, [r7, #12]
 8005e86:	011b      	lsls	r3, r3, #4
 8005e88:	4413      	add	r3, r2
 8005e8a:	330c      	adds	r3, #12
 8005e8c:	881b      	ldrh	r3, [r3, #0]
 8005e8e:	f5b3 7f80 	cmp.w	r3, #256	; 0x100
 8005e92:	d101      	bne.n	8005e98 <chk_lock+0xa4>
 8005e94:	2310      	movs	r3, #16
 8005e96:	e000      	b.n	8005e9a <chk_lock+0xa6>
 8005e98:	2300      	movs	r3, #0
}
 8005e9a:	4618      	mov	r0, r3
 8005e9c:	3714      	adds	r7, #20
 8005e9e:	46bd      	mov	sp, r7
 8005ea0:	f85d 7b04 	ldr.w	r7, [sp], #4
 8005ea4:	4770      	bx	lr
 8005ea6:	bf00      	nop
 8005ea8:	20000720 	.word	0x20000720

08005eac <enq_lock>:


static
int enq_lock (void)	/* Check if an entry is available for a new object */
{
 8005eac:	b480      	push	{r7}
 8005eae:	b083      	sub	sp, #12
 8005eb0:	af00      	add	r7, sp, #0
	UINT i;

	for (i = 0; i < _FS_LOCK && Files[i].fs; i++) ;
 8005eb2:	2300      	movs	r3, #0
 8005eb4:	607b      	str	r3, [r7, #4]
 8005eb6:	e002      	b.n	8005ebe <enq_lock+0x12>
 8005eb8:	687b      	ldr	r3, [r7, #4]
 8005eba:	3301      	adds	r3, #1
 8005ebc:	607b      	str	r3, [r7, #4]
 8005ebe:	687b      	ldr	r3, [r7, #4]
 8005ec0:	2b01      	cmp	r3, #1
 8005ec2:	d806      	bhi.n	8005ed2 <enq_lock+0x26>
 8005ec4:	4a09      	ldr	r2, [pc, #36]	; (8005eec <enq_lock+0x40>)
 8005ec6:	687b      	ldr	r3, [r7, #4]
 8005ec8:	011b      	lsls	r3, r3, #4
 8005eca:	4413      	add	r3, r2
 8005ecc:	681b      	ldr	r3, [r3, #0]
 8005ece:	2b00      	cmp	r3, #0
 8005ed0:	d1f2      	bne.n	8005eb8 <enq_lock+0xc>
	return (i == _FS_LOCK) ? 0 : 1;
 8005ed2:	687b      	ldr	r3, [r7, #4]
 8005ed4:	2b02      	cmp	r3, #2
 8005ed6:	bf14      	ite	ne
 8005ed8:	2301      	movne	r3, #1
 8005eda:	2300      	moveq	r3, #0
 8005edc:	b2db      	uxtb	r3, r3
}
 8005ede:	4618      	mov	r0, r3
 8005ee0:	370c      	adds	r7, #12
 8005ee2:	46bd      	mov	sp, r7
 8005ee4:	f85d 7b04 	ldr.w	r7, [sp], #4
 8005ee8:	4770      	bx	lr
 8005eea:	bf00      	nop
 8005eec:	20000720 	.word	0x20000720

08005ef0 <inc_lock>:
static
UINT inc_lock (	/* Increment object open counter and returns its index (0:Internal error) */
	DIR* dp,	/* Directory object pointing the file to register or increment */
	int acc		/* Desired access (0:Read, 1:Write, 2:Delete/Rename) */
)
{
 8005ef0:	b480      	push	{r7}
 8005ef2:	b085      	sub	sp, #20
 8005ef4:	af00      	add	r7, sp, #0
 8005ef6:	6078      	str	r0, [r7, #4]
 8005ef8:	6039      	str	r1, [r7, #0]
	UINT i;


	for (i = 0; i < _FS_LOCK; i++) {	/* Find the object */
 8005efa:	2300      	movs	r3, #0
 8005efc:	60fb      	str	r3, [r7, #12]
 8005efe:	e01f      	b.n	8005f40 <inc_lock+0x50>
		if (Files[i].fs == dp->obj.fs &&
 8005f00:	4a41      	ldr	r2, [pc, #260]	; (8006008 <inc_lock+0x118>)
 8005f02:	68fb      	ldr	r3, [r7, #12]
 8005f04:	011b      	lsls	r3, r3, #4
 8005f06:	4413      	add	r3, r2
 8005f08:	681a      	ldr	r2, [r3, #0]
 8005f0a:	687b      	ldr	r3, [r7, #4]
 8005f0c:	681b      	ldr	r3, [r3, #0]
 8005f0e:	429a      	cmp	r2, r3
 8005f10:	d113      	bne.n	8005f3a <inc_lock+0x4a>
			Files[i].clu == dp->obj.sclust &&
 8005f12:	4a3d      	ldr	r2, [pc, #244]	; (8006008 <inc_lock+0x118>)
 8005f14:	68fb      	ldr	r3, [r7, #12]
 8005f16:	011b      	lsls	r3, r3, #4
 8005f18:	4413      	add	r3, r2
 8005f1a:	3304      	adds	r3, #4
 8005f1c:	681a      	ldr	r2, [r3, #0]
 8005f1e:	687b      	ldr	r3, [r7, #4]
 8005f20:	689b      	ldr	r3, [r3, #8]
		if (Files[i].fs == dp->obj.fs &&
 8005f22:	429a      	cmp	r2, r3
 8005f24:	d109      	bne.n	8005f3a <inc_lock+0x4a>
			Files[i].ofs == dp->dptr) break;
 8005f26:	4a38      	ldr	r2, [pc, #224]	; (8006008 <inc_lock+0x118>)
 8005f28:	68fb      	ldr	r3, [r7, #12]
 8005f2a:	011b      	lsls	r3, r3, #4
 8005f2c:	4413      	add	r3, r2
 8005f2e:	3308      	adds	r3, #8
 8005f30:	681a      	ldr	r2, [r3, #0]
 8005f32:	687b      	ldr	r3, [r7, #4]
 8005f34:	695b      	ldr	r3, [r3, #20]
			Files[i].clu == dp->obj.sclust &&
 8005f36:	429a      	cmp	r2, r3
 8005f38:	d006      	beq.n	8005f48 <inc_lock+0x58>
	for (i = 0; i < _FS_LOCK; i++) {	/* Find the object */
 8005f3a:	68fb      	ldr	r3, [r7, #12]
 8005f3c:	3301      	adds	r3, #1
 8005f3e:	60fb      	str	r3, [r7, #12]
 8005f40:	68fb      	ldr	r3, [r7, #12]
 8005f42:	2b01      	cmp	r3, #1
 8005f44:	d9dc      	bls.n	8005f00 <inc_lock+0x10>
 8005f46:	e000      	b.n	8005f4a <inc_lock+0x5a>
			Files[i].ofs == dp->dptr) break;
 8005f48:	bf00      	nop
	}

	if (i == _FS_LOCK) {				/* Not opened. Register it as new. */
 8005f4a:	68fb      	ldr	r3, [r7, #12]
 8005f4c:	2b02      	cmp	r3, #2
 8005f4e:	d132      	bne.n	8005fb6 <inc_lock+0xc6>
		for (i = 0; i < _FS_LOCK && Files[i].fs; i++) ;
 8005f50:	2300      	movs	r3, #0
 8005f52:	60fb      	str	r3, [r7, #12]
 8005f54:	e002      	b.n	8005f5c <inc_lock+0x6c>
 8005f56:	68fb      	ldr	r3, [r7, #12]
 8005f58:	3301      	adds	r3, #1
 8005f5a:	60fb      	str	r3, [r7, #12]
 8005f5c:	68fb      	ldr	r3, [r7, #12]
 8005f5e:	2b01      	cmp	r3, #1
 8005f60:	d806      	bhi.n	8005f70 <inc_lock+0x80>
 8005f62:	4a29      	ldr	r2, [pc, #164]	; (8006008 <inc_lock+0x118>)
 8005f64:	68fb      	ldr	r3, [r7, #12]
 8005f66:	011b      	lsls	r3, r3, #4
 8005f68:	4413      	add	r3, r2
 8005f6a:	681b      	ldr	r3, [r3, #0]
 8005f6c:	2b00      	cmp	r3, #0
 8005f6e:	d1f2      	bne.n	8005f56 <inc_lock+0x66>
		if (i == _FS_LOCK) return 0;	/* No free entry to register (int err) */
 8005f70:	68fb      	ldr	r3, [r7, #12]
 8005f72:	2b02      	cmp	r3, #2
 8005f74:	d101      	bne.n	8005f7a <inc_lock+0x8a>
 8005f76:	2300      	movs	r3, #0
 8005f78:	e040      	b.n	8005ffc <inc_lock+0x10c>
		Files[i].fs = dp->obj.fs;
 8005f7a:	687b      	ldr	r3, [r7, #4]
 8005f7c:	681a      	ldr	r2, [r3, #0]
 8005f7e:	4922      	ldr	r1, [pc, #136]	; (8006008 <inc_lock+0x118>)
 8005f80:	68fb      	ldr	r3, [r7, #12]
 8005f82:	011b      	lsls	r3, r3, #4
 8005f84:	440b      	add	r3, r1
 8005f86:	601a      	str	r2, [r3, #0]
		Files[i].clu = dp->obj.sclust;
 8005f88:	687b      	ldr	r3, [r7, #4]
 8005f8a:	689a      	ldr	r2, [r3, #8]
 8005f8c:	491e      	ldr	r1, [pc, #120]	; (8006008 <inc_lock+0x118>)
 8005f8e:	68fb      	ldr	r3, [r7, #12]
 8005f90:	011b      	lsls	r3, r3, #4
 8005f92:	440b      	add	r3, r1
 8005f94:	3304      	adds	r3, #4
 8005f96:	601a      	str	r2, [r3, #0]
		Files[i].ofs = dp->dptr;
 8005f98:	687b      	ldr	r3, [r7, #4]
 8005f9a:	695a      	ldr	r2, [r3, #20]
 8005f9c:	491a      	ldr	r1, [pc, #104]	; (8006008 <inc_lock+0x118>)
 8005f9e:	68fb      	ldr	r3, [r7, #12]
 8005fa0:	011b      	lsls	r3, r3, #4
 8005fa2:	440b      	add	r3, r1
 8005fa4:	3308      	adds	r3, #8
 8005fa6:	601a      	str	r2, [r3, #0]
		Files[i].ctr = 0;
 8005fa8:	4a17      	ldr	r2, [pc, #92]	; (8006008 <inc_lock+0x118>)
 8005faa:	68fb      	ldr	r3, [r7, #12]
 8005fac:	011b      	lsls	r3, r3, #4
 8005fae:	4413      	add	r3, r2
 8005fb0:	330c      	adds	r3, #12
 8005fb2:	2200      	movs	r2, #0
 8005fb4:	801a      	strh	r2, [r3, #0]
	}

	if (acc && Files[i].ctr) return 0;	/* Access violation (int err) */
 8005fb6:	683b      	ldr	r3, [r7, #0]
 8005fb8:	2b00      	cmp	r3, #0
 8005fba:	d009      	beq.n	8005fd0 <inc_lock+0xe0>
 8005fbc:	4a12      	ldr	r2, [pc, #72]	; (8006008 <inc_lock+0x118>)
 8005fbe:	68fb      	ldr	r3, [r7, #12]
 8005fc0:	011b      	lsls	r3, r3, #4
 8005fc2:	4413      	add	r3, r2
 8005fc4:	330c      	adds	r3, #12
 8005fc6:	881b      	ldrh	r3, [r3, #0]
 8005fc8:	2b00      	cmp	r3, #0
 8005fca:	d001      	beq.n	8005fd0 <inc_lock+0xe0>
 8005fcc:	2300      	movs	r3, #0
 8005fce:	e015      	b.n	8005ffc <inc_lock+0x10c>

	Files[i].ctr = acc ? 0x100 : Files[i].ctr + 1;	/* Set semaphore value */
 8005fd0:	683b      	ldr	r3, [r7, #0]
 8005fd2:	2b00      	cmp	r3, #0
 8005fd4:	d108      	bne.n	8005fe8 <inc_lock+0xf8>
 8005fd6:	4a0c      	ldr	r2, [pc, #48]	; (8006008 <inc_lock+0x118>)
 8005fd8:	68fb      	ldr	r3, [r7, #12]
 8005fda:	011b      	lsls	r3, r3, #4
 8005fdc:	4413      	add	r3, r2
 8005fde:	330c      	adds	r3, #12
 8005fe0:	881b      	ldrh	r3, [r3, #0]
 8005fe2:	3301      	adds	r3, #1
 8005fe4:	b29a      	uxth	r2, r3
 8005fe6:	e001      	b.n	8005fec <inc_lock+0xfc>
 8005fe8:	f44f 7280 	mov.w	r2, #256	; 0x100
 8005fec:	4906      	ldr	r1, [pc, #24]	; (8006008 <inc_lock+0x118>)
 8005fee:	68fb      	ldr	r3, [r7, #12]
 8005ff0:	011b      	lsls	r3, r3, #4
 8005ff2:	440b      	add	r3, r1
 8005ff4:	330c      	adds	r3, #12
 8005ff6:	801a      	strh	r2, [r3, #0]

	return i + 1;
 8005ff8:	68fb      	ldr	r3, [r7, #12]
 8005ffa:	3301      	adds	r3, #1
}
 8005ffc:	4618      	mov	r0, r3
 8005ffe:	3714      	adds	r7, #20
 8006000:	46bd      	mov	sp, r7
 8006002:	f85d 7b04 	ldr.w	r7, [sp], #4
 8006006:	4770      	bx	lr
 8006008:	20000720 	.word	0x20000720

0800600c <dec_lock>:

static
FRESULT dec_lock (	/* Decrement object open counter */
	UINT i			/* Semaphore index (1..) */
)
{
 800600c:	b480      	push	{r7}
 800600e:	b085      	sub	sp, #20
 8006010:	af00      	add	r7, sp, #0
 8006012:	6078      	str	r0, [r7, #4]
	WORD n;
	FRESULT res;


	if (--i < _FS_LOCK) {	/* Shift index number origin from 0 */
 8006014:	687b      	ldr	r3, [r7, #4]
 8006016:	3b01      	subs	r3, #1
 8006018:	607b      	str	r3, [r7, #4]
 800601a:	687b      	ldr	r3, [r7, #4]
 800601c:	2b01      	cmp	r3, #1
 800601e:	d825      	bhi.n	800606c <dec_lock+0x60>
		n = Files[i].ctr;
 8006020:	4a17      	ldr	r2, [pc, #92]	; (8006080 <dec_lock+0x74>)
 8006022:	687b      	ldr	r3, [r7, #4]
 8006024:	011b      	lsls	r3, r3, #4
 8006026:	4413      	add	r3, r2
 8006028:	330c      	adds	r3, #12
 800602a:	881b      	ldrh	r3, [r3, #0]
 800602c:	81fb      	strh	r3, [r7, #14]
		if (n == 0x100) n = 0;		/* If write mode open, delete the entry */
 800602e:	89fb      	ldrh	r3, [r7, #14]
 8006030:	f5b3 7f80 	cmp.w	r3, #256	; 0x100
 8006034:	d101      	bne.n	800603a <dec_lock+0x2e>
 8006036:	2300      	movs	r3, #0
 8006038:	81fb      	strh	r3, [r7, #14]
		if (n > 0) n--;				/* Decrement read mode open count */
 800603a:	89fb      	ldrh	r3, [r7, #14]
 800603c:	2b00      	cmp	r3, #0
 800603e:	d002      	beq.n	8006046 <dec_lock+0x3a>
 8006040:	89fb      	ldrh	r3, [r7, #14]
 8006042:	3b01      	subs	r3, #1
 8006044:	81fb      	strh	r3, [r7, #14]
		Files[i].ctr = n;
 8006046:	4a0e      	ldr	r2, [pc, #56]	; (8006080 <dec_lock+0x74>)
 8006048:	687b      	ldr	r3, [r7, #4]
 800604a:	011b      	lsls	r3, r3, #4
 800604c:	4413      	add	r3, r2
 800604e:	330c      	adds	r3, #12
 8006050:	89fa      	ldrh	r2, [r7, #14]
 8006052:	801a      	strh	r2, [r3, #0]
		if (n == 0) Files[i].fs = 0;	/* Delete the entry if open count gets zero */
 8006054:	89fb      	ldrh	r3, [r7, #14]
 8006056:	2b00      	cmp	r3, #0
 8006058:	d105      	bne.n	8006066 <dec_lock+0x5a>
 800605a:	4a09      	ldr	r2, [pc, #36]	; (8006080 <dec_lock+0x74>)
 800605c:	687b      	ldr	r3, [r7, #4]
 800605e:	011b      	lsls	r3, r3, #4
 8006060:	4413      	add	r3, r2
 8006062:	2200      	movs	r2, #0
 8006064:	601a      	str	r2, [r3, #0]
		res = FR_OK;
 8006066:	2300      	movs	r3, #0
 8006068:	737b      	strb	r3, [r7, #13]
 800606a:	e001      	b.n	8006070 <dec_lock+0x64>
	} else {
		res = FR_INT_ERR;			/* Invalid index nunber */
 800606c:	2302      	movs	r3, #2
 800606e:	737b      	strb	r3, [r7, #13]
	}
	return res;
 8006070:	7b7b      	ldrb	r3, [r7, #13]
}
 8006072:	4618      	mov	r0, r3
 8006074:	3714      	adds	r7, #20
 8006076:	46bd      	mov	sp, r7
 8006078:	f85d 7b04 	ldr.w	r7, [sp], #4
 800607c:	4770      	bx	lr
 800607e:	bf00      	nop
 8006080:	20000720 	.word	0x20000720

08006084 <clear_lock>:

static
void clear_lock (	/* Clear lock entries of the volume */
	FATFS *fs
)
{
 8006084:	b480      	push	{r7}
 8006086:	b085      	sub	sp, #20
 8006088:	af00      	add	r7, sp, #0
 800608a:	6078      	str	r0, [r7, #4]
	UINT i;

	for (i = 0; i < _FS_LOCK; i++) {
 800608c:	2300      	movs	r3, #0
 800608e:	60fb      	str	r3, [r7, #12]
 8006090:	e010      	b.n	80060b4 <clear_lock+0x30>
		if (Files[i].fs == fs) Files[i].fs = 0;
 8006092:	4a0d      	ldr	r2, [pc, #52]	; (80060c8 <clear_lock+0x44>)
 8006094:	68fb      	ldr	r3, [r7, #12]
 8006096:	011b      	lsls	r3, r3, #4
 8006098:	4413      	add	r3, r2
 800609a:	681b      	ldr	r3, [r3, #0]
 800609c:	687a      	ldr	r2, [r7, #4]
 800609e:	429a      	cmp	r2, r3
 80060a0:	d105      	bne.n	80060ae <clear_lock+0x2a>
 80060a2:	4a09      	ldr	r2, [pc, #36]	; (80060c8 <clear_lock+0x44>)
 80060a4:	68fb      	ldr	r3, [r7, #12]
 80060a6:	011b      	lsls	r3, r3, #4
 80060a8:	4413      	add	r3, r2
 80060aa:	2200      	movs	r2, #0
 80060ac:	601a      	str	r2, [r3, #0]
	for (i = 0; i < _FS_LOCK; i++) {
 80060ae:	68fb      	ldr	r3, [r7, #12]
 80060b0:	3301      	adds	r3, #1
 80060b2:	60fb      	str	r3, [r7, #12]
 80060b4:	68fb      	ldr	r3, [r7, #12]
 80060b6:	2b01      	cmp	r3, #1
 80060b8:	d9eb      	bls.n	8006092 <clear_lock+0xe>
	}
}
 80060ba:	bf00      	nop
 80060bc:	3714      	adds	r7, #20
 80060be:	46bd      	mov	sp, r7
 80060c0:	f85d 7b04 	ldr.w	r7, [sp], #4
 80060c4:	4770      	bx	lr
 80060c6:	bf00      	nop
 80060c8:	20000720 	.word	0x20000720

080060cc <sync_window>:
#if !_FS_READONLY
static
FRESULT sync_window (	/* Returns FR_OK or FR_DISK_ERROR */
	FATFS* fs			/* File system object */
)
{
 80060cc:	b580      	push	{r7, lr}
 80060ce:	b086      	sub	sp, #24
 80060d0:	af00      	add	r7, sp, #0
 80060d2:	6078      	str	r0, [r7, #4]
	DWORD wsect;
	UINT nf;
	FRESULT res = FR_OK;
 80060d4:	2300      	movs	r3, #0
 80060d6:	73fb      	strb	r3, [r7, #15]


	if (fs->wflag) {	/* Write back the sector if it is dirty */
 80060d8:	687b      	ldr	r3, [r7, #4]
 80060da:	78db      	ldrb	r3, [r3, #3]
 80060dc:	2b00      	cmp	r3, #0
 80060de:	d034      	beq.n	800614a <sync_window+0x7e>
		wsect = fs->winsect;	/* Current sector number */
 80060e0:	687b      	ldr	r3, [r7, #4]
 80060e2:	6adb      	ldr	r3, [r3, #44]	; 0x2c
 80060e4:	617b      	str	r3, [r7, #20]
		if (disk_write(fs->drv, fs->win, wsect, 1) != RES_OK) {
 80060e6:	687b      	ldr	r3, [r7, #4]
 80060e8:	7858      	ldrb	r0, [r3, #1]
 80060ea:	687b      	ldr	r3, [r7, #4]
 80060ec:	f103 0130 	add.w	r1, r3, #48	; 0x30
 80060f0:	2301      	movs	r3, #1
 80060f2:	697a      	ldr	r2, [r7, #20]
 80060f4:	f7ff fd40 	bl	8005b78 <disk_write>
 80060f8:	4603      	mov	r3, r0
 80060fa:	2b00      	cmp	r3, #0
 80060fc:	d002      	beq.n	8006104 <sync_window+0x38>
			res = FR_DISK_ERR;
 80060fe:	2301      	movs	r3, #1
 8006100:	73fb      	strb	r3, [r7, #15]
 8006102:	e022      	b.n	800614a <sync_window+0x7e>
		} else {
			fs->wflag = 0;
 8006104:	687b      	ldr	r3, [r7, #4]
 8006106:	2200      	movs	r2, #0
 8006108:	70da      	strb	r2, [r3, #3]
			if (wsect - fs->fatbase < fs->fsize) {		/* Is it in the FAT area? */
 800610a:	687b      	ldr	r3, [r7, #4]
 800610c:	6a1b      	ldr	r3, [r3, #32]
 800610e:	697a      	ldr	r2, [r7, #20]
 8006110:	1ad2      	subs	r2, r2, r3
 8006112:	687b      	ldr	r3, [r7, #4]
 8006114:	699b      	ldr	r3, [r3, #24]
 8006116:	429a      	cmp	r2, r3
 8006118:	d217      	bcs.n	800614a <sync_window+0x7e>
				for (nf = fs->n_fats; nf >= 2; nf--) {	/* Reflect the change to all FAT copies */
 800611a:	687b      	ldr	r3, [r7, #4]
 800611c:	789b      	ldrb	r3, [r3, #2]
 800611e:	613b      	str	r3, [r7, #16]
 8006120:	e010      	b.n	8006144 <sync_window+0x78>
					wsect += fs->fsize;
 8006122:	687b      	ldr	r3, [r7, #4]
 8006124:	699b      	ldr	r3, [r3, #24]
 8006126:	697a      	ldr	r2, [r7, #20]
 8006128:	4413      	add	r3, r2
 800612a:	617b      	str	r3, [r7, #20]
					disk_write(fs->drv, fs->win, wsect, 1);
 800612c:	687b      	ldr	r3, [r7, #4]
 800612e:	7858      	ldrb	r0, [r3, #1]
 8006130:	687b      	ldr	r3, [r7, #4]
 8006132:	f103 0130 	add.w	r1, r3, #48	; 0x30
 8006136:	2301      	movs	r3, #1
 8006138:	697a      	ldr	r2, [r7, #20]
 800613a:	f7ff fd1d 	bl	8005b78 <disk_write>
				for (nf = fs->n_fats; nf >= 2; nf--) {	/* Reflect the change to all FAT copies */
 800613e:	693b      	ldr	r3, [r7, #16]
 8006140:	3b01      	subs	r3, #1
 8006142:	613b      	str	r3, [r7, #16]
 8006144:	693b      	ldr	r3, [r7, #16]
 8006146:	2b01      	cmp	r3, #1
 8006148:	d8eb      	bhi.n	8006122 <sync_window+0x56>
				}
			}
		}
	}
	return res;
 800614a:	7bfb      	ldrb	r3, [r7, #15]
}
 800614c:	4618      	mov	r0, r3
 800614e:	3718      	adds	r7, #24
 8006150:	46bd      	mov	sp, r7
 8006152:	bd80      	pop	{r7, pc}

08006154 <move_window>:
static
FRESULT move_window (	/* Returns FR_OK or FR_DISK_ERROR */
	FATFS* fs,			/* File system object */
	DWORD sector		/* Sector number to make appearance in the fs->win[] */
)
{
 8006154:	b580      	push	{r7, lr}
 8006156:	b084      	sub	sp, #16
 8006158:	af00      	add	r7, sp, #0
 800615a:	6078      	str	r0, [r7, #4]
 800615c:	6039      	str	r1, [r7, #0]
	FRESULT res = FR_OK;
 800615e:	2300      	movs	r3, #0
 8006160:	73fb      	strb	r3, [r7, #15]


	if (sector != fs->winsect) {	/* Window offset changed? */
 8006162:	687b      	ldr	r3, [r7, #4]
 8006164:	6adb      	ldr	r3, [r3, #44]	; 0x2c
 8006166:	683a      	ldr	r2, [r7, #0]
 8006168:	429a      	cmp	r2, r3
 800616a:	d01b      	beq.n	80061a4 <move_window+0x50>
#if !_FS_READONLY
		res = sync_window(fs);		/* Write-back changes */
 800616c:	6878      	ldr	r0, [r7, #4]
 800616e:	f7ff ffad 	bl	80060cc <sync_window>
 8006172:	4603      	mov	r3, r0
 8006174:	73fb      	strb	r3, [r7, #15]
#endif
		if (res == FR_OK) {			/* Fill sector window with new data */
 8006176:	7bfb      	ldrb	r3, [r7, #15]
 8006178:	2b00      	cmp	r3, #0
 800617a:	d113      	bne.n	80061a4 <move_window+0x50>
			if (disk_read(fs->drv, fs->win, sector, 1) != RES_OK) {
 800617c:	687b      	ldr	r3, [r7, #4]
 800617e:	7858      	ldrb	r0, [r3, #1]
 8006180:	687b      	ldr	r3, [r7, #4]
 8006182:	f103 0130 	add.w	r1, r3, #48	; 0x30
 8006186:	2301      	movs	r3, #1
 8006188:	683a      	ldr	r2, [r7, #0]
 800618a:	f7ff fcd5 	bl	8005b38 <disk_read>
 800618e:	4603      	mov	r3, r0
 8006190:	2b00      	cmp	r3, #0
 8006192:	d004      	beq.n	800619e <move_window+0x4a>
				sector = 0xFFFFFFFF;	/* Invalidate window if data is not reliable */
 8006194:	f04f 33ff 	mov.w	r3, #4294967295
 8006198:	603b      	str	r3, [r7, #0]
				res = FR_DISK_ERR;
 800619a:	2301      	movs	r3, #1
 800619c:	73fb      	strb	r3, [r7, #15]
			}
			fs->winsect = sector;
 800619e:	687b      	ldr	r3, [r7, #4]
 80061a0:	683a      	ldr	r2, [r7, #0]
 80061a2:	62da      	str	r2, [r3, #44]	; 0x2c
		}
	}
	return res;
 80061a4:	7bfb      	ldrb	r3, [r7, #15]
}
 80061a6:	4618      	mov	r0, r3
 80061a8:	3710      	adds	r7, #16
 80061aa:	46bd      	mov	sp, r7
 80061ac:	bd80      	pop	{r7, pc}
	...

080061b0 <sync_fs>:

static
FRESULT sync_fs (	/* FR_OK:succeeded, !=0:error */
	FATFS* fs		/* File system object */
)
{
 80061b0:	b580      	push	{r7, lr}
 80061b2:	b084      	sub	sp, #16
 80061b4:	af00      	add	r7, sp, #0
 80061b6:	6078      	str	r0, [r7, #4]
	FRESULT res;


	res = sync_window(fs);
 80061b8:	6878      	ldr	r0, [r7, #4]
 80061ba:	f7ff ff87 	bl	80060cc <sync_window>
 80061be:	4603      	mov	r3, r0
 80061c0:	73fb      	strb	r3, [r7, #15]
	if (res == FR_OK) {
 80061c2:	7bfb      	ldrb	r3, [r7, #15]
 80061c4:	2b00      	cmp	r3, #0
 80061c6:	d158      	bne.n	800627a <sync_fs+0xca>
		/* Update FSInfo sector if needed */
		if (fs->fs_type == FS_FAT32 && fs->fsi_flag == 1) {
 80061c8:	687b      	ldr	r3, [r7, #4]
 80061ca:	781b      	ldrb	r3, [r3, #0]
 80061cc:	2b03      	cmp	r3, #3
 80061ce:	d148      	bne.n	8006262 <sync_fs+0xb2>
 80061d0:	687b      	ldr	r3, [r7, #4]
 80061d2:	791b      	ldrb	r3, [r3, #4]
 80061d4:	2b01      	cmp	r3, #1
 80061d6:	d144      	bne.n	8006262 <sync_fs+0xb2>
			/* Create FSInfo structure */
			mem_set(fs->win, 0, SS(fs));
 80061d8:	687b      	ldr	r3, [r7, #4]
 80061da:	3330      	adds	r3, #48	; 0x30
 80061dc:	f44f 7200 	mov.w	r2, #512	; 0x200
 80061e0:	2100      	movs	r1, #0
 80061e2:	4618      	mov	r0, r3
 80061e4:	f7ff fda9 	bl	8005d3a <mem_set>
			st_word(fs->win + BS_55AA, 0xAA55);
 80061e8:	687b      	ldr	r3, [r7, #4]
 80061ea:	3330      	adds	r3, #48	; 0x30
 80061ec:	f503 73ff 	add.w	r3, r3, #510	; 0x1fe
 80061f0:	f64a 2155 	movw	r1, #43605	; 0xaa55
 80061f4:	4618      	mov	r0, r3
 80061f6:	f7ff fd38 	bl	8005c6a <st_word>
			st_dword(fs->win + FSI_LeadSig, 0x41615252);
 80061fa:	687b      	ldr	r3, [r7, #4]
 80061fc:	3330      	adds	r3, #48	; 0x30
 80061fe:	4921      	ldr	r1, [pc, #132]	; (8006284 <sync_fs+0xd4>)
 8006200:	4618      	mov	r0, r3
 8006202:	f7ff fd4d 	bl	8005ca0 <st_dword>
			st_dword(fs->win + FSI_StrucSig, 0x61417272);
 8006206:	687b      	ldr	r3, [r7, #4]
 8006208:	3330      	adds	r3, #48	; 0x30
 800620a:	f503 73f2 	add.w	r3, r3, #484	; 0x1e4
 800620e:	491e      	ldr	r1, [pc, #120]	; (8006288 <sync_fs+0xd8>)
 8006210:	4618      	mov	r0, r3
 8006212:	f7ff fd45 	bl	8005ca0 <st_dword>
			st_dword(fs->win + FSI_Free_Count, fs->free_clst);
 8006216:	687b      	ldr	r3, [r7, #4]
 8006218:	3330      	adds	r3, #48	; 0x30
 800621a:	f503 72f4 	add.w	r2, r3, #488	; 0x1e8
 800621e:	687b      	ldr	r3, [r7, #4]
 8006220:	691b      	ldr	r3, [r3, #16]
 8006222:	4619      	mov	r1, r3
 8006224:	4610      	mov	r0, r2
 8006226:	f7ff fd3b 	bl	8005ca0 <st_dword>
			st_dword(fs->win + FSI_Nxt_Free, fs->last_clst);
 800622a:	687b      	ldr	r3, [r7, #4]
 800622c:	3330      	adds	r3, #48	; 0x30
 800622e:	f503 72f6 	add.w	r2, r3, #492	; 0x1ec
 8006232:	687b      	ldr	r3, [r7, #4]
 8006234:	68db      	ldr	r3, [r3, #12]
 8006236:	4619      	mov	r1, r3
 8006238:	4610      	mov	r0, r2
 800623a:	f7ff fd31 	bl	8005ca0 <st_dword>
			/* Write it into the FSInfo sector */
			fs->winsect = fs->volbase + 1;
 800623e:	687b      	ldr	r3, [r7, #4]
 8006240:	69db      	ldr	r3, [r3, #28]
 8006242:	1c5a      	adds	r2, r3, #1
 8006244:	687b      	ldr	r3, [r7, #4]
 8006246:	62da      	str	r2, [r3, #44]	; 0x2c
			disk_write(fs->drv, fs->win, fs->winsect, 1);
 8006248:	687b      	ldr	r3, [r7, #4]
 800624a:	7858      	ldrb	r0, [r3, #1]
 800624c:	687b      	ldr	r3, [r7, #4]
 800624e:	f103 0130 	add.w	r1, r3, #48	; 0x30
 8006252:	687b      	ldr	r3, [r7, #4]
 8006254:	6ada      	ldr	r2, [r3, #44]	; 0x2c
 8006256:	2301      	movs	r3, #1
 8006258:	f7ff fc8e 	bl	8005b78 <disk_write>
			fs->fsi_flag = 0;
 800625c:	687b      	ldr	r3, [r7, #4]
 800625e:	2200      	movs	r2, #0
 8006260:	711a      	strb	r2, [r3, #4]
		}
		/* Make sure that no pending write process in the physical drive */
		if (disk_ioctl(fs->drv, CTRL_SYNC, 0) != RES_OK) res = FR_DISK_ERR;
 8006262:	687b      	ldr	r3, [r7, #4]
 8006264:	785b      	ldrb	r3, [r3, #1]
 8006266:	2200      	movs	r2, #0
 8006268:	2100      	movs	r1, #0
 800626a:	4618      	mov	r0, r3
 800626c:	f7ff fca4 	bl	8005bb8 <disk_ioctl>
 8006270:	4603      	mov	r3, r0
 8006272:	2b00      	cmp	r3, #0
 8006274:	d001      	beq.n	800627a <sync_fs+0xca>
 8006276:	2301      	movs	r3, #1
 8006278:	73fb      	strb	r3, [r7, #15]
	}

	return res;
 800627a:	7bfb      	ldrb	r3, [r7, #15]
}
 800627c:	4618      	mov	r0, r3
 800627e:	3710      	adds	r7, #16
 8006280:	46bd      	mov	sp, r7
 8006282:	bd80      	pop	{r7, pc}
 8006284:	41615252 	.word	0x41615252
 8006288:	61417272 	.word	0x61417272

0800628c <clust2sect>:
static
DWORD clust2sect (	/* !=0:Sector number, 0:Failed (invalid cluster#) */
	FATFS* fs,		/* File system object */
	DWORD clst		/* Cluster# to be converted */
)
{
 800628c:	b480      	push	{r7}
 800628e:	b083      	sub	sp, #12
 8006290:	af00      	add	r7, sp, #0
 8006292:	6078      	str	r0, [r7, #4]
 8006294:	6039      	str	r1, [r7, #0]
	clst -= 2;
 8006296:	683b      	ldr	r3, [r7, #0]
 8006298:	3b02      	subs	r3, #2
 800629a:	603b      	str	r3, [r7, #0]
	if (clst >= fs->n_fatent - 2) return 0;		/* Invalid cluster# */
 800629c:	687b      	ldr	r3, [r7, #4]
 800629e:	695b      	ldr	r3, [r3, #20]
 80062a0:	3b02      	subs	r3, #2
 80062a2:	683a      	ldr	r2, [r7, #0]
 80062a4:	429a      	cmp	r2, r3
 80062a6:	d301      	bcc.n	80062ac <clust2sect+0x20>
 80062a8:	2300      	movs	r3, #0
 80062aa:	e008      	b.n	80062be <clust2sect+0x32>
	return clst * fs->csize + fs->database;
 80062ac:	687b      	ldr	r3, [r7, #4]
 80062ae:	895b      	ldrh	r3, [r3, #10]
 80062b0:	461a      	mov	r2, r3
 80062b2:	683b      	ldr	r3, [r7, #0]
 80062b4:	fb03 f202 	mul.w	r2, r3, r2
 80062b8:	687b      	ldr	r3, [r7, #4]
 80062ba:	6a9b      	ldr	r3, [r3, #40]	; 0x28
 80062bc:	4413      	add	r3, r2
}
 80062be:	4618      	mov	r0, r3
 80062c0:	370c      	adds	r7, #12
 80062c2:	46bd      	mov	sp, r7
 80062c4:	f85d 7b04 	ldr.w	r7, [sp], #4
 80062c8:	4770      	bx	lr

080062ca <get_fat>:
static
DWORD get_fat (	/* 0xFFFFFFFF:Disk error, 1:Internal error, 2..0x7FFFFFFF:Cluster status */
	_FDID* obj,	/* Corresponding object */
	DWORD clst	/* Cluster number to get the value */
)
{
 80062ca:	b580      	push	{r7, lr}
 80062cc:	b086      	sub	sp, #24
 80062ce:	af00      	add	r7, sp, #0
 80062d0:	6078      	str	r0, [r7, #4]
 80062d2:	6039      	str	r1, [r7, #0]
	UINT wc, bc;
	DWORD val;
	FATFS *fs = obj->fs;
 80062d4:	687b      	ldr	r3, [r7, #4]
 80062d6:	681b      	ldr	r3, [r3, #0]
 80062d8:	613b      	str	r3, [r7, #16]


	if (clst < 2 || clst >= fs->n_fatent) {	/* Check if in valid range */
 80062da:	683b      	ldr	r3, [r7, #0]
 80062dc:	2b01      	cmp	r3, #1
 80062de:	d904      	bls.n	80062ea <get_fat+0x20>
 80062e0:	693b      	ldr	r3, [r7, #16]
 80062e2:	695b      	ldr	r3, [r3, #20]
 80062e4:	683a      	ldr	r2, [r7, #0]
 80062e6:	429a      	cmp	r2, r3
 80062e8:	d302      	bcc.n	80062f0 <get_fat+0x26>
		val = 1;	/* Internal error */
 80062ea:	2301      	movs	r3, #1
 80062ec:	617b      	str	r3, [r7, #20]
 80062ee:	e08c      	b.n	800640a <get_fat+0x140>

	} else {
		val = 0xFFFFFFFF;	/* Default value falls on disk error */
 80062f0:	f04f 33ff 	mov.w	r3, #4294967295
 80062f4:	617b      	str	r3, [r7, #20]

		switch (fs->fs_type) {
 80062f6:	693b      	ldr	r3, [r7, #16]
 80062f8:	781b      	ldrb	r3, [r3, #0]
 80062fa:	2b02      	cmp	r3, #2
 80062fc:	d045      	beq.n	800638a <get_fat+0xc0>
 80062fe:	2b03      	cmp	r3, #3
 8006300:	d05d      	beq.n	80063be <get_fat+0xf4>
 8006302:	2b01      	cmp	r3, #1
 8006304:	d177      	bne.n	80063f6 <get_fat+0x12c>
		case FS_FAT12 :
			bc = (UINT)clst; bc += bc / 2;
 8006306:	683b      	ldr	r3, [r7, #0]
 8006308:	60fb      	str	r3, [r7, #12]
 800630a:	68fb      	ldr	r3, [r7, #12]
 800630c:	085b      	lsrs	r3, r3, #1
 800630e:	68fa      	ldr	r2, [r7, #12]
 8006310:	4413      	add	r3, r2
 8006312:	60fb      	str	r3, [r7, #12]
			if (move_window(fs, fs->fatbase + (bc / SS(fs))) != FR_OK) break;
 8006314:	693b      	ldr	r3, [r7, #16]
 8006316:	6a1a      	ldr	r2, [r3, #32]
 8006318:	68fb      	ldr	r3, [r7, #12]
 800631a:	0a5b      	lsrs	r3, r3, #9
 800631c:	4413      	add	r3, r2
 800631e:	4619      	mov	r1, r3
 8006320:	6938      	ldr	r0, [r7, #16]
 8006322:	f7ff ff17 	bl	8006154 <move_window>
 8006326:	4603      	mov	r3, r0
 8006328:	2b00      	cmp	r3, #0
 800632a:	d167      	bne.n	80063fc <get_fat+0x132>
			wc = fs->win[bc++ % SS(fs)];
 800632c:	68fb      	ldr	r3, [r7, #12]
 800632e:	1c5a      	adds	r2, r3, #1
 8006330:	60fa      	str	r2, [r7, #12]
 8006332:	f3c3 0308 	ubfx	r3, r3, #0, #9
 8006336:	693a      	ldr	r2, [r7, #16]
 8006338:	4413      	add	r3, r2
 800633a:	f893 3030 	ldrb.w	r3, [r3, #48]	; 0x30
 800633e:	60bb      	str	r3, [r7, #8]
			if (move_window(fs, fs->fatbase + (bc / SS(fs))) != FR_OK) break;
 8006340:	693b      	ldr	r3, [r7, #16]
 8006342:	6a1a      	ldr	r2, [r3, #32]
 8006344:	68fb      	ldr	r3, [r7, #12]
 8006346:	0a5b      	lsrs	r3, r3, #9
 8006348:	4413      	add	r3, r2
 800634a:	4619      	mov	r1, r3
 800634c:	6938      	ldr	r0, [r7, #16]
 800634e:	f7ff ff01 	bl	8006154 <move_window>
 8006352:	4603      	mov	r3, r0
 8006354:	2b00      	cmp	r3, #0
 8006356:	d153      	bne.n	8006400 <get_fat+0x136>
			wc |= fs->win[bc % SS(fs)] << 8;
 8006358:	68fb      	ldr	r3, [r7, #12]
 800635a:	f3c3 0308 	ubfx	r3, r3, #0, #9
 800635e:	693a      	ldr	r2, [r7, #16]
 8006360:	4413      	add	r3, r2
 8006362:	f893 3030 	ldrb.w	r3, [r3, #48]	; 0x30
 8006366:	021b      	lsls	r3, r3, #8
 8006368:	461a      	mov	r2, r3
 800636a:	68bb      	ldr	r3, [r7, #8]
 800636c:	4313      	orrs	r3, r2
 800636e:	60bb      	str	r3, [r7, #8]
			val = (clst & 1) ? (wc >> 4) : (wc & 0xFFF);
 8006370:	683b      	ldr	r3, [r7, #0]
 8006372:	f003 0301 	and.w	r3, r3, #1
 8006376:	2b00      	cmp	r3, #0
 8006378:	d002      	beq.n	8006380 <get_fat+0xb6>
 800637a:	68bb      	ldr	r3, [r7, #8]
 800637c:	091b      	lsrs	r3, r3, #4
 800637e:	e002      	b.n	8006386 <get_fat+0xbc>
 8006380:	68bb      	ldr	r3, [r7, #8]
 8006382:	f3c3 030b 	ubfx	r3, r3, #0, #12
 8006386:	617b      	str	r3, [r7, #20]
			break;
 8006388:	e03f      	b.n	800640a <get_fat+0x140>

		case FS_FAT16 :
			if (move_window(fs, fs->fatbase + (clst / (SS(fs) / 2))) != FR_OK) break;
 800638a:	693b      	ldr	r3, [r7, #16]
 800638c:	6a1a      	ldr	r2, [r3, #32]
 800638e:	683b      	ldr	r3, [r7, #0]
 8006390:	0a1b      	lsrs	r3, r3, #8
 8006392:	4413      	add	r3, r2
 8006394:	4619      	mov	r1, r3
 8006396:	6938      	ldr	r0, [r7, #16]
 8006398:	f7ff fedc 	bl	8006154 <move_window>
 800639c:	4603      	mov	r3, r0
 800639e:	2b00      	cmp	r3, #0
 80063a0:	d130      	bne.n	8006404 <get_fat+0x13a>
			val = ld_word(fs->win + clst * 2 % SS(fs));
 80063a2:	693b      	ldr	r3, [r7, #16]
 80063a4:	f103 0230 	add.w	r2, r3, #48	; 0x30
 80063a8:	683b      	ldr	r3, [r7, #0]
 80063aa:	005b      	lsls	r3, r3, #1
 80063ac:	f403 73ff 	and.w	r3, r3, #510	; 0x1fe
 80063b0:	4413      	add	r3, r2
 80063b2:	4618      	mov	r0, r3
 80063b4:	f7ff fc1e 	bl	8005bf4 <ld_word>
 80063b8:	4603      	mov	r3, r0
 80063ba:	617b      	str	r3, [r7, #20]
			break;
 80063bc:	e025      	b.n	800640a <get_fat+0x140>

		case FS_FAT32 :
			if (move_window(fs, fs->fatbase + (clst / (SS(fs) / 4))) != FR_OK) break;
 80063be:	693b      	ldr	r3, [r7, #16]
 80063c0:	6a1a      	ldr	r2, [r3, #32]
 80063c2:	683b      	ldr	r3, [r7, #0]
 80063c4:	09db      	lsrs	r3, r3, #7
 80063c6:	4413      	add	r3, r2
 80063c8:	4619      	mov	r1, r3
 80063ca:	6938      	ldr	r0, [r7, #16]
 80063cc:	f7ff fec2 	bl	8006154 <move_window>
 80063d0:	4603      	mov	r3, r0
 80063d2:	2b00      	cmp	r3, #0
 80063d4:	d118      	bne.n	8006408 <get_fat+0x13e>
			val = ld_dword(fs->win + clst * 4 % SS(fs)) & 0x0FFFFFFF;
 80063d6:	693b      	ldr	r3, [r7, #16]
 80063d8:	f103 0230 	add.w	r2, r3, #48	; 0x30
 80063dc:	683b      	ldr	r3, [r7, #0]
 80063de:	009b      	lsls	r3, r3, #2
 80063e0:	f403 73fe 	and.w	r3, r3, #508	; 0x1fc
 80063e4:	4413      	add	r3, r2
 80063e6:	4618      	mov	r0, r3
 80063e8:	f7ff fc1c 	bl	8005c24 <ld_dword>
 80063ec:	4603      	mov	r3, r0
 80063ee:	f023 4370 	bic.w	r3, r3, #4026531840	; 0xf0000000
 80063f2:	617b      	str	r3, [r7, #20]
			break;
 80063f4:	e009      	b.n	800640a <get_fat+0x140>
				}
			}
			/* go to default */
#endif
		default:
			val = 1;	/* Internal error */
 80063f6:	2301      	movs	r3, #1
 80063f8:	617b      	str	r3, [r7, #20]
 80063fa:	e006      	b.n	800640a <get_fat+0x140>
			if (move_window(fs, fs->fatbase + (bc / SS(fs))) != FR_OK) break;
 80063fc:	bf00      	nop
 80063fe:	e004      	b.n	800640a <get_fat+0x140>
			if (move_window(fs, fs->fatbase + (bc / SS(fs))) != FR_OK) break;
 8006400:	bf00      	nop
 8006402:	e002      	b.n	800640a <get_fat+0x140>
			if (move_window(fs, fs->fatbase + (clst / (SS(fs) / 2))) != FR_OK) break;
 8006404:	bf00      	nop
 8006406:	e000      	b.n	800640a <get_fat+0x140>
			if (move_window(fs, fs->fatbase + (clst / (SS(fs) / 4))) != FR_OK) break;
 8006408:	bf00      	nop
		}
	}

	return val;
 800640a:	697b      	ldr	r3, [r7, #20]
}
 800640c:	4618      	mov	r0, r3
 800640e:	3718      	adds	r7, #24
 8006410:	46bd      	mov	sp, r7
 8006412:	bd80      	pop	{r7, pc}

08006414 <put_fat>:
FRESULT put_fat (	/* FR_OK(0):succeeded, !=0:error */
	FATFS* fs,		/* Corresponding file system object */
	DWORD clst,		/* FAT index number (cluster number) to be changed */
	DWORD val		/* New value to be set to the entry */
)
{
 8006414:	b590      	push	{r4, r7, lr}
 8006416:	b089      	sub	sp, #36	; 0x24
 8006418:	af00      	add	r7, sp, #0
 800641a:	60f8      	str	r0, [r7, #12]
 800641c:	60b9      	str	r1, [r7, #8]
 800641e:	607a      	str	r2, [r7, #4]
	UINT bc;
	BYTE *p;
	FRESULT res = FR_INT_ERR;
 8006420:	2302      	movs	r3, #2
 8006422:	77fb      	strb	r3, [r7, #31]

	if (clst >= 2 && clst < fs->n_fatent) {	/* Check if in valid range */
 8006424:	68bb      	ldr	r3, [r7, #8]
 8006426:	2b01      	cmp	r3, #1
 8006428:	f240 80d6 	bls.w	80065d8 <put_fat+0x1c4>
 800642c:	68fb      	ldr	r3, [r7, #12]
 800642e:	695b      	ldr	r3, [r3, #20]
 8006430:	68ba      	ldr	r2, [r7, #8]
 8006432:	429a      	cmp	r2, r3
 8006434:	f080 80d0 	bcs.w	80065d8 <put_fat+0x1c4>
		switch (fs->fs_type) {
 8006438:	68fb      	ldr	r3, [r7, #12]
 800643a:	781b      	ldrb	r3, [r3, #0]
 800643c:	2b02      	cmp	r3, #2
 800643e:	d073      	beq.n	8006528 <put_fat+0x114>
 8006440:	2b03      	cmp	r3, #3
 8006442:	f000 8091 	beq.w	8006568 <put_fat+0x154>
 8006446:	2b01      	cmp	r3, #1
 8006448:	f040 80c6 	bne.w	80065d8 <put_fat+0x1c4>
		case FS_FAT12 :	/* Bitfield items */
			bc = (UINT)clst; bc += bc / 2;
 800644c:	68bb      	ldr	r3, [r7, #8]
 800644e:	61bb      	str	r3, [r7, #24]
 8006450:	69bb      	ldr	r3, [r7, #24]
 8006452:	085b      	lsrs	r3, r3, #1
 8006454:	69ba      	ldr	r2, [r7, #24]
 8006456:	4413      	add	r3, r2
 8006458:	61bb      	str	r3, [r7, #24]
			res = move_window(fs, fs->fatbase + (bc / SS(fs)));
 800645a:	68fb      	ldr	r3, [r7, #12]
 800645c:	6a1a      	ldr	r2, [r3, #32]
 800645e:	69bb      	ldr	r3, [r7, #24]
 8006460:	0a5b      	lsrs	r3, r3, #9
 8006462:	4413      	add	r3, r2
 8006464:	4619      	mov	r1, r3
 8006466:	68f8      	ldr	r0, [r7, #12]
 8006468:	f7ff fe74 	bl	8006154 <move_window>
 800646c:	4603      	mov	r3, r0
 800646e:	77fb      	strb	r3, [r7, #31]
			if (res != FR_OK) break;
 8006470:	7ffb      	ldrb	r3, [r7, #31]
 8006472:	2b00      	cmp	r3, #0
 8006474:	f040 80a9 	bne.w	80065ca <put_fat+0x1b6>
			p = fs->win + bc++ % SS(fs);
 8006478:	68fb      	ldr	r3, [r7, #12]
 800647a:	f103 0230 	add.w	r2, r3, #48	; 0x30
 800647e:	69bb      	ldr	r3, [r7, #24]
 8006480:	1c59      	adds	r1, r3, #1
 8006482:	61b9      	str	r1, [r7, #24]
 8006484:	f3c3 0308 	ubfx	r3, r3, #0, #9
 8006488:	4413      	add	r3, r2
 800648a:	617b      	str	r3, [r7, #20]
			*p = (clst & 1) ? ((*p & 0x0F) | ((BYTE)val << 4)) : (BYTE)val;
 800648c:	68bb      	ldr	r3, [r7, #8]
 800648e:	f003 0301 	and.w	r3, r3, #1
 8006492:	2b00      	cmp	r3, #0
 8006494:	d00d      	beq.n	80064b2 <put_fat+0x9e>
 8006496:	697b      	ldr	r3, [r7, #20]
 8006498:	781b      	ldrb	r3, [r3, #0]
 800649a:	b25b      	sxtb	r3, r3
 800649c:	f003 030f 	and.w	r3, r3, #15
 80064a0:	b25a      	sxtb	r2, r3
 80064a2:	687b      	ldr	r3, [r7, #4]
 80064a4:	b2db      	uxtb	r3, r3
 80064a6:	011b      	lsls	r3, r3, #4
 80064a8:	b25b      	sxtb	r3, r3
 80064aa:	4313      	orrs	r3, r2
 80064ac:	b25b      	sxtb	r3, r3
 80064ae:	b2db      	uxtb	r3, r3
 80064b0:	e001      	b.n	80064b6 <put_fat+0xa2>
 80064b2:	687b      	ldr	r3, [r7, #4]
 80064b4:	b2db      	uxtb	r3, r3
 80064b6:	697a      	ldr	r2, [r7, #20]
 80064b8:	7013      	strb	r3, [r2, #0]
			fs->wflag = 1;
 80064ba:	68fb      	ldr	r3, [r7, #12]
 80064bc:	2201      	movs	r2, #1
 80064be:	70da      	strb	r2, [r3, #3]
			res = move_window(fs, fs->fatbase + (bc / SS(fs)));
 80064c0:	68fb      	ldr	r3, [r7, #12]
 80064c2:	6a1a      	ldr	r2, [r3, #32]
 80064c4:	69bb      	ldr	r3, [r7, #24]
 80064c6:	0a5b      	lsrs	r3, r3, #9
 80064c8:	4413      	add	r3, r2
 80064ca:	4619      	mov	r1, r3
 80064cc:	68f8      	ldr	r0, [r7, #12]
 80064ce:	f7ff fe41 	bl	8006154 <move_window>
 80064d2:	4603      	mov	r3, r0
 80064d4:	77fb      	strb	r3, [r7, #31]
			if (res != FR_OK) break;
 80064d6:	7ffb      	ldrb	r3, [r7, #31]
 80064d8:	2b00      	cmp	r3, #0
 80064da:	d178      	bne.n	80065ce <put_fat+0x1ba>
			p = fs->win + bc % SS(fs);
 80064dc:	68fb      	ldr	r3, [r7, #12]
 80064de:	f103 0230 	add.w	r2, r3, #48	; 0x30
 80064e2:	69bb      	ldr	r3, [r7, #24]
 80064e4:	f3c3 0308 	ubfx	r3, r3, #0, #9
 80064e8:	4413      	add	r3, r2
 80064ea:	617b      	str	r3, [r7, #20]
			*p = (clst & 1) ? (BYTE)(val >> 4) : ((*p & 0xF0) | ((BYTE)(val >> 8) & 0x0F));
 80064ec:	68bb      	ldr	r3, [r7, #8]
 80064ee:	f003 0301 	and.w	r3, r3, #1
 80064f2:	2b00      	cmp	r3, #0
 80064f4:	d003      	beq.n	80064fe <put_fat+0xea>
 80064f6:	687b      	ldr	r3, [r7, #4]
 80064f8:	091b      	lsrs	r3, r3, #4
 80064fa:	b2db      	uxtb	r3, r3
 80064fc:	e00e      	b.n	800651c <put_fat+0x108>
 80064fe:	697b      	ldr	r3, [r7, #20]
 8006500:	781b      	ldrb	r3, [r3, #0]
 8006502:	b25b      	sxtb	r3, r3
 8006504:	f023 030f 	bic.w	r3, r3, #15
 8006508:	b25a      	sxtb	r2, r3
 800650a:	687b      	ldr	r3, [r7, #4]
 800650c:	0a1b      	lsrs	r3, r3, #8
 800650e:	b25b      	sxtb	r3, r3
 8006510:	f003 030f 	and.w	r3, r3, #15
 8006514:	b25b      	sxtb	r3, r3
 8006516:	4313      	orrs	r3, r2
 8006518:	b25b      	sxtb	r3, r3
 800651a:	b2db      	uxtb	r3, r3
 800651c:	697a      	ldr	r2, [r7, #20]
 800651e:	7013      	strb	r3, [r2, #0]
			fs->wflag = 1;
 8006520:	68fb      	ldr	r3, [r7, #12]
 8006522:	2201      	movs	r2, #1
 8006524:	70da      	strb	r2, [r3, #3]
			break;
 8006526:	e057      	b.n	80065d8 <put_fat+0x1c4>

		case FS_FAT16 :	/* WORD aligned items */
			res = move_window(fs, fs->fatbase + (clst / (SS(fs) / 2)));
 8006528:	68fb      	ldr	r3, [r7, #12]
 800652a:	6a1a      	ldr	r2, [r3, #32]
 800652c:	68bb      	ldr	r3, [r7, #8]
 800652e:	0a1b      	lsrs	r3, r3, #8
 8006530:	4413      	add	r3, r2
 8006532:	4619      	mov	r1, r3
 8006534:	68f8      	ldr	r0, [r7, #12]
 8006536:	f7ff fe0d 	bl	8006154 <move_window>
 800653a:	4603      	mov	r3, r0
 800653c:	77fb      	strb	r3, [r7, #31]
			if (res != FR_OK) break;
 800653e:	7ffb      	ldrb	r3, [r7, #31]
 8006540:	2b00      	cmp	r3, #0
 8006542:	d146      	bne.n	80065d2 <put_fat+0x1be>
			st_word(fs->win + clst * 2 % SS(fs), (WORD)val);
 8006544:	68fb      	ldr	r3, [r7, #12]
 8006546:	f103 0230 	add.w	r2, r3, #48	; 0x30
 800654a:	68bb      	ldr	r3, [r7, #8]
 800654c:	005b      	lsls	r3, r3, #1
 800654e:	f403 73ff 	and.w	r3, r3, #510	; 0x1fe
 8006552:	4413      	add	r3, r2
 8006554:	687a      	ldr	r2, [r7, #4]
 8006556:	b292      	uxth	r2, r2
 8006558:	4611      	mov	r1, r2
 800655a:	4618      	mov	r0, r3
 800655c:	f7ff fb85 	bl	8005c6a <st_word>
			fs->wflag = 1;
 8006560:	68fb      	ldr	r3, [r7, #12]
 8006562:	2201      	movs	r2, #1
 8006564:	70da      	strb	r2, [r3, #3]
			break;
 8006566:	e037      	b.n	80065d8 <put_fat+0x1c4>

		case FS_FAT32 :	/* DWORD aligned items */
#if _FS_EXFAT
		case FS_EXFAT :
#endif
			res = move_window(fs, fs->fatbase + (clst / (SS(fs) / 4)));
 8006568:	68fb      	ldr	r3, [r7, #12]
 800656a:	6a1a      	ldr	r2, [r3, #32]
 800656c:	68bb      	ldr	r3, [r7, #8]
 800656e:	09db      	lsrs	r3, r3, #7
 8006570:	4413      	add	r3, r2
 8006572:	4619      	mov	r1, r3
 8006574:	68f8      	ldr	r0, [r7, #12]
 8006576:	f7ff fded 	bl	8006154 <move_window>
 800657a:	4603      	mov	r3, r0
 800657c:	77fb      	strb	r3, [r7, #31]
			if (res != FR_OK) break;
 800657e:	7ffb      	ldrb	r3, [r7, #31]
 8006580:	2b00      	cmp	r3, #0
 8006582:	d128      	bne.n	80065d6 <put_fat+0x1c2>
			if (!_FS_EXFAT || fs->fs_type != FS_EXFAT) {
				val = (val & 0x0FFFFFFF) | (ld_dword(fs->win + clst * 4 % SS(fs)) & 0xF0000000);
 8006584:	687b      	ldr	r3, [r7, #4]
 8006586:	f023 4470 	bic.w	r4, r3, #4026531840	; 0xf0000000
 800658a:	68fb      	ldr	r3, [r7, #12]
 800658c:	f103 0230 	add.w	r2, r3, #48	; 0x30
 8006590:	68bb      	ldr	r3, [r7, #8]
 8006592:	009b      	lsls	r3, r3, #2
 8006594:	f403 73fe 	and.w	r3, r3, #508	; 0x1fc
 8006598:	4413      	add	r3, r2
 800659a:	4618      	mov	r0, r3
 800659c:	f7ff fb42 	bl	8005c24 <ld_dword>
 80065a0:	4603      	mov	r3, r0
 80065a2:	f003 4370 	and.w	r3, r3, #4026531840	; 0xf0000000
 80065a6:	4323      	orrs	r3, r4
 80065a8:	607b      	str	r3, [r7, #4]
			}
			st_dword(fs->win + clst * 4 % SS(fs), val);
 80065aa:	68fb      	ldr	r3, [r7, #12]
 80065ac:	f103 0230 	add.w	r2, r3, #48	; 0x30
 80065b0:	68bb      	ldr	r3, [r7, #8]
 80065b2:	009b      	lsls	r3, r3, #2
 80065b4:	f403 73fe 	and.w	r3, r3, #508	; 0x1fc
 80065b8:	4413      	add	r3, r2
 80065ba:	6879      	ldr	r1, [r7, #4]
 80065bc:	4618      	mov	r0, r3
 80065be:	f7ff fb6f 	bl	8005ca0 <st_dword>
			fs->wflag = 1;
 80065c2:	68fb      	ldr	r3, [r7, #12]
 80065c4:	2201      	movs	r2, #1
 80065c6:	70da      	strb	r2, [r3, #3]
			break;
 80065c8:	e006      	b.n	80065d8 <put_fat+0x1c4>
			if (res != FR_OK) break;
 80065ca:	bf00      	nop
 80065cc:	e004      	b.n	80065d8 <put_fat+0x1c4>
			if (res != FR_OK) break;
 80065ce:	bf00      	nop
 80065d0:	e002      	b.n	80065d8 <put_fat+0x1c4>
			if (res != FR_OK) break;
 80065d2:	bf00      	nop
 80065d4:	e000      	b.n	80065d8 <put_fat+0x1c4>
			if (res != FR_OK) break;
 80065d6:	bf00      	nop
		}
	}
	return res;
 80065d8:	7ffb      	ldrb	r3, [r7, #31]
}
 80065da:	4618      	mov	r0, r3
 80065dc:	3724      	adds	r7, #36	; 0x24
 80065de:	46bd      	mov	sp, r7
 80065e0:	bd90      	pop	{r4, r7, pc}

080065e2 <remove_chain>:
FRESULT remove_chain (	/* FR_OK(0):succeeded, !=0:error */
	_FDID* obj,			/* Corresponding object */
	DWORD clst,			/* Cluster to remove a chain from */
	DWORD pclst			/* Previous cluster of clst (0:an entire chain) */
)
{
 80065e2:	b580      	push	{r7, lr}
 80065e4:	b088      	sub	sp, #32
 80065e6:	af00      	add	r7, sp, #0
 80065e8:	60f8      	str	r0, [r7, #12]
 80065ea:	60b9      	str	r1, [r7, #8]
 80065ec:	607a      	str	r2, [r7, #4]
	FRESULT res = FR_OK;
 80065ee:	2300      	movs	r3, #0
 80065f0:	77fb      	strb	r3, [r7, #31]
	DWORD nxt;
	FATFS *fs = obj->fs;
 80065f2:	68fb      	ldr	r3, [r7, #12]
 80065f4:	681b      	ldr	r3, [r3, #0]
 80065f6:	61bb      	str	r3, [r7, #24]
#endif
#if _USE_TRIM
	DWORD rt[2];
#endif

	if (clst < 2 || clst >= fs->n_fatent) return FR_INT_ERR;	/* Check if in valid range */
 80065f8:	68bb      	ldr	r3, [r7, #8]
 80065fa:	2b01      	cmp	r3, #1
 80065fc:	d904      	bls.n	8006608 <remove_chain+0x26>
 80065fe:	69bb      	ldr	r3, [r7, #24]
 8006600:	695b      	ldr	r3, [r3, #20]
 8006602:	68ba      	ldr	r2, [r7, #8]
 8006604:	429a      	cmp	r2, r3
 8006606:	d301      	bcc.n	800660c <remove_chain+0x2a>
 8006608:	2302      	movs	r3, #2
 800660a:	e04b      	b.n	80066a4 <remove_chain+0xc2>

	/* Mark the previous cluster 'EOC' on the FAT if it exists */
	if (pclst && (!_FS_EXFAT || fs->fs_type != FS_EXFAT || obj->stat != 2)) {
 800660c:	687b      	ldr	r3, [r7, #4]
 800660e:	2b00      	cmp	r3, #0
 8006610:	d00c      	beq.n	800662c <remove_chain+0x4a>
		res = put_fat(fs, pclst, 0xFFFFFFFF);
 8006612:	f04f 32ff 	mov.w	r2, #4294967295
 8006616:	6879      	ldr	r1, [r7, #4]
 8006618:	69b8      	ldr	r0, [r7, #24]
 800661a:	f7ff fefb 	bl	8006414 <put_fat>
 800661e:	4603      	mov	r3, r0
 8006620:	77fb      	strb	r3, [r7, #31]
		if (res != FR_OK) return res;
 8006622:	7ffb      	ldrb	r3, [r7, #31]
 8006624:	2b00      	cmp	r3, #0
 8006626:	d001      	beq.n	800662c <remove_chain+0x4a>
 8006628:	7ffb      	ldrb	r3, [r7, #31]
 800662a:	e03b      	b.n	80066a4 <remove_chain+0xc2>
	}

	/* Remove the chain */
	do {
		nxt = get_fat(obj, clst);			/* Get cluster status */
 800662c:	68b9      	ldr	r1, [r7, #8]
 800662e:	68f8      	ldr	r0, [r7, #12]
 8006630:	f7ff fe4b 	bl	80062ca <get_fat>
 8006634:	6178      	str	r0, [r7, #20]
		if (nxt == 0) break;				/* Empty cluster? */
 8006636:	697b      	ldr	r3, [r7, #20]
 8006638:	2b00      	cmp	r3, #0
 800663a:	d031      	beq.n	80066a0 <remove_chain+0xbe>
		if (nxt == 1) return FR_INT_ERR;	/* Internal error? */
 800663c:	697b      	ldr	r3, [r7, #20]
 800663e:	2b01      	cmp	r3, #1
 8006640:	d101      	bne.n	8006646 <remove_chain+0x64>
 8006642:	2302      	movs	r3, #2
 8006644:	e02e      	b.n	80066a4 <remove_chain+0xc2>
		if (nxt == 0xFFFFFFFF) return FR_DISK_ERR;	/* Disk error? */
 8006646:	697b      	ldr	r3, [r7, #20]
 8006648:	f1b3 3fff 	cmp.w	r3, #4294967295
 800664c:	d101      	bne.n	8006652 <remove_chain+0x70>
 800664e:	2301      	movs	r3, #1
 8006650:	e028      	b.n	80066a4 <remove_chain+0xc2>
		if (!_FS_EXFAT || fs->fs_type != FS_EXFAT) {
			res = put_fat(fs, clst, 0);		/* Mark the cluster 'free' on the FAT */
 8006652:	2200      	movs	r2, #0
 8006654:	68b9      	ldr	r1, [r7, #8]
 8006656:	69b8      	ldr	r0, [r7, #24]
 8006658:	f7ff fedc 	bl	8006414 <put_fat>
 800665c:	4603      	mov	r3, r0
 800665e:	77fb      	strb	r3, [r7, #31]
			if (res != FR_OK) return res;
 8006660:	7ffb      	ldrb	r3, [r7, #31]
 8006662:	2b00      	cmp	r3, #0
 8006664:	d001      	beq.n	800666a <remove_chain+0x88>
 8006666:	7ffb      	ldrb	r3, [r7, #31]
 8006668:	e01c      	b.n	80066a4 <remove_chain+0xc2>
		}
		if (fs->free_clst < fs->n_fatent - 2) {	/* Update FSINFO */
 800666a:	69bb      	ldr	r3, [r7, #24]
 800666c:	691a      	ldr	r2, [r3, #16]
 800666e:	69bb      	ldr	r3, [r7, #24]
 8006670:	695b      	ldr	r3, [r3, #20]
 8006672:	3b02      	subs	r3, #2
 8006674:	429a      	cmp	r2, r3
 8006676:	d20b      	bcs.n	8006690 <remove_chain+0xae>
			fs->free_clst++;
 8006678:	69bb      	ldr	r3, [r7, #24]
 800667a:	691b      	ldr	r3, [r3, #16]
 800667c:	1c5a      	adds	r2, r3, #1
 800667e:	69bb      	ldr	r3, [r7, #24]
 8006680:	611a      	str	r2, [r3, #16]
			fs->fsi_flag |= 1;
 8006682:	69bb      	ldr	r3, [r7, #24]
 8006684:	791b      	ldrb	r3, [r3, #4]
 8006686:	f043 0301 	orr.w	r3, r3, #1
 800668a:	b2da      	uxtb	r2, r3
 800668c:	69bb      	ldr	r3, [r7, #24]
 800668e:	711a      	strb	r2, [r3, #4]
			disk_ioctl(fs->drv, CTRL_TRIM, rt);				/* Inform device the block can be erased */
#endif
			scl = ecl = nxt;
		}
#endif
		clst = nxt;					/* Next cluster */
 8006690:	697b      	ldr	r3, [r7, #20]
 8006692:	60bb      	str	r3, [r7, #8]
	} while (clst < fs->n_fatent);	/* Repeat while not the last link */
 8006694:	69bb      	ldr	r3, [r7, #24]
 8006696:	695b      	ldr	r3, [r3, #20]
 8006698:	68ba      	ldr	r2, [r7, #8]
 800669a:	429a      	cmp	r2, r3
 800669c:	d3c6      	bcc.n	800662c <remove_chain+0x4a>
 800669e:	e000      	b.n	80066a2 <remove_chain+0xc0>
		if (nxt == 0) break;				/* Empty cluster? */
 80066a0:	bf00      	nop
				obj->stat = 2;	/* Change the object status 'contiguous' */
			}
		}
	}
#endif
	return FR_OK;
 80066a2:	2300      	movs	r3, #0
}
 80066a4:	4618      	mov	r0, r3
 80066a6:	3720      	adds	r7, #32
 80066a8:	46bd      	mov	sp, r7
 80066aa:	bd80      	pop	{r7, pc}

080066ac <create_chain>:
static
DWORD create_chain (	/* 0:No free cluster, 1:Internal error, 0xFFFFFFFF:Disk error, >=2:New cluster# */
	_FDID* obj,			/* Corresponding object */
	DWORD clst			/* Cluster# to stretch, 0:Create a new chain */
)
{
 80066ac:	b580      	push	{r7, lr}
 80066ae:	b088      	sub	sp, #32
 80066b0:	af00      	add	r7, sp, #0
 80066b2:	6078      	str	r0, [r7, #4]
 80066b4:	6039      	str	r1, [r7, #0]
	DWORD cs, ncl, scl;
	FRESULT res;
	FATFS *fs = obj->fs;
 80066b6:	687b      	ldr	r3, [r7, #4]
 80066b8:	681b      	ldr	r3, [r3, #0]
 80066ba:	613b      	str	r3, [r7, #16]


	if (clst == 0) {	/* Create a new chain */
 80066bc:	683b      	ldr	r3, [r7, #0]
 80066be:	2b00      	cmp	r3, #0
 80066c0:	d10d      	bne.n	80066de <create_chain+0x32>
		scl = fs->last_clst;				/* Get suggested cluster to start from */
 80066c2:	693b      	ldr	r3, [r7, #16]
 80066c4:	68db      	ldr	r3, [r3, #12]
 80066c6:	61bb      	str	r3, [r7, #24]
		if (scl == 0 || scl >= fs->n_fatent) scl = 1;
 80066c8:	69bb      	ldr	r3, [r7, #24]
 80066ca:	2b00      	cmp	r3, #0
 80066cc:	d004      	beq.n	80066d8 <create_chain+0x2c>
 80066ce:	693b      	ldr	r3, [r7, #16]
 80066d0:	695b      	ldr	r3, [r3, #20]
 80066d2:	69ba      	ldr	r2, [r7, #24]
 80066d4:	429a      	cmp	r2, r3
 80066d6:	d31b      	bcc.n	8006710 <create_chain+0x64>
 80066d8:	2301      	movs	r3, #1
 80066da:	61bb      	str	r3, [r7, #24]
 80066dc:	e018      	b.n	8006710 <create_chain+0x64>
	}
	else {				/* Stretch current chain */
		cs = get_fat(obj, clst);			/* Check the cluster status */
 80066de:	6839      	ldr	r1, [r7, #0]
 80066e0:	6878      	ldr	r0, [r7, #4]
 80066e2:	f7ff fdf2 	bl	80062ca <get_fat>
 80066e6:	60f8      	str	r0, [r7, #12]
		if (cs < 2) return 1;				/* Invalid FAT value */
 80066e8:	68fb      	ldr	r3, [r7, #12]
 80066ea:	2b01      	cmp	r3, #1
 80066ec:	d801      	bhi.n	80066f2 <create_chain+0x46>
 80066ee:	2301      	movs	r3, #1
 80066f0:	e070      	b.n	80067d4 <create_chain+0x128>
		if (cs == 0xFFFFFFFF) return cs;	/* A disk error occurred */
 80066f2:	68fb      	ldr	r3, [r7, #12]
 80066f4:	f1b3 3fff 	cmp.w	r3, #4294967295
 80066f8:	d101      	bne.n	80066fe <create_chain+0x52>
 80066fa:	68fb      	ldr	r3, [r7, #12]
 80066fc:	e06a      	b.n	80067d4 <create_chain+0x128>
		if (cs < fs->n_fatent) return cs;	/* It is already followed by next cluster */
 80066fe:	693b      	ldr	r3, [r7, #16]
 8006700:	695b      	ldr	r3, [r3, #20]
 8006702:	68fa      	ldr	r2, [r7, #12]
 8006704:	429a      	cmp	r2, r3
 8006706:	d201      	bcs.n	800670c <create_chain+0x60>
 8006708:	68fb      	ldr	r3, [r7, #12]
 800670a:	e063      	b.n	80067d4 <create_chain+0x128>
		scl = clst;
 800670c:	683b      	ldr	r3, [r7, #0]
 800670e:	61bb      	str	r3, [r7, #24]
			}
		}
	} else
#endif
	{	/* On the FAT12/16/32 volume */
		ncl = scl;	/* Start cluster */
 8006710:	69bb      	ldr	r3, [r7, #24]
 8006712:	61fb      	str	r3, [r7, #28]
		for (;;) {
			ncl++;							/* Next cluster */
 8006714:	69fb      	ldr	r3, [r7, #28]
 8006716:	3301      	adds	r3, #1
 8006718:	61fb      	str	r3, [r7, #28]
			if (ncl >= fs->n_fatent) {		/* Check wrap-around */
 800671a:	693b      	ldr	r3, [r7, #16]
 800671c:	695b      	ldr	r3, [r3, #20]
 800671e:	69fa      	ldr	r2, [r7, #28]
 8006720:	429a      	cmp	r2, r3
 8006722:	d307      	bcc.n	8006734 <create_chain+0x88>
				ncl = 2;
 8006724:	2302      	movs	r3, #2
 8006726:	61fb      	str	r3, [r7, #28]
				if (ncl > scl) return 0;	/* No free cluster */
 8006728:	69fa      	ldr	r2, [r7, #28]
 800672a:	69bb      	ldr	r3, [r7, #24]
 800672c:	429a      	cmp	r2, r3
 800672e:	d901      	bls.n	8006734 <create_chain+0x88>
 8006730:	2300      	movs	r3, #0
 8006732:	e04f      	b.n	80067d4 <create_chain+0x128>
			}
			cs = get_fat(obj, ncl);			/* Get the cluster status */
 8006734:	69f9      	ldr	r1, [r7, #28]
 8006736:	6878      	ldr	r0, [r7, #4]
 8006738:	f7ff fdc7 	bl	80062ca <get_fat>
 800673c:	60f8      	str	r0, [r7, #12]
			if (cs == 0) break;				/* Found a free cluster */
 800673e:	68fb      	ldr	r3, [r7, #12]
 8006740:	2b00      	cmp	r3, #0
 8006742:	d00e      	beq.n	8006762 <create_chain+0xb6>
			if (cs == 1 || cs == 0xFFFFFFFF) return cs;	/* An error occurred */
 8006744:	68fb      	ldr	r3, [r7, #12]
 8006746:	2b01      	cmp	r3, #1
 8006748:	d003      	beq.n	8006752 <create_chain+0xa6>
 800674a:	68fb      	ldr	r3, [r7, #12]
 800674c:	f1b3 3fff 	cmp.w	r3, #4294967295
 8006750:	d101      	bne.n	8006756 <create_chain+0xaa>
 8006752:	68fb      	ldr	r3, [r7, #12]
 8006754:	e03e      	b.n	80067d4 <create_chain+0x128>
			if (ncl == scl) return 0;		/* No free cluster */
 8006756:	69fa      	ldr	r2, [r7, #28]
 8006758:	69bb      	ldr	r3, [r7, #24]
 800675a:	429a      	cmp	r2, r3
 800675c:	d1da      	bne.n	8006714 <create_chain+0x68>
 800675e:	2300      	movs	r3, #0
 8006760:	e038      	b.n	80067d4 <create_chain+0x128>
			if (cs == 0) break;				/* Found a free cluster */
 8006762:	bf00      	nop
		}
		res = put_fat(fs, ncl, 0xFFFFFFFF);	/* Mark the new cluster 'EOC' */
 8006764:	f04f 32ff 	mov.w	r2, #4294967295
 8006768:	69f9      	ldr	r1, [r7, #28]
 800676a:	6938      	ldr	r0, [r7, #16]
 800676c:	f7ff fe52 	bl	8006414 <put_fat>
 8006770:	4603      	mov	r3, r0
 8006772:	75fb      	strb	r3, [r7, #23]
		if (res == FR_OK && clst != 0) {
 8006774:	7dfb      	ldrb	r3, [r7, #23]
 8006776:	2b00      	cmp	r3, #0
 8006778:	d109      	bne.n	800678e <create_chain+0xe2>
 800677a:	683b      	ldr	r3, [r7, #0]
 800677c:	2b00      	cmp	r3, #0
 800677e:	d006      	beq.n	800678e <create_chain+0xe2>
			res = put_fat(fs, clst, ncl);	/* Link it from the previous one if needed */
 8006780:	69fa      	ldr	r2, [r7, #28]
 8006782:	6839      	ldr	r1, [r7, #0]
 8006784:	6938      	ldr	r0, [r7, #16]
 8006786:	f7ff fe45 	bl	8006414 <put_fat>
 800678a:	4603      	mov	r3, r0
 800678c:	75fb      	strb	r3, [r7, #23]
		}
	}

	if (res == FR_OK) {			/* Update FSINFO if function succeeded. */
 800678e:	7dfb      	ldrb	r3, [r7, #23]
 8006790:	2b00      	cmp	r3, #0
 8006792:	d116      	bne.n	80067c2 <create_chain+0x116>
		fs->last_clst = ncl;
 8006794:	693b      	ldr	r3, [r7, #16]
 8006796:	69fa      	ldr	r2, [r7, #28]
 8006798:	60da      	str	r2, [r3, #12]
		if (fs->free_clst <= fs->n_fatent - 2) fs->free_clst--;
 800679a:	693b      	ldr	r3, [r7, #16]
 800679c:	691a      	ldr	r2, [r3, #16]
 800679e:	693b      	ldr	r3, [r7, #16]
 80067a0:	695b      	ldr	r3, [r3, #20]
 80067a2:	3b02      	subs	r3, #2
 80067a4:	429a      	cmp	r2, r3
 80067a6:	d804      	bhi.n	80067b2 <create_chain+0x106>
 80067a8:	693b      	ldr	r3, [r7, #16]
 80067aa:	691b      	ldr	r3, [r3, #16]
 80067ac:	1e5a      	subs	r2, r3, #1
 80067ae:	693b      	ldr	r3, [r7, #16]
 80067b0:	611a      	str	r2, [r3, #16]
		fs->fsi_flag |= 1;
 80067b2:	693b      	ldr	r3, [r7, #16]
 80067b4:	791b      	ldrb	r3, [r3, #4]
 80067b6:	f043 0301 	orr.w	r3, r3, #1
 80067ba:	b2da      	uxtb	r2, r3
 80067bc:	693b      	ldr	r3, [r7, #16]
 80067be:	711a      	strb	r2, [r3, #4]
 80067c0:	e007      	b.n	80067d2 <create_chain+0x126>
	} else {
		ncl = (res == FR_DISK_ERR) ? 0xFFFFFFFF : 1;	/* Failed. Generate error status */
 80067c2:	7dfb      	ldrb	r3, [r7, #23]
 80067c4:	2b01      	cmp	r3, #1
 80067c6:	d102      	bne.n	80067ce <create_chain+0x122>
 80067c8:	f04f 33ff 	mov.w	r3, #4294967295
 80067cc:	e000      	b.n	80067d0 <create_chain+0x124>
 80067ce:	2301      	movs	r3, #1
 80067d0:	61fb      	str	r3, [r7, #28]
	}

	return ncl;		/* Return new cluster number or error status */
 80067d2:	69fb      	ldr	r3, [r7, #28]
}
 80067d4:	4618      	mov	r0, r3
 80067d6:	3720      	adds	r7, #32
 80067d8:	46bd      	mov	sp, r7
 80067da:	bd80      	pop	{r7, pc}

080067dc <clmt_clust>:
static
DWORD clmt_clust (	/* <2:Error, >=2:Cluster number */
	FIL* fp,		/* Pointer to the file object */
	FSIZE_t ofs		/* File offset to be converted to cluster# */
)
{
 80067dc:	b480      	push	{r7}
 80067de:	b087      	sub	sp, #28
 80067e0:	af00      	add	r7, sp, #0
 80067e2:	6078      	str	r0, [r7, #4]
 80067e4:	6039      	str	r1, [r7, #0]
	DWORD cl, ncl, *tbl;
	FATFS *fs = fp->obj.fs;
 80067e6:	687b      	ldr	r3, [r7, #4]
 80067e8:	681b      	ldr	r3, [r3, #0]
 80067ea:	60fb      	str	r3, [r7, #12]


	tbl = fp->cltbl + 1;	/* Top of CLMT */
 80067ec:	687b      	ldr	r3, [r7, #4]
 80067ee:	6adb      	ldr	r3, [r3, #44]	; 0x2c
 80067f0:	3304      	adds	r3, #4
 80067f2:	613b      	str	r3, [r7, #16]
	cl = (DWORD)(ofs / SS(fs) / fs->csize);	/* Cluster order from top of the file */
 80067f4:	683b      	ldr	r3, [r7, #0]
 80067f6:	0a5b      	lsrs	r3, r3, #9
 80067f8:	68fa      	ldr	r2, [r7, #12]
 80067fa:	8952      	ldrh	r2, [r2, #10]
 80067fc:	fbb3 f3f2 	udiv	r3, r3, r2
 8006800:	617b      	str	r3, [r7, #20]
	for (;;) {
		ncl = *tbl++;			/* Number of cluters in the fragment */
 8006802:	693b      	ldr	r3, [r7, #16]
 8006804:	1d1a      	adds	r2, r3, #4
 8006806:	613a      	str	r2, [r7, #16]
 8006808:	681b      	ldr	r3, [r3, #0]
 800680a:	60bb      	str	r3, [r7, #8]
		if (ncl == 0) return 0;	/* End of table? (error) */
 800680c:	68bb      	ldr	r3, [r7, #8]
 800680e:	2b00      	cmp	r3, #0
 8006810:	d101      	bne.n	8006816 <clmt_clust+0x3a>
 8006812:	2300      	movs	r3, #0
 8006814:	e010      	b.n	8006838 <clmt_clust+0x5c>
		if (cl < ncl) break;	/* In this fragment? */
 8006816:	697a      	ldr	r2, [r7, #20]
 8006818:	68bb      	ldr	r3, [r7, #8]
 800681a:	429a      	cmp	r2, r3
 800681c:	d307      	bcc.n	800682e <clmt_clust+0x52>
		cl -= ncl; tbl++;		/* Next fragment */
 800681e:	697a      	ldr	r2, [r7, #20]
 8006820:	68bb      	ldr	r3, [r7, #8]
 8006822:	1ad3      	subs	r3, r2, r3
 8006824:	617b      	str	r3, [r7, #20]
 8006826:	693b      	ldr	r3, [r7, #16]
 8006828:	3304      	adds	r3, #4
 800682a:	613b      	str	r3, [r7, #16]
		ncl = *tbl++;			/* Number of cluters in the fragment */
 800682c:	e7e9      	b.n	8006802 <clmt_clust+0x26>
		if (cl < ncl) break;	/* In this fragment? */
 800682e:	bf00      	nop
	}
	return cl + *tbl;	/* Return the cluster number */
 8006830:	693b      	ldr	r3, [r7, #16]
 8006832:	681a      	ldr	r2, [r3, #0]
 8006834:	697b      	ldr	r3, [r7, #20]
 8006836:	4413      	add	r3, r2
}
 8006838:	4618      	mov	r0, r3
 800683a:	371c      	adds	r7, #28
 800683c:	46bd      	mov	sp, r7
 800683e:	f85d 7b04 	ldr.w	r7, [sp], #4
 8006842:	4770      	bx	lr

08006844 <dir_sdi>:
static
FRESULT dir_sdi (	/* FR_OK(0):succeeded, !=0:error */
	DIR* dp,		/* Pointer to directory object */
	DWORD ofs		/* Offset of directory table */
)
{
 8006844:	b580      	push	{r7, lr}
 8006846:	b086      	sub	sp, #24
 8006848:	af00      	add	r7, sp, #0
 800684a:	6078      	str	r0, [r7, #4]
 800684c:	6039      	str	r1, [r7, #0]
	DWORD csz, clst;
	FATFS *fs = dp->obj.fs;
 800684e:	687b      	ldr	r3, [r7, #4]
 8006850:	681b      	ldr	r3, [r3, #0]
 8006852:	613b      	str	r3, [r7, #16]


	if (ofs >= (DWORD)((_FS_EXFAT && fs->fs_type == FS_EXFAT) ? MAX_DIR_EX : MAX_DIR) || ofs % SZDIRE) {	/* Check range of offset and alignment */
 8006854:	683b      	ldr	r3, [r7, #0]
 8006856:	f5b3 1f00 	cmp.w	r3, #2097152	; 0x200000
 800685a:	d204      	bcs.n	8006866 <dir_sdi+0x22>
 800685c:	683b      	ldr	r3, [r7, #0]
 800685e:	f003 031f 	and.w	r3, r3, #31
 8006862:	2b00      	cmp	r3, #0
 8006864:	d001      	beq.n	800686a <dir_sdi+0x26>
		return FR_INT_ERR;
 8006866:	2302      	movs	r3, #2
 8006868:	e063      	b.n	8006932 <dir_sdi+0xee>
	}
	dp->dptr = ofs;				/* Set current offset */
 800686a:	687b      	ldr	r3, [r7, #4]
 800686c:	683a      	ldr	r2, [r7, #0]
 800686e:	615a      	str	r2, [r3, #20]
	clst = dp->obj.sclust;		/* Table start cluster (0:root) */
 8006870:	687b      	ldr	r3, [r7, #4]
 8006872:	689b      	ldr	r3, [r3, #8]
 8006874:	617b      	str	r3, [r7, #20]
	if (clst == 0 && fs->fs_type >= FS_FAT32) {	/* Replace cluster# 0 with root cluster# */
 8006876:	697b      	ldr	r3, [r7, #20]
 8006878:	2b00      	cmp	r3, #0
 800687a:	d106      	bne.n	800688a <dir_sdi+0x46>
 800687c:	693b      	ldr	r3, [r7, #16]
 800687e:	781b      	ldrb	r3, [r3, #0]
 8006880:	2b02      	cmp	r3, #2
 8006882:	d902      	bls.n	800688a <dir_sdi+0x46>
		clst = fs->dirbase;
 8006884:	693b      	ldr	r3, [r7, #16]
 8006886:	6a5b      	ldr	r3, [r3, #36]	; 0x24
 8006888:	617b      	str	r3, [r7, #20]
		if (_FS_EXFAT) dp->obj.stat = 0;	/* exFAT: Root dir has an FAT chain */
	}

	if (clst == 0) {	/* Static table (root-directory in FAT12/16) */
 800688a:	697b      	ldr	r3, [r7, #20]
 800688c:	2b00      	cmp	r3, #0
 800688e:	d10c      	bne.n	80068aa <dir_sdi+0x66>
		if (ofs / SZDIRE >= fs->n_rootdir)	return FR_INT_ERR;	/* Is index out of range? */
 8006890:	683b      	ldr	r3, [r7, #0]
 8006892:	095b      	lsrs	r3, r3, #5
 8006894:	693a      	ldr	r2, [r7, #16]
 8006896:	8912      	ldrh	r2, [r2, #8]
 8006898:	4293      	cmp	r3, r2
 800689a:	d301      	bcc.n	80068a0 <dir_sdi+0x5c>
 800689c:	2302      	movs	r3, #2
 800689e:	e048      	b.n	8006932 <dir_sdi+0xee>
		dp->sect = fs->dirbase;
 80068a0:	693b      	ldr	r3, [r7, #16]
 80068a2:	6a5a      	ldr	r2, [r3, #36]	; 0x24
 80068a4:	687b      	ldr	r3, [r7, #4]
 80068a6:	61da      	str	r2, [r3, #28]
 80068a8:	e029      	b.n	80068fe <dir_sdi+0xba>

	} else {			/* Dynamic table (sub-directory or root-directory in FAT32+) */
		csz = (DWORD)fs->csize * SS(fs);	/* Bytes per cluster */
 80068aa:	693b      	ldr	r3, [r7, #16]
 80068ac:	895b      	ldrh	r3, [r3, #10]
 80068ae:	025b      	lsls	r3, r3, #9
 80068b0:	60fb      	str	r3, [r7, #12]
		while (ofs >= csz) {				/* Follow cluster chain */
 80068b2:	e019      	b.n	80068e8 <dir_sdi+0xa4>
			clst = get_fat(&dp->obj, clst);				/* Get next cluster */
 80068b4:	687b      	ldr	r3, [r7, #4]
 80068b6:	6979      	ldr	r1, [r7, #20]
 80068b8:	4618      	mov	r0, r3
 80068ba:	f7ff fd06 	bl	80062ca <get_fat>
 80068be:	6178      	str	r0, [r7, #20]
			if (clst == 0xFFFFFFFF) return FR_DISK_ERR;	/* Disk error */
 80068c0:	697b      	ldr	r3, [r7, #20]
 80068c2:	f1b3 3fff 	cmp.w	r3, #4294967295
 80068c6:	d101      	bne.n	80068cc <dir_sdi+0x88>
 80068c8:	2301      	movs	r3, #1
 80068ca:	e032      	b.n	8006932 <dir_sdi+0xee>
			if (clst < 2 || clst >= fs->n_fatent) return FR_INT_ERR;	/* Reached to end of table or internal error */
 80068cc:	697b      	ldr	r3, [r7, #20]
 80068ce:	2b01      	cmp	r3, #1
 80068d0:	d904      	bls.n	80068dc <dir_sdi+0x98>
 80068d2:	693b      	ldr	r3, [r7, #16]
 80068d4:	695b      	ldr	r3, [r3, #20]
 80068d6:	697a      	ldr	r2, [r7, #20]
 80068d8:	429a      	cmp	r2, r3
 80068da:	d301      	bcc.n	80068e0 <dir_sdi+0x9c>
 80068dc:	2302      	movs	r3, #2
 80068de:	e028      	b.n	8006932 <dir_sdi+0xee>
			ofs -= csz;
 80068e0:	683a      	ldr	r2, [r7, #0]
 80068e2:	68fb      	ldr	r3, [r7, #12]
 80068e4:	1ad3      	subs	r3, r2, r3
 80068e6:	603b      	str	r3, [r7, #0]
		while (ofs >= csz) {				/* Follow cluster chain */
 80068e8:	683a      	ldr	r2, [r7, #0]
 80068ea:	68fb      	ldr	r3, [r7, #12]
 80068ec:	429a      	cmp	r2, r3
 80068ee:	d2e1      	bcs.n	80068b4 <dir_sdi+0x70>
		}
		dp->sect = clust2sect(fs, clst);
 80068f0:	6979      	ldr	r1, [r7, #20]
 80068f2:	6938      	ldr	r0, [r7, #16]
 80068f4:	f7ff fcca 	bl	800628c <clust2sect>
 80068f8:	4602      	mov	r2, r0
 80068fa:	687b      	ldr	r3, [r7, #4]
 80068fc:	61da      	str	r2, [r3, #28]
	}
	dp->clust = clst;					/* Current cluster# */
 80068fe:	687b      	ldr	r3, [r7, #4]
 8006900:	697a      	ldr	r2, [r7, #20]
 8006902:	619a      	str	r2, [r3, #24]
	if (!dp->sect) return FR_INT_ERR;
 8006904:	687b      	ldr	r3, [r7, #4]
 8006906:	69db      	ldr	r3, [r3, #28]
 8006908:	2b00      	cmp	r3, #0
 800690a:	d101      	bne.n	8006910 <dir_sdi+0xcc>
 800690c:	2302      	movs	r3, #2
 800690e:	e010      	b.n	8006932 <dir_sdi+0xee>
	dp->sect += ofs / SS(fs);			/* Sector# of the directory entry */
 8006910:	687b      	ldr	r3, [r7, #4]
 8006912:	69da      	ldr	r2, [r3, #28]
 8006914:	683b      	ldr	r3, [r7, #0]
 8006916:	0a5b      	lsrs	r3, r3, #9
 8006918:	441a      	add	r2, r3
 800691a:	687b      	ldr	r3, [r7, #4]
 800691c:	61da      	str	r2, [r3, #28]
	dp->dir = fs->win + (ofs % SS(fs));	/* Pointer to the entry in the win[] */
 800691e:	693b      	ldr	r3, [r7, #16]
 8006920:	f103 0230 	add.w	r2, r3, #48	; 0x30
 8006924:	683b      	ldr	r3, [r7, #0]
 8006926:	f3c3 0308 	ubfx	r3, r3, #0, #9
 800692a:	441a      	add	r2, r3
 800692c:	687b      	ldr	r3, [r7, #4]
 800692e:	621a      	str	r2, [r3, #32]

	return FR_OK;
 8006930:	2300      	movs	r3, #0
}
 8006932:	4618      	mov	r0, r3
 8006934:	3718      	adds	r7, #24
 8006936:	46bd      	mov	sp, r7
 8006938:	bd80      	pop	{r7, pc}

0800693a <dir_next>:
static
FRESULT dir_next (	/* FR_OK(0):succeeded, FR_NO_FILE:End of table, FR_DENIED:Could not stretch */
	DIR* dp,		/* Pointer to the directory object */
	int stretch		/* 0: Do not stretch table, 1: Stretch table if needed */
)
{
 800693a:	b580      	push	{r7, lr}
 800693c:	b086      	sub	sp, #24
 800693e:	af00      	add	r7, sp, #0
 8006940:	6078      	str	r0, [r7, #4]
 8006942:	6039      	str	r1, [r7, #0]
	DWORD ofs, clst;
	FATFS *fs = dp->obj.fs;
 8006944:	687b      	ldr	r3, [r7, #4]
 8006946:	681b      	ldr	r3, [r3, #0]
 8006948:	60fb      	str	r3, [r7, #12]
#if !_FS_READONLY
	UINT n;
#endif

	ofs = dp->dptr + SZDIRE;	/* Next entry */
 800694a:	687b      	ldr	r3, [r7, #4]
 800694c:	695b      	ldr	r3, [r3, #20]
 800694e:	3320      	adds	r3, #32
 8006950:	60bb      	str	r3, [r7, #8]
	if (!dp->sect || ofs >= (DWORD)((_FS_EXFAT && fs->fs_type == FS_EXFAT) ? MAX_DIR_EX : MAX_DIR)) return FR_NO_FILE;	/* Report EOT when offset has reached max value */
 8006952:	687b      	ldr	r3, [r7, #4]
 8006954:	69db      	ldr	r3, [r3, #28]
 8006956:	2b00      	cmp	r3, #0
 8006958:	d003      	beq.n	8006962 <dir_next+0x28>
 800695a:	68bb      	ldr	r3, [r7, #8]
 800695c:	f5b3 1f00 	cmp.w	r3, #2097152	; 0x200000
 8006960:	d301      	bcc.n	8006966 <dir_next+0x2c>
 8006962:	2304      	movs	r3, #4
 8006964:	e0aa      	b.n	8006abc <dir_next+0x182>

	if (ofs % SS(fs) == 0) {	/* Sector changed? */
 8006966:	68bb      	ldr	r3, [r7, #8]
 8006968:	f3c3 0308 	ubfx	r3, r3, #0, #9
 800696c:	2b00      	cmp	r3, #0
 800696e:	f040 8098 	bne.w	8006aa2 <dir_next+0x168>
		dp->sect++;				/* Next sector */
 8006972:	687b      	ldr	r3, [r7, #4]
 8006974:	69db      	ldr	r3, [r3, #28]
 8006976:	1c5a      	adds	r2, r3, #1
 8006978:	687b      	ldr	r3, [r7, #4]
 800697a:	61da      	str	r2, [r3, #28]

		if (!dp->clust) {		/* Static table */
 800697c:	687b      	ldr	r3, [r7, #4]
 800697e:	699b      	ldr	r3, [r3, #24]
 8006980:	2b00      	cmp	r3, #0
 8006982:	d10b      	bne.n	800699c <dir_next+0x62>
			if (ofs / SZDIRE >= fs->n_rootdir) {	/* Report EOT if it reached end of static table */
 8006984:	68bb      	ldr	r3, [r7, #8]
 8006986:	095b      	lsrs	r3, r3, #5
 8006988:	68fa      	ldr	r2, [r7, #12]
 800698a:	8912      	ldrh	r2, [r2, #8]
 800698c:	4293      	cmp	r3, r2
 800698e:	f0c0 8088 	bcc.w	8006aa2 <dir_next+0x168>
				dp->sect = 0; return FR_NO_FILE;
 8006992:	687b      	ldr	r3, [r7, #4]
 8006994:	2200      	movs	r2, #0
 8006996:	61da      	str	r2, [r3, #28]
 8006998:	2304      	movs	r3, #4
 800699a:	e08f      	b.n	8006abc <dir_next+0x182>
			}
		}
		else {					/* Dynamic table */
			if ((ofs / SS(fs) & (fs->csize - 1)) == 0) {		/* Cluster changed? */
 800699c:	68bb      	ldr	r3, [r7, #8]
 800699e:	0a5b      	lsrs	r3, r3, #9
 80069a0:	68fa      	ldr	r2, [r7, #12]
 80069a2:	8952      	ldrh	r2, [r2, #10]
 80069a4:	3a01      	subs	r2, #1
 80069a6:	4013      	ands	r3, r2
 80069a8:	2b00      	cmp	r3, #0
 80069aa:	d17a      	bne.n	8006aa2 <dir_next+0x168>
				clst = get_fat(&dp->obj, dp->clust);			/* Get next cluster */
 80069ac:	687a      	ldr	r2, [r7, #4]
 80069ae:	687b      	ldr	r3, [r7, #4]
 80069b0:	699b      	ldr	r3, [r3, #24]
 80069b2:	4619      	mov	r1, r3
 80069b4:	4610      	mov	r0, r2
 80069b6:	f7ff fc88 	bl	80062ca <get_fat>
 80069ba:	6178      	str	r0, [r7, #20]
				if (clst <= 1) return FR_INT_ERR;				/* Internal error */
 80069bc:	697b      	ldr	r3, [r7, #20]
 80069be:	2b01      	cmp	r3, #1
 80069c0:	d801      	bhi.n	80069c6 <dir_next+0x8c>
 80069c2:	2302      	movs	r3, #2
 80069c4:	e07a      	b.n	8006abc <dir_next+0x182>
				if (clst == 0xFFFFFFFF) return FR_DISK_ERR;		/* Disk error */
 80069c6:	697b      	ldr	r3, [r7, #20]
 80069c8:	f1b3 3fff 	cmp.w	r3, #4294967295
 80069cc:	d101      	bne.n	80069d2 <dir_next+0x98>
 80069ce:	2301      	movs	r3, #1
 80069d0:	e074      	b.n	8006abc <dir_next+0x182>
				if (clst >= fs->n_fatent) {						/* Reached end of dynamic table */
 80069d2:	68fb      	ldr	r3, [r7, #12]
 80069d4:	695b      	ldr	r3, [r3, #20]
 80069d6:	697a      	ldr	r2, [r7, #20]
 80069d8:	429a      	cmp	r2, r3
 80069da:	d358      	bcc.n	8006a8e <dir_next+0x154>
#if !_FS_READONLY
					if (!stretch) {								/* If no stretch, report EOT */
 80069dc:	683b      	ldr	r3, [r7, #0]
 80069de:	2b00      	cmp	r3, #0
 80069e0:	d104      	bne.n	80069ec <dir_next+0xb2>
						dp->sect = 0; return FR_NO_FILE;
 80069e2:	687b      	ldr	r3, [r7, #4]
 80069e4:	2200      	movs	r2, #0
 80069e6:	61da      	str	r2, [r3, #28]
 80069e8:	2304      	movs	r3, #4
 80069ea:	e067      	b.n	8006abc <dir_next+0x182>
					}
					clst = create_chain(&dp->obj, dp->clust);	/* Allocate a cluster */
 80069ec:	687a      	ldr	r2, [r7, #4]
 80069ee:	687b      	ldr	r3, [r7, #4]
 80069f0:	699b      	ldr	r3, [r3, #24]
 80069f2:	4619      	mov	r1, r3
 80069f4:	4610      	mov	r0, r2
 80069f6:	f7ff fe59 	bl	80066ac <create_chain>
 80069fa:	6178      	str	r0, [r7, #20]
					if (clst == 0) return FR_DENIED;			/* No free cluster */
 80069fc:	697b      	ldr	r3, [r7, #20]
 80069fe:	2b00      	cmp	r3, #0
 8006a00:	d101      	bne.n	8006a06 <dir_next+0xcc>
 8006a02:	2307      	movs	r3, #7
 8006a04:	e05a      	b.n	8006abc <dir_next+0x182>
					if (clst == 1) return FR_INT_ERR;			/* Internal error */
 8006a06:	697b      	ldr	r3, [r7, #20]
 8006a08:	2b01      	cmp	r3, #1
 8006a0a:	d101      	bne.n	8006a10 <dir_next+0xd6>
 8006a0c:	2302      	movs	r3, #2
 8006a0e:	e055      	b.n	8006abc <dir_next+0x182>
					if (clst == 0xFFFFFFFF) return FR_DISK_ERR;	/* Disk error */
 8006a10:	697b      	ldr	r3, [r7, #20]
 8006a12:	f1b3 3fff 	cmp.w	r3, #4294967295
 8006a16:	d101      	bne.n	8006a1c <dir_next+0xe2>
 8006a18:	2301      	movs	r3, #1
 8006a1a:	e04f      	b.n	8006abc <dir_next+0x182>
					/* Clean-up the stretched table */
					if (_FS_EXFAT) dp->obj.stat |= 4;			/* The directory needs to be updated */
					if (sync_window(fs) != FR_OK) return FR_DISK_ERR;	/* Flush disk access window */
 8006a1c:	68f8      	ldr	r0, [r7, #12]
 8006a1e:	f7ff fb55 	bl	80060cc <sync_window>
 8006a22:	4603      	mov	r3, r0
 8006a24:	2b00      	cmp	r3, #0
 8006a26:	d001      	beq.n	8006a2c <dir_next+0xf2>
 8006a28:	2301      	movs	r3, #1
 8006a2a:	e047      	b.n	8006abc <dir_next+0x182>
					mem_set(fs->win, 0, SS(fs));				/* Clear window buffer */
 8006a2c:	68fb      	ldr	r3, [r7, #12]
 8006a2e:	3330      	adds	r3, #48	; 0x30
 8006a30:	f44f 7200 	mov.w	r2, #512	; 0x200
 8006a34:	2100      	movs	r1, #0
 8006a36:	4618      	mov	r0, r3
 8006a38:	f7ff f97f 	bl	8005d3a <mem_set>
					for (n = 0, fs->winsect = clust2sect(fs, clst); n < fs->csize; n++, fs->winsect++) {	/* Fill the new cluster with 0 */
 8006a3c:	2300      	movs	r3, #0
 8006a3e:	613b      	str	r3, [r7, #16]
 8006a40:	6979      	ldr	r1, [r7, #20]
 8006a42:	68f8      	ldr	r0, [r7, #12]
 8006a44:	f7ff fc22 	bl	800628c <clust2sect>
 8006a48:	4602      	mov	r2, r0
 8006a4a:	68fb      	ldr	r3, [r7, #12]
 8006a4c:	62da      	str	r2, [r3, #44]	; 0x2c
 8006a4e:	e012      	b.n	8006a76 <dir_next+0x13c>
						fs->wflag = 1;
 8006a50:	68fb      	ldr	r3, [r7, #12]
 8006a52:	2201      	movs	r2, #1
 8006a54:	70da      	strb	r2, [r3, #3]
						if (sync_window(fs) != FR_OK) return FR_DISK_ERR;
 8006a56:	68f8      	ldr	r0, [r7, #12]
 8006a58:	f7ff fb38 	bl	80060cc <sync_window>
 8006a5c:	4603      	mov	r3, r0
 8006a5e:	2b00      	cmp	r3, #0
 8006a60:	d001      	beq.n	8006a66 <dir_next+0x12c>
 8006a62:	2301      	movs	r3, #1
 8006a64:	e02a      	b.n	8006abc <dir_next+0x182>
					for (n = 0, fs->winsect = clust2sect(fs, clst); n < fs->csize; n++, fs->winsect++) {	/* Fill the new cluster with 0 */
 8006a66:	693b      	ldr	r3, [r7, #16]
 8006a68:	3301      	adds	r3, #1
 8006a6a:	613b      	str	r3, [r7, #16]
 8006a6c:	68fb      	ldr	r3, [r7, #12]
 8006a6e:	6adb      	ldr	r3, [r3, #44]	; 0x2c
 8006a70:	1c5a      	adds	r2, r3, #1
 8006a72:	68fb      	ldr	r3, [r7, #12]
 8006a74:	62da      	str	r2, [r3, #44]	; 0x2c
 8006a76:	68fb      	ldr	r3, [r7, #12]
 8006a78:	895b      	ldrh	r3, [r3, #10]
 8006a7a:	461a      	mov	r2, r3
 8006a7c:	693b      	ldr	r3, [r7, #16]
 8006a7e:	4293      	cmp	r3, r2
 8006a80:	d3e6      	bcc.n	8006a50 <dir_next+0x116>
					}
					fs->winsect -= n;							/* Restore window offset */
 8006a82:	68fb      	ldr	r3, [r7, #12]
 8006a84:	6ada      	ldr	r2, [r3, #44]	; 0x2c
 8006a86:	693b      	ldr	r3, [r7, #16]
 8006a88:	1ad2      	subs	r2, r2, r3
 8006a8a:	68fb      	ldr	r3, [r7, #12]
 8006a8c:	62da      	str	r2, [r3, #44]	; 0x2c
#else
					if (!stretch) dp->sect = 0;					/* (this line is to suppress compiler warning) */
					dp->sect = 0; return FR_NO_FILE;			/* Report EOT */
#endif
				}
				dp->clust = clst;		/* Initialize data for new cluster */
 8006a8e:	687b      	ldr	r3, [r7, #4]
 8006a90:	697a      	ldr	r2, [r7, #20]
 8006a92:	619a      	str	r2, [r3, #24]
				dp->sect = clust2sect(fs, clst);
 8006a94:	6979      	ldr	r1, [r7, #20]
 8006a96:	68f8      	ldr	r0, [r7, #12]
 8006a98:	f7ff fbf8 	bl	800628c <clust2sect>
 8006a9c:	4602      	mov	r2, r0
 8006a9e:	687b      	ldr	r3, [r7, #4]
 8006aa0:	61da      	str	r2, [r3, #28]
			}
		}
	}
	dp->dptr = ofs;						/* Current entry */
 8006aa2:	687b      	ldr	r3, [r7, #4]
 8006aa4:	68ba      	ldr	r2, [r7, #8]
 8006aa6:	615a      	str	r2, [r3, #20]
	dp->dir = fs->win + ofs % SS(fs);	/* Pointer to the entry in the win[] */
 8006aa8:	68fb      	ldr	r3, [r7, #12]
 8006aaa:	f103 0230 	add.w	r2, r3, #48	; 0x30
 8006aae:	68bb      	ldr	r3, [r7, #8]
 8006ab0:	f3c3 0308 	ubfx	r3, r3, #0, #9
 8006ab4:	441a      	add	r2, r3
 8006ab6:	687b      	ldr	r3, [r7, #4]
 8006ab8:	621a      	str	r2, [r3, #32]

	return FR_OK;
 8006aba:	2300      	movs	r3, #0
}
 8006abc:	4618      	mov	r0, r3
 8006abe:	3718      	adds	r7, #24
 8006ac0:	46bd      	mov	sp, r7
 8006ac2:	bd80      	pop	{r7, pc}

08006ac4 <dir_alloc>:
static
FRESULT dir_alloc (	/* FR_OK(0):succeeded, !=0:error */
	DIR* dp,		/* Pointer to the directory object */
	UINT nent		/* Number of contiguous entries to allocate */
)
{
 8006ac4:	b580      	push	{r7, lr}
 8006ac6:	b086      	sub	sp, #24
 8006ac8:	af00      	add	r7, sp, #0
 8006aca:	6078      	str	r0, [r7, #4]
 8006acc:	6039      	str	r1, [r7, #0]
	FRESULT res;
	UINT n;
	FATFS *fs = dp->obj.fs;
 8006ace:	687b      	ldr	r3, [r7, #4]
 8006ad0:	681b      	ldr	r3, [r3, #0]
 8006ad2:	60fb      	str	r3, [r7, #12]


	res = dir_sdi(dp, 0);
 8006ad4:	2100      	movs	r1, #0
 8006ad6:	6878      	ldr	r0, [r7, #4]
 8006ad8:	f7ff feb4 	bl	8006844 <dir_sdi>
 8006adc:	4603      	mov	r3, r0
 8006ade:	75fb      	strb	r3, [r7, #23]
	if (res == FR_OK) {
 8006ae0:	7dfb      	ldrb	r3, [r7, #23]
 8006ae2:	2b00      	cmp	r3, #0
 8006ae4:	d12b      	bne.n	8006b3e <dir_alloc+0x7a>
		n = 0;
 8006ae6:	2300      	movs	r3, #0
 8006ae8:	613b      	str	r3, [r7, #16]
		do {
			res = move_window(fs, dp->sect);
 8006aea:	687b      	ldr	r3, [r7, #4]
 8006aec:	69db      	ldr	r3, [r3, #28]
 8006aee:	4619      	mov	r1, r3
 8006af0:	68f8      	ldr	r0, [r7, #12]
 8006af2:	f7ff fb2f 	bl	8006154 <move_window>
 8006af6:	4603      	mov	r3, r0
 8006af8:	75fb      	strb	r3, [r7, #23]
			if (res != FR_OK) break;
 8006afa:	7dfb      	ldrb	r3, [r7, #23]
 8006afc:	2b00      	cmp	r3, #0
 8006afe:	d11d      	bne.n	8006b3c <dir_alloc+0x78>
#if _FS_EXFAT
			if ((fs->fs_type == FS_EXFAT) ? (int)((dp->dir[XDIR_Type] & 0x80) == 0) : (int)(dp->dir[DIR_Name] == DDEM || dp->dir[DIR_Name] == 0)) {
#else
			if (dp->dir[DIR_Name] == DDEM || dp->dir[DIR_Name] == 0) {
 8006b00:	687b      	ldr	r3, [r7, #4]
 8006b02:	6a1b      	ldr	r3, [r3, #32]
 8006b04:	781b      	ldrb	r3, [r3, #0]
 8006b06:	2be5      	cmp	r3, #229	; 0xe5
 8006b08:	d004      	beq.n	8006b14 <dir_alloc+0x50>
 8006b0a:	687b      	ldr	r3, [r7, #4]
 8006b0c:	6a1b      	ldr	r3, [r3, #32]
 8006b0e:	781b      	ldrb	r3, [r3, #0]
 8006b10:	2b00      	cmp	r3, #0
 8006b12:	d107      	bne.n	8006b24 <dir_alloc+0x60>
#endif
				if (++n == nent) break;	/* A block of contiguous free entries is found */
 8006b14:	693b      	ldr	r3, [r7, #16]
 8006b16:	3301      	adds	r3, #1
 8006b18:	613b      	str	r3, [r7, #16]
 8006b1a:	693a      	ldr	r2, [r7, #16]
 8006b1c:	683b      	ldr	r3, [r7, #0]
 8006b1e:	429a      	cmp	r2, r3
 8006b20:	d102      	bne.n	8006b28 <dir_alloc+0x64>
 8006b22:	e00c      	b.n	8006b3e <dir_alloc+0x7a>
			} else {
				n = 0;					/* Not a blank entry. Restart to search */
 8006b24:	2300      	movs	r3, #0
 8006b26:	613b      	str	r3, [r7, #16]
			}
			res = dir_next(dp, 1);
 8006b28:	2101      	movs	r1, #1
 8006b2a:	6878      	ldr	r0, [r7, #4]
 8006b2c:	f7ff ff05 	bl	800693a <dir_next>
 8006b30:	4603      	mov	r3, r0
 8006b32:	75fb      	strb	r3, [r7, #23]
		} while (res == FR_OK);	/* Next entry with table stretch enabled */
 8006b34:	7dfb      	ldrb	r3, [r7, #23]
 8006b36:	2b00      	cmp	r3, #0
 8006b38:	d0d7      	beq.n	8006aea <dir_alloc+0x26>
 8006b3a:	e000      	b.n	8006b3e <dir_alloc+0x7a>
			if (res != FR_OK) break;
 8006b3c:	bf00      	nop
	}

	if (res == FR_NO_FILE) res = FR_DENIED;	/* No directory entry to allocate */
 8006b3e:	7dfb      	ldrb	r3, [r7, #23]
 8006b40:	2b04      	cmp	r3, #4
 8006b42:	d101      	bne.n	8006b48 <dir_alloc+0x84>
 8006b44:	2307      	movs	r3, #7
 8006b46:	75fb      	strb	r3, [r7, #23]
	return res;
 8006b48:	7dfb      	ldrb	r3, [r7, #23]
}
 8006b4a:	4618      	mov	r0, r3
 8006b4c:	3718      	adds	r7, #24
 8006b4e:	46bd      	mov	sp, r7
 8006b50:	bd80      	pop	{r7, pc}

08006b52 <ld_clust>:
static
DWORD ld_clust (	/* Returns the top cluster value of the SFN entry */
	FATFS* fs,		/* Pointer to the fs object */
	const BYTE* dir	/* Pointer to the key entry */
)
{
 8006b52:	b580      	push	{r7, lr}
 8006b54:	b084      	sub	sp, #16
 8006b56:	af00      	add	r7, sp, #0
 8006b58:	6078      	str	r0, [r7, #4]
 8006b5a:	6039      	str	r1, [r7, #0]
	DWORD cl;

	cl = ld_word(dir + DIR_FstClusLO);
 8006b5c:	683b      	ldr	r3, [r7, #0]
 8006b5e:	331a      	adds	r3, #26
 8006b60:	4618      	mov	r0, r3
 8006b62:	f7ff f847 	bl	8005bf4 <ld_word>
 8006b66:	4603      	mov	r3, r0
 8006b68:	60fb      	str	r3, [r7, #12]
	if (fs->fs_type == FS_FAT32) {
 8006b6a:	687b      	ldr	r3, [r7, #4]
 8006b6c:	781b      	ldrb	r3, [r3, #0]
 8006b6e:	2b03      	cmp	r3, #3
 8006b70:	d109      	bne.n	8006b86 <ld_clust+0x34>
		cl |= (DWORD)ld_word(dir + DIR_FstClusHI) << 16;
 8006b72:	683b      	ldr	r3, [r7, #0]
 8006b74:	3314      	adds	r3, #20
 8006b76:	4618      	mov	r0, r3
 8006b78:	f7ff f83c 	bl	8005bf4 <ld_word>
 8006b7c:	4603      	mov	r3, r0
 8006b7e:	041b      	lsls	r3, r3, #16
 8006b80:	68fa      	ldr	r2, [r7, #12]
 8006b82:	4313      	orrs	r3, r2
 8006b84:	60fb      	str	r3, [r7, #12]
	}

	return cl;
 8006b86:	68fb      	ldr	r3, [r7, #12]
}
 8006b88:	4618      	mov	r0, r3
 8006b8a:	3710      	adds	r7, #16
 8006b8c:	46bd      	mov	sp, r7
 8006b8e:	bd80      	pop	{r7, pc}

08006b90 <st_clust>:
void st_clust (
	FATFS* fs,	/* Pointer to the fs object */
	BYTE* dir,	/* Pointer to the key entry */
	DWORD cl	/* Value to be set */
)
{
 8006b90:	b580      	push	{r7, lr}
 8006b92:	b084      	sub	sp, #16
 8006b94:	af00      	add	r7, sp, #0
 8006b96:	60f8      	str	r0, [r7, #12]
 8006b98:	60b9      	str	r1, [r7, #8]
 8006b9a:	607a      	str	r2, [r7, #4]
	st_word(dir + DIR_FstClusLO, (WORD)cl);
 8006b9c:	68bb      	ldr	r3, [r7, #8]
 8006b9e:	331a      	adds	r3, #26
 8006ba0:	687a      	ldr	r2, [r7, #4]
 8006ba2:	b292      	uxth	r2, r2
 8006ba4:	4611      	mov	r1, r2
 8006ba6:	4618      	mov	r0, r3
 8006ba8:	f7ff f85f 	bl	8005c6a <st_word>
	if (fs->fs_type == FS_FAT32) {
 8006bac:	68fb      	ldr	r3, [r7, #12]
 8006bae:	781b      	ldrb	r3, [r3, #0]
 8006bb0:	2b03      	cmp	r3, #3
 8006bb2:	d109      	bne.n	8006bc8 <st_clust+0x38>
		st_word(dir + DIR_FstClusHI, (WORD)(cl >> 16));
 8006bb4:	68bb      	ldr	r3, [r7, #8]
 8006bb6:	f103 0214 	add.w	r2, r3, #20
 8006bba:	687b      	ldr	r3, [r7, #4]
 8006bbc:	0c1b      	lsrs	r3, r3, #16
 8006bbe:	b29b      	uxth	r3, r3
 8006bc0:	4619      	mov	r1, r3
 8006bc2:	4610      	mov	r0, r2
 8006bc4:	f7ff f851 	bl	8005c6a <st_word>
	}
}
 8006bc8:	bf00      	nop
 8006bca:	3710      	adds	r7, #16
 8006bcc:	46bd      	mov	sp, r7
 8006bce:	bd80      	pop	{r7, pc}

08006bd0 <dir_find>:

static
FRESULT dir_find (	/* FR_OK(0):succeeded, !=0:error */
	DIR* dp			/* Pointer to the directory object with the file name */
)
{
 8006bd0:	b580      	push	{r7, lr}
 8006bd2:	b086      	sub	sp, #24
 8006bd4:	af00      	add	r7, sp, #0
 8006bd6:	6078      	str	r0, [r7, #4]
	FRESULT res;
	FATFS *fs = dp->obj.fs;
 8006bd8:	687b      	ldr	r3, [r7, #4]
 8006bda:	681b      	ldr	r3, [r3, #0]
 8006bdc:	613b      	str	r3, [r7, #16]
	BYTE c;
#if _USE_LFN != 0
	BYTE a, ord, sum;
#endif

	res = dir_sdi(dp, 0);			/* Rewind directory object */
 8006bde:	2100      	movs	r1, #0
 8006be0:	6878      	ldr	r0, [r7, #4]
 8006be2:	f7ff fe2f 	bl	8006844 <dir_sdi>
 8006be6:	4603      	mov	r3, r0
 8006be8:	75fb      	strb	r3, [r7, #23]
	if (res != FR_OK) return res;
 8006bea:	7dfb      	ldrb	r3, [r7, #23]
 8006bec:	2b00      	cmp	r3, #0
 8006bee:	d001      	beq.n	8006bf4 <dir_find+0x24>
 8006bf0:	7dfb      	ldrb	r3, [r7, #23]
 8006bf2:	e03e      	b.n	8006c72 <dir_find+0xa2>
	/* On the FAT12/16/32 volume */
#if _USE_LFN != 0
	ord = sum = 0xFF; dp->blk_ofs = 0xFFFFFFFF;	/* Reset LFN sequence */
#endif
	do {
		res = move_window(fs, dp->sect);
 8006bf4:	687b      	ldr	r3, [r7, #4]
 8006bf6:	69db      	ldr	r3, [r3, #28]
 8006bf8:	4619      	mov	r1, r3
 8006bfa:	6938      	ldr	r0, [r7, #16]
 8006bfc:	f7ff faaa 	bl	8006154 <move_window>
 8006c00:	4603      	mov	r3, r0
 8006c02:	75fb      	strb	r3, [r7, #23]
		if (res != FR_OK) break;
 8006c04:	7dfb      	ldrb	r3, [r7, #23]
 8006c06:	2b00      	cmp	r3, #0
 8006c08:	d12f      	bne.n	8006c6a <dir_find+0x9a>
		c = dp->dir[DIR_Name];
 8006c0a:	687b      	ldr	r3, [r7, #4]
 8006c0c:	6a1b      	ldr	r3, [r3, #32]
 8006c0e:	781b      	ldrb	r3, [r3, #0]
 8006c10:	73fb      	strb	r3, [r7, #15]
		if (c == 0) { res = FR_NO_FILE; break; }	/* Reached to end of table */
 8006c12:	7bfb      	ldrb	r3, [r7, #15]
 8006c14:	2b00      	cmp	r3, #0
 8006c16:	d102      	bne.n	8006c1e <dir_find+0x4e>
 8006c18:	2304      	movs	r3, #4
 8006c1a:	75fb      	strb	r3, [r7, #23]
 8006c1c:	e028      	b.n	8006c70 <dir_find+0xa0>
				if (!(dp->fn[NSFLAG] & NS_LOSS) && !mem_cmp(dp->dir, dp->fn, 11)) break;	/* SFN matched? */
				ord = 0xFF; dp->blk_ofs = 0xFFFFFFFF;	/* Reset LFN sequence */
			}
		}
#else		/* Non LFN configuration */
		dp->obj.attr = dp->dir[DIR_Attr] & AM_MASK;
 8006c1e:	687b      	ldr	r3, [r7, #4]
 8006c20:	6a1b      	ldr	r3, [r3, #32]
 8006c22:	330b      	adds	r3, #11
 8006c24:	781b      	ldrb	r3, [r3, #0]
 8006c26:	f003 033f 	and.w	r3, r3, #63	; 0x3f
 8006c2a:	b2da      	uxtb	r2, r3
 8006c2c:	687b      	ldr	r3, [r7, #4]
 8006c2e:	719a      	strb	r2, [r3, #6]
		if (!(dp->dir[DIR_Attr] & AM_VOL) && !mem_cmp(dp->dir, dp->fn, 11)) break;	/* Is it a valid entry? */
 8006c30:	687b      	ldr	r3, [r7, #4]
 8006c32:	6a1b      	ldr	r3, [r3, #32]
 8006c34:	330b      	adds	r3, #11
 8006c36:	781b      	ldrb	r3, [r3, #0]
 8006c38:	f003 0308 	and.w	r3, r3, #8
 8006c3c:	2b00      	cmp	r3, #0
 8006c3e:	d10a      	bne.n	8006c56 <dir_find+0x86>
 8006c40:	687b      	ldr	r3, [r7, #4]
 8006c42:	6a18      	ldr	r0, [r3, #32]
 8006c44:	687b      	ldr	r3, [r7, #4]
 8006c46:	3324      	adds	r3, #36	; 0x24
 8006c48:	220b      	movs	r2, #11
 8006c4a:	4619      	mov	r1, r3
 8006c4c:	f7ff f88f 	bl	8005d6e <mem_cmp>
 8006c50:	4603      	mov	r3, r0
 8006c52:	2b00      	cmp	r3, #0
 8006c54:	d00b      	beq.n	8006c6e <dir_find+0x9e>
#endif
		res = dir_next(dp, 0);	/* Next entry */
 8006c56:	2100      	movs	r1, #0
 8006c58:	6878      	ldr	r0, [r7, #4]
 8006c5a:	f7ff fe6e 	bl	800693a <dir_next>
 8006c5e:	4603      	mov	r3, r0
 8006c60:	75fb      	strb	r3, [r7, #23]
	} while (res == FR_OK);
 8006c62:	7dfb      	ldrb	r3, [r7, #23]
 8006c64:	2b00      	cmp	r3, #0
 8006c66:	d0c5      	beq.n	8006bf4 <dir_find+0x24>
 8006c68:	e002      	b.n	8006c70 <dir_find+0xa0>
		if (res != FR_OK) break;
 8006c6a:	bf00      	nop
 8006c6c:	e000      	b.n	8006c70 <dir_find+0xa0>
		if (!(dp->dir[DIR_Attr] & AM_VOL) && !mem_cmp(dp->dir, dp->fn, 11)) break;	/* Is it a valid entry? */
 8006c6e:	bf00      	nop

	return res;
 8006c70:	7dfb      	ldrb	r3, [r7, #23]
}
 8006c72:	4618      	mov	r0, r3
 8006c74:	3718      	adds	r7, #24
 8006c76:	46bd      	mov	sp, r7
 8006c78:	bd80      	pop	{r7, pc}

08006c7a <dir_register>:

static
FRESULT dir_register (	/* FR_OK:succeeded, FR_DENIED:no free entry or too many SFN collision, FR_DISK_ERR:disk error */
	DIR* dp				/* Target directory with object name to be created */
)
{
 8006c7a:	b580      	push	{r7, lr}
 8006c7c:	b084      	sub	sp, #16
 8006c7e:	af00      	add	r7, sp, #0
 8006c80:	6078      	str	r0, [r7, #4]
	FRESULT res;
	FATFS *fs = dp->obj.fs;
 8006c82:	687b      	ldr	r3, [r7, #4]
 8006c84:	681b      	ldr	r3, [r3, #0]
 8006c86:	60bb      	str	r3, [r7, #8]
			} while (res == FR_OK && --nent);
		}
	}

#else	/* Non LFN configuration */
	res = dir_alloc(dp, 1);		/* Allocate an entry for SFN */
 8006c88:	2101      	movs	r1, #1
 8006c8a:	6878      	ldr	r0, [r7, #4]
 8006c8c:	f7ff ff1a 	bl	8006ac4 <dir_alloc>
 8006c90:	4603      	mov	r3, r0
 8006c92:	73fb      	strb	r3, [r7, #15]

#endif

	/* Set SFN entry */
	if (res == FR_OK) {
 8006c94:	7bfb      	ldrb	r3, [r7, #15]
 8006c96:	2b00      	cmp	r3, #0
 8006c98:	d11c      	bne.n	8006cd4 <dir_register+0x5a>
		res = move_window(fs, dp->sect);
 8006c9a:	687b      	ldr	r3, [r7, #4]
 8006c9c:	69db      	ldr	r3, [r3, #28]
 8006c9e:	4619      	mov	r1, r3
 8006ca0:	68b8      	ldr	r0, [r7, #8]
 8006ca2:	f7ff fa57 	bl	8006154 <move_window>
 8006ca6:	4603      	mov	r3, r0
 8006ca8:	73fb      	strb	r3, [r7, #15]
		if (res == FR_OK) {
 8006caa:	7bfb      	ldrb	r3, [r7, #15]
 8006cac:	2b00      	cmp	r3, #0
 8006cae:	d111      	bne.n	8006cd4 <dir_register+0x5a>
			mem_set(dp->dir, 0, SZDIRE);	/* Clean the entry */
 8006cb0:	687b      	ldr	r3, [r7, #4]
 8006cb2:	6a1b      	ldr	r3, [r3, #32]
 8006cb4:	2220      	movs	r2, #32
 8006cb6:	2100      	movs	r1, #0
 8006cb8:	4618      	mov	r0, r3
 8006cba:	f7ff f83e 	bl	8005d3a <mem_set>
			mem_cpy(dp->dir + DIR_Name, dp->fn, 11);	/* Put SFN */
 8006cbe:	687b      	ldr	r3, [r7, #4]
 8006cc0:	6a18      	ldr	r0, [r3, #32]
 8006cc2:	687b      	ldr	r3, [r7, #4]
 8006cc4:	3324      	adds	r3, #36	; 0x24
 8006cc6:	220b      	movs	r2, #11
 8006cc8:	4619      	mov	r1, r3
 8006cca:	f7ff f815 	bl	8005cf8 <mem_cpy>
#if _USE_LFN != 0
			dp->dir[DIR_NTres] = dp->fn[NSFLAG] & (NS_BODY | NS_EXT);	/* Put NT flag */
#endif
			fs->wflag = 1;
 8006cce:	68bb      	ldr	r3, [r7, #8]
 8006cd0:	2201      	movs	r2, #1
 8006cd2:	70da      	strb	r2, [r3, #3]
		}
	}

	return res;
 8006cd4:	7bfb      	ldrb	r3, [r7, #15]
}
 8006cd6:	4618      	mov	r0, r3
 8006cd8:	3710      	adds	r7, #16
 8006cda:	46bd      	mov	sp, r7
 8006cdc:	bd80      	pop	{r7, pc}
	...

08006ce0 <create_name>:
static
FRESULT create_name (	/* FR_OK: successful, FR_INVALID_NAME: could not create */
	DIR* dp,			/* Pointer to the directory object */
	const TCHAR** path	/* Pointer to pointer to the segment in the path string */
)
{
 8006ce0:	b580      	push	{r7, lr}
 8006ce2:	b088      	sub	sp, #32
 8006ce4:	af00      	add	r7, sp, #0
 8006ce6:	6078      	str	r0, [r7, #4]
 8006ce8:	6039      	str	r1, [r7, #0]
	BYTE c, d, *sfn;
	UINT ni, si, i;
	const char *p;

	/* Create file name in directory form */
	p = *path; sfn = dp->fn;
 8006cea:	683b      	ldr	r3, [r7, #0]
 8006cec:	681b      	ldr	r3, [r3, #0]
 8006cee:	60fb      	str	r3, [r7, #12]
 8006cf0:	687b      	ldr	r3, [r7, #4]
 8006cf2:	3324      	adds	r3, #36	; 0x24
 8006cf4:	60bb      	str	r3, [r7, #8]
	mem_set(sfn, ' ', 11);
 8006cf6:	220b      	movs	r2, #11
 8006cf8:	2120      	movs	r1, #32
 8006cfa:	68b8      	ldr	r0, [r7, #8]
 8006cfc:	f7ff f81d 	bl	8005d3a <mem_set>
	si = i = 0; ni = 8;
 8006d00:	2300      	movs	r3, #0
 8006d02:	613b      	str	r3, [r7, #16]
 8006d04:	693b      	ldr	r3, [r7, #16]
 8006d06:	617b      	str	r3, [r7, #20]
 8006d08:	2308      	movs	r3, #8
 8006d0a:	61bb      	str	r3, [r7, #24]
		sfn[NSFLAG] = (c <= ' ') ? NS_LAST | NS_DOT : NS_DOT;	/* Set last segment flag if end of the path */
		return FR_OK;
	}
#endif
	for (;;) {
		c = (BYTE)p[si++];
 8006d0c:	697b      	ldr	r3, [r7, #20]
 8006d0e:	1c5a      	adds	r2, r3, #1
 8006d10:	617a      	str	r2, [r7, #20]
 8006d12:	68fa      	ldr	r2, [r7, #12]
 8006d14:	4413      	add	r3, r2
 8006d16:	781b      	ldrb	r3, [r3, #0]
 8006d18:	77fb      	strb	r3, [r7, #31]
		if (c <= ' ') break; 			/* Break if end of the path name */
 8006d1a:	7ffb      	ldrb	r3, [r7, #31]
 8006d1c:	2b20      	cmp	r3, #32
 8006d1e:	d94e      	bls.n	8006dbe <create_name+0xde>
		if (c == '/' || c == '\\') {	/* Break if a separator is found */
 8006d20:	7ffb      	ldrb	r3, [r7, #31]
 8006d22:	2b2f      	cmp	r3, #47	; 0x2f
 8006d24:	d006      	beq.n	8006d34 <create_name+0x54>
 8006d26:	7ffb      	ldrb	r3, [r7, #31]
 8006d28:	2b5c      	cmp	r3, #92	; 0x5c
 8006d2a:	d110      	bne.n	8006d4e <create_name+0x6e>
			while (p[si] == '/' || p[si] == '\\') si++;	/* Skip duplicated separator if exist */
 8006d2c:	e002      	b.n	8006d34 <create_name+0x54>
 8006d2e:	697b      	ldr	r3, [r7, #20]
 8006d30:	3301      	adds	r3, #1
 8006d32:	617b      	str	r3, [r7, #20]
 8006d34:	68fa      	ldr	r2, [r7, #12]
 8006d36:	697b      	ldr	r3, [r7, #20]
 8006d38:	4413      	add	r3, r2
 8006d3a:	781b      	ldrb	r3, [r3, #0]
 8006d3c:	2b2f      	cmp	r3, #47	; 0x2f
 8006d3e:	d0f6      	beq.n	8006d2e <create_name+0x4e>
 8006d40:	68fa      	ldr	r2, [r7, #12]
 8006d42:	697b      	ldr	r3, [r7, #20]
 8006d44:	4413      	add	r3, r2
 8006d46:	781b      	ldrb	r3, [r3, #0]
 8006d48:	2b5c      	cmp	r3, #92	; 0x5c
 8006d4a:	d0f0      	beq.n	8006d2e <create_name+0x4e>
			break;
 8006d4c:	e038      	b.n	8006dc0 <create_name+0xe0>
		}
		if (c == '.' || i >= ni) {		/* End of body or over size? */
 8006d4e:	7ffb      	ldrb	r3, [r7, #31]
 8006d50:	2b2e      	cmp	r3, #46	; 0x2e
 8006d52:	d003      	beq.n	8006d5c <create_name+0x7c>
 8006d54:	693a      	ldr	r2, [r7, #16]
 8006d56:	69bb      	ldr	r3, [r7, #24]
 8006d58:	429a      	cmp	r2, r3
 8006d5a:	d30c      	bcc.n	8006d76 <create_name+0x96>
			if (ni == 11 || c != '.') return FR_INVALID_NAME;	/* Over size or invalid dot */
 8006d5c:	69bb      	ldr	r3, [r7, #24]
 8006d5e:	2b0b      	cmp	r3, #11
 8006d60:	d002      	beq.n	8006d68 <create_name+0x88>
 8006d62:	7ffb      	ldrb	r3, [r7, #31]
 8006d64:	2b2e      	cmp	r3, #46	; 0x2e
 8006d66:	d001      	beq.n	8006d6c <create_name+0x8c>
 8006d68:	2306      	movs	r3, #6
 8006d6a:	e044      	b.n	8006df6 <create_name+0x116>
			i = 8; ni = 11;				/* Goto extension */
 8006d6c:	2308      	movs	r3, #8
 8006d6e:	613b      	str	r3, [r7, #16]
 8006d70:	230b      	movs	r3, #11
 8006d72:	61bb      	str	r3, [r7, #24]
			continue;
 8006d74:	e022      	b.n	8006dbc <create_name+0xdc>
		}
		if (c >= 0x80) {				/* Extended character? */
 8006d76:	f997 301f 	ldrsb.w	r3, [r7, #31]
 8006d7a:	2b00      	cmp	r3, #0
 8006d7c:	da04      	bge.n	8006d88 <create_name+0xa8>
#ifdef _EXCVT
			c = ExCvt[c - 0x80];		/* To upper extended characters (SBCS cfg) */
 8006d7e:	7ffb      	ldrb	r3, [r7, #31]
 8006d80:	3b80      	subs	r3, #128	; 0x80
 8006d82:	4a1f      	ldr	r2, [pc, #124]	; (8006e00 <create_name+0x120>)
 8006d84:	5cd3      	ldrb	r3, [r2, r3]
 8006d86:	77fb      	strb	r3, [r7, #31]
			d = (BYTE)p[si++];			/* Get 2nd byte */
			if (!IsDBCS2(d) || i >= ni - 1) return FR_INVALID_NAME;	/* Reject invalid DBC */
			sfn[i++] = c;
			sfn[i++] = d;
		} else {						/* SBC */
			if (chk_chr("\"*+,:;<=>\?[]|\x7F", c)) return FR_INVALID_NAME;	/* Reject illegal chrs for SFN */
 8006d88:	7ffb      	ldrb	r3, [r7, #31]
 8006d8a:	4619      	mov	r1, r3
 8006d8c:	481d      	ldr	r0, [pc, #116]	; (8006e04 <create_name+0x124>)
 8006d8e:	f7ff f815 	bl	8005dbc <chk_chr>
 8006d92:	4603      	mov	r3, r0
 8006d94:	2b00      	cmp	r3, #0
 8006d96:	d001      	beq.n	8006d9c <create_name+0xbc>
 8006d98:	2306      	movs	r3, #6
 8006d9a:	e02c      	b.n	8006df6 <create_name+0x116>
			if (IsLower(c)) c -= 0x20;	/* To upper */
 8006d9c:	7ffb      	ldrb	r3, [r7, #31]
 8006d9e:	2b60      	cmp	r3, #96	; 0x60
 8006da0:	d905      	bls.n	8006dae <create_name+0xce>
 8006da2:	7ffb      	ldrb	r3, [r7, #31]
 8006da4:	2b7a      	cmp	r3, #122	; 0x7a
 8006da6:	d802      	bhi.n	8006dae <create_name+0xce>
 8006da8:	7ffb      	ldrb	r3, [r7, #31]
 8006daa:	3b20      	subs	r3, #32
 8006dac:	77fb      	strb	r3, [r7, #31]
			sfn[i++] = c;
 8006dae:	693b      	ldr	r3, [r7, #16]
 8006db0:	1c5a      	adds	r2, r3, #1
 8006db2:	613a      	str	r2, [r7, #16]
 8006db4:	68ba      	ldr	r2, [r7, #8]
 8006db6:	4413      	add	r3, r2
 8006db8:	7ffa      	ldrb	r2, [r7, #31]
 8006dba:	701a      	strb	r2, [r3, #0]
		c = (BYTE)p[si++];
 8006dbc:	e7a6      	b.n	8006d0c <create_name+0x2c>
		if (c <= ' ') break; 			/* Break if end of the path name */
 8006dbe:	bf00      	nop
		}
	}
	*path = p + si;						/* Return pointer to the next segment */
 8006dc0:	68fa      	ldr	r2, [r7, #12]
 8006dc2:	697b      	ldr	r3, [r7, #20]
 8006dc4:	441a      	add	r2, r3
 8006dc6:	683b      	ldr	r3, [r7, #0]
 8006dc8:	601a      	str	r2, [r3, #0]
	if (i == 0) return FR_INVALID_NAME;	/* Reject nul string */
 8006dca:	693b      	ldr	r3, [r7, #16]
 8006dcc:	2b00      	cmp	r3, #0
 8006dce:	d101      	bne.n	8006dd4 <create_name+0xf4>
 8006dd0:	2306      	movs	r3, #6
 8006dd2:	e010      	b.n	8006df6 <create_name+0x116>

	if (sfn[0] == DDEM) sfn[0] = RDDEM;	/* If the first character collides with DDEM, replace it with RDDEM */
 8006dd4:	68bb      	ldr	r3, [r7, #8]
 8006dd6:	781b      	ldrb	r3, [r3, #0]
 8006dd8:	2be5      	cmp	r3, #229	; 0xe5
 8006dda:	d102      	bne.n	8006de2 <create_name+0x102>
 8006ddc:	68bb      	ldr	r3, [r7, #8]
 8006dde:	2205      	movs	r2, #5
 8006de0:	701a      	strb	r2, [r3, #0]
	sfn[NSFLAG] = (c <= ' ') ? NS_LAST : 0;		/* Set last segment flag if end of the path */
 8006de2:	7ffb      	ldrb	r3, [r7, #31]
 8006de4:	2b20      	cmp	r3, #32
 8006de6:	d801      	bhi.n	8006dec <create_name+0x10c>
 8006de8:	2204      	movs	r2, #4
 8006dea:	e000      	b.n	8006dee <create_name+0x10e>
 8006dec:	2200      	movs	r2, #0
 8006dee:	68bb      	ldr	r3, [r7, #8]
 8006df0:	330b      	adds	r3, #11
 8006df2:	701a      	strb	r2, [r3, #0]

	return FR_OK;
 8006df4:	2300      	movs	r3, #0
#endif /* _USE_LFN != 0 */
}
 8006df6:	4618      	mov	r0, r3
 8006df8:	3720      	adds	r7, #32
 8006dfa:	46bd      	mov	sp, r7
 8006dfc:	bd80      	pop	{r7, pc}
 8006dfe:	bf00      	nop
 8006e00:	0800a6b8 	.word	0x0800a6b8
 8006e04:	0800a65c 	.word	0x0800a65c

08006e08 <follow_path>:
static
FRESULT follow_path (	/* FR_OK(0): successful, !=0: error code */
	DIR* dp,			/* Directory object to return last directory and found object */
	const TCHAR* path	/* Full-path string to find a file or directory */
)
{
 8006e08:	b580      	push	{r7, lr}
 8006e0a:	b086      	sub	sp, #24
 8006e0c:	af00      	add	r7, sp, #0
 8006e0e:	6078      	str	r0, [r7, #4]
 8006e10:	6039      	str	r1, [r7, #0]
	FRESULT res;
	BYTE ns;
	_FDID *obj = &dp->obj;
 8006e12:	687b      	ldr	r3, [r7, #4]
 8006e14:	613b      	str	r3, [r7, #16]
	FATFS *fs = obj->fs;
 8006e16:	693b      	ldr	r3, [r7, #16]
 8006e18:	681b      	ldr	r3, [r3, #0]
 8006e1a:	60fb      	str	r3, [r7, #12]
	if (*path != '/' && *path != '\\') {	/* Without heading separator */
		obj->sclust = fs->cdir;				/* Start from current directory */
	} else
#endif
	{										/* With heading separator */
		while (*path == '/' || *path == '\\') path++;	/* Strip heading separator */
 8006e1c:	e002      	b.n	8006e24 <follow_path+0x1c>
 8006e1e:	683b      	ldr	r3, [r7, #0]
 8006e20:	3301      	adds	r3, #1
 8006e22:	603b      	str	r3, [r7, #0]
 8006e24:	683b      	ldr	r3, [r7, #0]
 8006e26:	781b      	ldrb	r3, [r3, #0]
 8006e28:	2b2f      	cmp	r3, #47	; 0x2f
 8006e2a:	d0f8      	beq.n	8006e1e <follow_path+0x16>
 8006e2c:	683b      	ldr	r3, [r7, #0]
 8006e2e:	781b      	ldrb	r3, [r3, #0]
 8006e30:	2b5c      	cmp	r3, #92	; 0x5c
 8006e32:	d0f4      	beq.n	8006e1e <follow_path+0x16>
		obj->sclust = 0;					/* Start from root directory */
 8006e34:	693b      	ldr	r3, [r7, #16]
 8006e36:	2200      	movs	r2, #0
 8006e38:	609a      	str	r2, [r3, #8]
		obj->stat = fs->dirbuf[XDIR_GenFlags] & 2;
	}
#endif
#endif

	if ((UINT)*path < ' ') {				/* Null path name is the origin directory itself */
 8006e3a:	683b      	ldr	r3, [r7, #0]
 8006e3c:	781b      	ldrb	r3, [r3, #0]
 8006e3e:	2b1f      	cmp	r3, #31
 8006e40:	d80a      	bhi.n	8006e58 <follow_path+0x50>
		dp->fn[NSFLAG] = NS_NONAME;
 8006e42:	687b      	ldr	r3, [r7, #4]
 8006e44:	2280      	movs	r2, #128	; 0x80
 8006e46:	f883 202f 	strb.w	r2, [r3, #47]	; 0x2f
		res = dir_sdi(dp, 0);
 8006e4a:	2100      	movs	r1, #0
 8006e4c:	6878      	ldr	r0, [r7, #4]
 8006e4e:	f7ff fcf9 	bl	8006844 <dir_sdi>
 8006e52:	4603      	mov	r3, r0
 8006e54:	75fb      	strb	r3, [r7, #23]
 8006e56:	e043      	b.n	8006ee0 <follow_path+0xd8>

	} else {								/* Follow path */
		for (;;) {
			res = create_name(dp, &path);	/* Get a segment name of the path */
 8006e58:	463b      	mov	r3, r7
 8006e5a:	4619      	mov	r1, r3
 8006e5c:	6878      	ldr	r0, [r7, #4]
 8006e5e:	f7ff ff3f 	bl	8006ce0 <create_name>
 8006e62:	4603      	mov	r3, r0
 8006e64:	75fb      	strb	r3, [r7, #23]
			if (res != FR_OK) break;
 8006e66:	7dfb      	ldrb	r3, [r7, #23]
 8006e68:	2b00      	cmp	r3, #0
 8006e6a:	d134      	bne.n	8006ed6 <follow_path+0xce>
			res = dir_find(dp);				/* Find an object with the segment name */
 8006e6c:	6878      	ldr	r0, [r7, #4]
 8006e6e:	f7ff feaf 	bl	8006bd0 <dir_find>
 8006e72:	4603      	mov	r3, r0
 8006e74:	75fb      	strb	r3, [r7, #23]
			ns = dp->fn[NSFLAG];
 8006e76:	687b      	ldr	r3, [r7, #4]
 8006e78:	f893 302f 	ldrb.w	r3, [r3, #47]	; 0x2f
 8006e7c:	72fb      	strb	r3, [r7, #11]
			if (res != FR_OK) {				/* Failed to find the object */
 8006e7e:	7dfb      	ldrb	r3, [r7, #23]
 8006e80:	2b00      	cmp	r3, #0
 8006e82:	d00a      	beq.n	8006e9a <follow_path+0x92>
				if (res == FR_NO_FILE) {	/* Object is not found */
 8006e84:	7dfb      	ldrb	r3, [r7, #23]
 8006e86:	2b04      	cmp	r3, #4
 8006e88:	d127      	bne.n	8006eda <follow_path+0xd2>
					if (_FS_RPATH && (ns & NS_DOT)) {	/* If dot entry is not exist, stay there */
						if (!(ns & NS_LAST)) continue;	/* Continue to follow if not last segment */
						dp->fn[NSFLAG] = NS_NONAME;
						res = FR_OK;
					} else {							/* Could not find the object */
						if (!(ns & NS_LAST)) res = FR_NO_PATH;	/* Adjust error code if not last segment */
 8006e8a:	7afb      	ldrb	r3, [r7, #11]
 8006e8c:	f003 0304 	and.w	r3, r3, #4
 8006e90:	2b00      	cmp	r3, #0
 8006e92:	d122      	bne.n	8006eda <follow_path+0xd2>
 8006e94:	2305      	movs	r3, #5
 8006e96:	75fb      	strb	r3, [r7, #23]
					}
				}
				break;
 8006e98:	e01f      	b.n	8006eda <follow_path+0xd2>
			}
			if (ns & NS_LAST) break;			/* Last segment matched. Function completed. */
 8006e9a:	7afb      	ldrb	r3, [r7, #11]
 8006e9c:	f003 0304 	and.w	r3, r3, #4
 8006ea0:	2b00      	cmp	r3, #0
 8006ea2:	d11c      	bne.n	8006ede <follow_path+0xd6>
			/* Get into the sub-directory */
			if (!(obj->attr & AM_DIR)) {		/* It is not a sub-directory and cannot follow */
 8006ea4:	693b      	ldr	r3, [r7, #16]
 8006ea6:	799b      	ldrb	r3, [r3, #6]
 8006ea8:	f003 0310 	and.w	r3, r3, #16
 8006eac:	2b00      	cmp	r3, #0
 8006eae:	d102      	bne.n	8006eb6 <follow_path+0xae>
				res = FR_NO_PATH; break;
 8006eb0:	2305      	movs	r3, #5
 8006eb2:	75fb      	strb	r3, [r7, #23]
 8006eb4:	e014      	b.n	8006ee0 <follow_path+0xd8>
				obj->stat = fs->dirbuf[XDIR_GenFlags] & 2;
				obj->objsize = ld_qword(fs->dirbuf + XDIR_FileSize);
			} else
#endif
			{
				obj->sclust = ld_clust(fs, fs->win + dp->dptr % SS(fs));	/* Open next directory */
 8006eb6:	68fb      	ldr	r3, [r7, #12]
 8006eb8:	f103 0230 	add.w	r2, r3, #48	; 0x30
 8006ebc:	687b      	ldr	r3, [r7, #4]
 8006ebe:	695b      	ldr	r3, [r3, #20]
 8006ec0:	f3c3 0308 	ubfx	r3, r3, #0, #9
 8006ec4:	4413      	add	r3, r2
 8006ec6:	4619      	mov	r1, r3
 8006ec8:	68f8      	ldr	r0, [r7, #12]
 8006eca:	f7ff fe42 	bl	8006b52 <ld_clust>
 8006ece:	4602      	mov	r2, r0
 8006ed0:	693b      	ldr	r3, [r7, #16]
 8006ed2:	609a      	str	r2, [r3, #8]
			res = create_name(dp, &path);	/* Get a segment name of the path */
 8006ed4:	e7c0      	b.n	8006e58 <follow_path+0x50>
			if (res != FR_OK) break;
 8006ed6:	bf00      	nop
 8006ed8:	e002      	b.n	8006ee0 <follow_path+0xd8>
				break;
 8006eda:	bf00      	nop
 8006edc:	e000      	b.n	8006ee0 <follow_path+0xd8>
			if (ns & NS_LAST) break;			/* Last segment matched. Function completed. */
 8006ede:	bf00      	nop
			}
		}
	}

	return res;
 8006ee0:	7dfb      	ldrb	r3, [r7, #23]
}
 8006ee2:	4618      	mov	r0, r3
 8006ee4:	3718      	adds	r7, #24
 8006ee6:	46bd      	mov	sp, r7
 8006ee8:	bd80      	pop	{r7, pc}

08006eea <get_ldnumber>:

static
int get_ldnumber (		/* Returns logical drive number (-1:invalid drive) */
	const TCHAR** path	/* Pointer to pointer to the path name */
)
{
 8006eea:	b480      	push	{r7}
 8006eec:	b087      	sub	sp, #28
 8006eee:	af00      	add	r7, sp, #0
 8006ef0:	6078      	str	r0, [r7, #4]
	const TCHAR *tp, *tt;
	UINT i;
	int vol = -1;
 8006ef2:	f04f 33ff 	mov.w	r3, #4294967295
 8006ef6:	613b      	str	r3, [r7, #16]
	char c;
	TCHAR tc;
#endif


	if (*path) {	/* If the pointer is not a null */
 8006ef8:	687b      	ldr	r3, [r7, #4]
 8006efa:	681b      	ldr	r3, [r3, #0]
 8006efc:	2b00      	cmp	r3, #0
 8006efe:	d031      	beq.n	8006f64 <get_ldnumber+0x7a>
		for (tt = *path; (UINT)*tt >= (_USE_LFN ? ' ' : '!') && *tt != ':'; tt++) ;	/* Find ':' in the path */
 8006f00:	687b      	ldr	r3, [r7, #4]
 8006f02:	681b      	ldr	r3, [r3, #0]
 8006f04:	617b      	str	r3, [r7, #20]
 8006f06:	e002      	b.n	8006f0e <get_ldnumber+0x24>
 8006f08:	697b      	ldr	r3, [r7, #20]
 8006f0a:	3301      	adds	r3, #1
 8006f0c:	617b      	str	r3, [r7, #20]
 8006f0e:	697b      	ldr	r3, [r7, #20]
 8006f10:	781b      	ldrb	r3, [r3, #0]
 8006f12:	2b20      	cmp	r3, #32
 8006f14:	d903      	bls.n	8006f1e <get_ldnumber+0x34>
 8006f16:	697b      	ldr	r3, [r7, #20]
 8006f18:	781b      	ldrb	r3, [r3, #0]
 8006f1a:	2b3a      	cmp	r3, #58	; 0x3a
 8006f1c:	d1f4      	bne.n	8006f08 <get_ldnumber+0x1e>
		if (*tt == ':') {	/* If a ':' is exist in the path name */
 8006f1e:	697b      	ldr	r3, [r7, #20]
 8006f20:	781b      	ldrb	r3, [r3, #0]
 8006f22:	2b3a      	cmp	r3, #58	; 0x3a
 8006f24:	d11c      	bne.n	8006f60 <get_ldnumber+0x76>
			tp = *path;
 8006f26:	687b      	ldr	r3, [r7, #4]
 8006f28:	681b      	ldr	r3, [r3, #0]
 8006f2a:	60fb      	str	r3, [r7, #12]
			i = *tp++ - '0';
 8006f2c:	68fb      	ldr	r3, [r7, #12]
 8006f2e:	1c5a      	adds	r2, r3, #1
 8006f30:	60fa      	str	r2, [r7, #12]
 8006f32:	781b      	ldrb	r3, [r3, #0]
 8006f34:	3b30      	subs	r3, #48	; 0x30
 8006f36:	60bb      	str	r3, [r7, #8]
			if (i < 10 && tp == tt) {	/* Is there a numeric drive id? */
 8006f38:	68bb      	ldr	r3, [r7, #8]
 8006f3a:	2b09      	cmp	r3, #9
 8006f3c:	d80e      	bhi.n	8006f5c <get_ldnumber+0x72>
 8006f3e:	68fa      	ldr	r2, [r7, #12]
 8006f40:	697b      	ldr	r3, [r7, #20]
 8006f42:	429a      	cmp	r2, r3
 8006f44:	d10a      	bne.n	8006f5c <get_ldnumber+0x72>
				if (i < _VOLUMES) {	/* If a drive id is found, get the value and strip it */
 8006f46:	68bb      	ldr	r3, [r7, #8]
 8006f48:	2b00      	cmp	r3, #0
 8006f4a:	d107      	bne.n	8006f5c <get_ldnumber+0x72>
					vol = (int)i;
 8006f4c:	68bb      	ldr	r3, [r7, #8]
 8006f4e:	613b      	str	r3, [r7, #16]
					*path = ++tt;
 8006f50:	697b      	ldr	r3, [r7, #20]
 8006f52:	3301      	adds	r3, #1
 8006f54:	617b      	str	r3, [r7, #20]
 8006f56:	687b      	ldr	r3, [r7, #4]
 8006f58:	697a      	ldr	r2, [r7, #20]
 8006f5a:	601a      	str	r2, [r3, #0]
					vol = (int)i;
					*path = tt;
				}
			}
#endif
			return vol;
 8006f5c:	693b      	ldr	r3, [r7, #16]
 8006f5e:	e002      	b.n	8006f66 <get_ldnumber+0x7c>
		}
#if _FS_RPATH != 0 && _VOLUMES >= 2
		vol = CurrVol;	/* Current drive */
#else
		vol = 0;		/* Drive 0 */
 8006f60:	2300      	movs	r3, #0
 8006f62:	613b      	str	r3, [r7, #16]
#endif
	}
	return vol;
 8006f64:	693b      	ldr	r3, [r7, #16]
}
 8006f66:	4618      	mov	r0, r3
 8006f68:	371c      	adds	r7, #28
 8006f6a:	46bd      	mov	sp, r7
 8006f6c:	f85d 7b04 	ldr.w	r7, [sp], #4
 8006f70:	4770      	bx	lr
	...

08006f74 <check_fs>:
static
BYTE check_fs (	/* 0:FAT, 1:exFAT, 2:Valid BS but not FAT, 3:Not a BS, 4:Disk error */
	FATFS* fs,	/* File system object */
	DWORD sect	/* Sector# (lba) to load and check if it is an FAT-VBR or not */
)
{
 8006f74:	b580      	push	{r7, lr}
 8006f76:	b082      	sub	sp, #8
 8006f78:	af00      	add	r7, sp, #0
 8006f7a:	6078      	str	r0, [r7, #4]
 8006f7c:	6039      	str	r1, [r7, #0]
	fs->wflag = 0; fs->winsect = 0xFFFFFFFF;		/* Invaidate window */
 8006f7e:	687b      	ldr	r3, [r7, #4]
 8006f80:	2200      	movs	r2, #0
 8006f82:	70da      	strb	r2, [r3, #3]
 8006f84:	687b      	ldr	r3, [r7, #4]
 8006f86:	f04f 32ff 	mov.w	r2, #4294967295
 8006f8a:	62da      	str	r2, [r3, #44]	; 0x2c
	if (move_window(fs, sect) != FR_OK) return 4;	/* Load boot record */
 8006f8c:	6839      	ldr	r1, [r7, #0]
 8006f8e:	6878      	ldr	r0, [r7, #4]
 8006f90:	f7ff f8e0 	bl	8006154 <move_window>
 8006f94:	4603      	mov	r3, r0
 8006f96:	2b00      	cmp	r3, #0
 8006f98:	d001      	beq.n	8006f9e <check_fs+0x2a>
 8006f9a:	2304      	movs	r3, #4
 8006f9c:	e038      	b.n	8007010 <check_fs+0x9c>

	if (ld_word(fs->win + BS_55AA) != 0xAA55) return 3;	/* Check boot record signature (always placed here even if the sector size is >512) */
 8006f9e:	687b      	ldr	r3, [r7, #4]
 8006fa0:	3330      	adds	r3, #48	; 0x30
 8006fa2:	f503 73ff 	add.w	r3, r3, #510	; 0x1fe
 8006fa6:	4618      	mov	r0, r3
 8006fa8:	f7fe fe24 	bl	8005bf4 <ld_word>
 8006fac:	4603      	mov	r3, r0
 8006fae:	461a      	mov	r2, r3
 8006fb0:	f64a 2355 	movw	r3, #43605	; 0xaa55
 8006fb4:	429a      	cmp	r2, r3
 8006fb6:	d001      	beq.n	8006fbc <check_fs+0x48>
 8006fb8:	2303      	movs	r3, #3
 8006fba:	e029      	b.n	8007010 <check_fs+0x9c>

	if (fs->win[BS_JmpBoot] == 0xE9 || (fs->win[BS_JmpBoot] == 0xEB && fs->win[BS_JmpBoot + 2] == 0x90)) {
 8006fbc:	687b      	ldr	r3, [r7, #4]
 8006fbe:	f893 3030 	ldrb.w	r3, [r3, #48]	; 0x30
 8006fc2:	2be9      	cmp	r3, #233	; 0xe9
 8006fc4:	d009      	beq.n	8006fda <check_fs+0x66>
 8006fc6:	687b      	ldr	r3, [r7, #4]
 8006fc8:	f893 3030 	ldrb.w	r3, [r3, #48]	; 0x30
 8006fcc:	2beb      	cmp	r3, #235	; 0xeb
 8006fce:	d11e      	bne.n	800700e <check_fs+0x9a>
 8006fd0:	687b      	ldr	r3, [r7, #4]
 8006fd2:	f893 3032 	ldrb.w	r3, [r3, #50]	; 0x32
 8006fd6:	2b90      	cmp	r3, #144	; 0x90
 8006fd8:	d119      	bne.n	800700e <check_fs+0x9a>
		if ((ld_dword(fs->win + BS_FilSysType) & 0xFFFFFF) == 0x544146) return 0;	/* Check "FAT" string */
 8006fda:	687b      	ldr	r3, [r7, #4]
 8006fdc:	3330      	adds	r3, #48	; 0x30
 8006fde:	3336      	adds	r3, #54	; 0x36
 8006fe0:	4618      	mov	r0, r3
 8006fe2:	f7fe fe1f 	bl	8005c24 <ld_dword>
 8006fe6:	4603      	mov	r3, r0
 8006fe8:	f023 437f 	bic.w	r3, r3, #4278190080	; 0xff000000
 8006fec:	4a0a      	ldr	r2, [pc, #40]	; (8007018 <check_fs+0xa4>)
 8006fee:	4293      	cmp	r3, r2
 8006ff0:	d101      	bne.n	8006ff6 <check_fs+0x82>
 8006ff2:	2300      	movs	r3, #0
 8006ff4:	e00c      	b.n	8007010 <check_fs+0x9c>
		if (ld_dword(fs->win + BS_FilSysType32) == 0x33544146) return 0;			/* Check "FAT3" string */
 8006ff6:	687b      	ldr	r3, [r7, #4]
 8006ff8:	3330      	adds	r3, #48	; 0x30
 8006ffa:	3352      	adds	r3, #82	; 0x52
 8006ffc:	4618      	mov	r0, r3
 8006ffe:	f7fe fe11 	bl	8005c24 <ld_dword>
 8007002:	4602      	mov	r2, r0
 8007004:	4b05      	ldr	r3, [pc, #20]	; (800701c <check_fs+0xa8>)
 8007006:	429a      	cmp	r2, r3
 8007008:	d101      	bne.n	800700e <check_fs+0x9a>
 800700a:	2300      	movs	r3, #0
 800700c:	e000      	b.n	8007010 <check_fs+0x9c>
	}
#if _FS_EXFAT
	if (!mem_cmp(fs->win + BS_JmpBoot, "\xEB\x76\x90" "EXFAT   ", 11)) return 1;
#endif
	return 2;
 800700e:	2302      	movs	r3, #2
}
 8007010:	4618      	mov	r0, r3
 8007012:	3708      	adds	r7, #8
 8007014:	46bd      	mov	sp, r7
 8007016:	bd80      	pop	{r7, pc}
 8007018:	00544146 	.word	0x00544146
 800701c:	33544146 	.word	0x33544146

08007020 <find_volume>:
FRESULT find_volume (	/* FR_OK(0): successful, !=0: any error occurred */
	const TCHAR** path,	/* Pointer to pointer to the path name (drive number) */
	FATFS** rfs,		/* Pointer to pointer to the found file system object */
	BYTE mode			/* !=0: Check write protection for write access */
)
{
 8007020:	b580      	push	{r7, lr}
 8007022:	b096      	sub	sp, #88	; 0x58
 8007024:	af00      	add	r7, sp, #0
 8007026:	60f8      	str	r0, [r7, #12]
 8007028:	60b9      	str	r1, [r7, #8]
 800702a:	4613      	mov	r3, r2
 800702c:	71fb      	strb	r3, [r7, #7]
	FATFS *fs;
	UINT i;


	/* Get logical drive number */
	*rfs = 0;
 800702e:	68bb      	ldr	r3, [r7, #8]
 8007030:	2200      	movs	r2, #0
 8007032:	601a      	str	r2, [r3, #0]
	vol = get_ldnumber(path);
 8007034:	68f8      	ldr	r0, [r7, #12]
 8007036:	f7ff ff58 	bl	8006eea <get_ldnumber>
 800703a:	63f8      	str	r0, [r7, #60]	; 0x3c
	if (vol < 0) return FR_INVALID_DRIVE;
 800703c:	6bfb      	ldr	r3, [r7, #60]	; 0x3c
 800703e:	2b00      	cmp	r3, #0
 8007040:	da01      	bge.n	8007046 <find_volume+0x26>
 8007042:	230b      	movs	r3, #11
 8007044:	e22e      	b.n	80074a4 <find_volume+0x484>

	/* Check if the file system object is valid or not */
	fs = FatFs[vol];					/* Get pointer to the file system object */
 8007046:	4aa8      	ldr	r2, [pc, #672]	; (80072e8 <find_volume+0x2c8>)
 8007048:	6bfb      	ldr	r3, [r7, #60]	; 0x3c
 800704a:	f852 3023 	ldr.w	r3, [r2, r3, lsl #2]
 800704e:	63bb      	str	r3, [r7, #56]	; 0x38
	if (!fs) return FR_NOT_ENABLED;		/* Is the file system object available? */
 8007050:	6bbb      	ldr	r3, [r7, #56]	; 0x38
 8007052:	2b00      	cmp	r3, #0
 8007054:	d101      	bne.n	800705a <find_volume+0x3a>
 8007056:	230c      	movs	r3, #12
 8007058:	e224      	b.n	80074a4 <find_volume+0x484>

	ENTER_FF(fs);						/* Lock the volume */
	*rfs = fs;							/* Return pointer to the file system object */
 800705a:	68bb      	ldr	r3, [r7, #8]
 800705c:	6bba      	ldr	r2, [r7, #56]	; 0x38
 800705e:	601a      	str	r2, [r3, #0]

	mode &= (BYTE)~FA_READ;				/* Desired access mode, write access or not */
 8007060:	79fb      	ldrb	r3, [r7, #7]
 8007062:	f023 0301 	bic.w	r3, r3, #1
 8007066:	71fb      	strb	r3, [r7, #7]
	if (fs->fs_type) {					/* If the volume has been mounted */
 8007068:	6bbb      	ldr	r3, [r7, #56]	; 0x38
 800706a:	781b      	ldrb	r3, [r3, #0]
 800706c:	2b00      	cmp	r3, #0
 800706e:	d01a      	beq.n	80070a6 <find_volume+0x86>
		stat = disk_status(fs->drv);
 8007070:	6bbb      	ldr	r3, [r7, #56]	; 0x38
 8007072:	785b      	ldrb	r3, [r3, #1]
 8007074:	4618      	mov	r0, r3
 8007076:	f7fe fd1f 	bl	8005ab8 <disk_status>
 800707a:	4603      	mov	r3, r0
 800707c:	f887 3037 	strb.w	r3, [r7, #55]	; 0x37
		if (!(stat & STA_NOINIT)) {		/* and the physical drive is kept initialized */
 8007080:	f897 3037 	ldrb.w	r3, [r7, #55]	; 0x37
 8007084:	f003 0301 	and.w	r3, r3, #1
 8007088:	2b00      	cmp	r3, #0
 800708a:	d10c      	bne.n	80070a6 <find_volume+0x86>
			if (!_FS_READONLY && mode && (stat & STA_PROTECT)) {	/* Check write protection if needed */
 800708c:	79fb      	ldrb	r3, [r7, #7]
 800708e:	2b00      	cmp	r3, #0
 8007090:	d007      	beq.n	80070a2 <find_volume+0x82>
 8007092:	f897 3037 	ldrb.w	r3, [r7, #55]	; 0x37
 8007096:	f003 0304 	and.w	r3, r3, #4
 800709a:	2b00      	cmp	r3, #0
 800709c:	d001      	beq.n	80070a2 <find_volume+0x82>
				return FR_WRITE_PROTECTED;
 800709e:	230a      	movs	r3, #10
 80070a0:	e200      	b.n	80074a4 <find_volume+0x484>
			}
			return FR_OK;				/* The file system object is valid */
 80070a2:	2300      	movs	r3, #0
 80070a4:	e1fe      	b.n	80074a4 <find_volume+0x484>
	}

	/* The file system object is not valid. */
	/* Following code attempts to mount the volume. (analyze BPB and initialize the fs object) */

	fs->fs_type = 0;					/* Clear the file system object */
 80070a6:	6bbb      	ldr	r3, [r7, #56]	; 0x38
 80070a8:	2200      	movs	r2, #0
 80070aa:	701a      	strb	r2, [r3, #0]
	fs->drv = LD2PD(vol);				/* Bind the logical drive and a physical drive */
 80070ac:	6bfb      	ldr	r3, [r7, #60]	; 0x3c
 80070ae:	b2da      	uxtb	r2, r3
 80070b0:	6bbb      	ldr	r3, [r7, #56]	; 0x38
 80070b2:	705a      	strb	r2, [r3, #1]
	stat = disk_initialize(fs->drv);	/* Initialize the physical drive */
 80070b4:	6bbb      	ldr	r3, [r7, #56]	; 0x38
 80070b6:	785b      	ldrb	r3, [r3, #1]
 80070b8:	4618      	mov	r0, r3
 80070ba:	f7fe fd17 	bl	8005aec <disk_initialize>
 80070be:	4603      	mov	r3, r0
 80070c0:	f887 3037 	strb.w	r3, [r7, #55]	; 0x37
	if (stat & STA_NOINIT) { 			/* Check if the initialization succeeded */
 80070c4:	f897 3037 	ldrb.w	r3, [r7, #55]	; 0x37
 80070c8:	f003 0301 	and.w	r3, r3, #1
 80070cc:	2b00      	cmp	r3, #0
 80070ce:	d001      	beq.n	80070d4 <find_volume+0xb4>
		return FR_NOT_READY;			/* Failed to initialize due to no medium or hard error */
 80070d0:	2303      	movs	r3, #3
 80070d2:	e1e7      	b.n	80074a4 <find_volume+0x484>
	}
	if (!_FS_READONLY && mode && (stat & STA_PROTECT)) { /* Check disk write protection if needed */
 80070d4:	79fb      	ldrb	r3, [r7, #7]
 80070d6:	2b00      	cmp	r3, #0
 80070d8:	d007      	beq.n	80070ea <find_volume+0xca>
 80070da:	f897 3037 	ldrb.w	r3, [r7, #55]	; 0x37
 80070de:	f003 0304 	and.w	r3, r3, #4
 80070e2:	2b00      	cmp	r3, #0
 80070e4:	d001      	beq.n	80070ea <find_volume+0xca>
		return FR_WRITE_PROTECTED;
 80070e6:	230a      	movs	r3, #10
 80070e8:	e1dc      	b.n	80074a4 <find_volume+0x484>
	if (disk_ioctl(fs->drv, GET_SECTOR_SIZE, &SS(fs)) != RES_OK) return FR_DISK_ERR;
	if (SS(fs) > _MAX_SS || SS(fs) < _MIN_SS || (SS(fs) & (SS(fs) - 1))) return FR_DISK_ERR;
#endif

	/* Find an FAT partition on the drive. Supports only generic partitioning rules, FDISK and SFD. */
	bsect = 0;
 80070ea:	2300      	movs	r3, #0
 80070ec:	653b      	str	r3, [r7, #80]	; 0x50
	fmt = check_fs(fs, bsect);			/* Load sector 0 and check if it is an FAT-VBR as SFD */
 80070ee:	6d39      	ldr	r1, [r7, #80]	; 0x50
 80070f0:	6bb8      	ldr	r0, [r7, #56]	; 0x38
 80070f2:	f7ff ff3f 	bl	8006f74 <check_fs>
 80070f6:	4603      	mov	r3, r0
 80070f8:	f887 3057 	strb.w	r3, [r7, #87]	; 0x57
	if (fmt == 2 || (fmt < 2 && LD2PT(vol) != 0)) {	/* Not an FAT-VBR or forced partition number */
 80070fc:	f897 3057 	ldrb.w	r3, [r7, #87]	; 0x57
 8007100:	2b02      	cmp	r3, #2
 8007102:	d14b      	bne.n	800719c <find_volume+0x17c>
		for (i = 0; i < 4; i++) {		/* Get partition offset */
 8007104:	2300      	movs	r3, #0
 8007106:	643b      	str	r3, [r7, #64]	; 0x40
 8007108:	e01f      	b.n	800714a <find_volume+0x12a>
			pt = fs->win + (MBR_Table + i * SZ_PTE);
 800710a:	6bbb      	ldr	r3, [r7, #56]	; 0x38
 800710c:	f103 0230 	add.w	r2, r3, #48	; 0x30
 8007110:	6c3b      	ldr	r3, [r7, #64]	; 0x40
 8007112:	011b      	lsls	r3, r3, #4
 8007114:	f503 73df 	add.w	r3, r3, #446	; 0x1be
 8007118:	4413      	add	r3, r2
 800711a:	633b      	str	r3, [r7, #48]	; 0x30
			br[i] = pt[PTE_System] ? ld_dword(pt + PTE_StLba) : 0;
 800711c:	6b3b      	ldr	r3, [r7, #48]	; 0x30
 800711e:	3304      	adds	r3, #4
 8007120:	781b      	ldrb	r3, [r3, #0]
 8007122:	2b00      	cmp	r3, #0
 8007124:	d006      	beq.n	8007134 <find_volume+0x114>
 8007126:	6b3b      	ldr	r3, [r7, #48]	; 0x30
 8007128:	3308      	adds	r3, #8
 800712a:	4618      	mov	r0, r3
 800712c:	f7fe fd7a 	bl	8005c24 <ld_dword>
 8007130:	4602      	mov	r2, r0
 8007132:	e000      	b.n	8007136 <find_volume+0x116>
 8007134:	2200      	movs	r2, #0
 8007136:	6c3b      	ldr	r3, [r7, #64]	; 0x40
 8007138:	009b      	lsls	r3, r3, #2
 800713a:	f107 0158 	add.w	r1, r7, #88	; 0x58
 800713e:	440b      	add	r3, r1
 8007140:	f843 2c44 	str.w	r2, [r3, #-68]
		for (i = 0; i < 4; i++) {		/* Get partition offset */
 8007144:	6c3b      	ldr	r3, [r7, #64]	; 0x40
 8007146:	3301      	adds	r3, #1
 8007148:	643b      	str	r3, [r7, #64]	; 0x40
 800714a:	6c3b      	ldr	r3, [r7, #64]	; 0x40
 800714c:	2b03      	cmp	r3, #3
 800714e:	d9dc      	bls.n	800710a <find_volume+0xea>
		}
		i = LD2PT(vol);					/* Partition number: 0:auto, 1-4:forced */
 8007150:	2300      	movs	r3, #0
 8007152:	643b      	str	r3, [r7, #64]	; 0x40
		if (i) i--;
 8007154:	6c3b      	ldr	r3, [r7, #64]	; 0x40
 8007156:	2b00      	cmp	r3, #0
 8007158:	d002      	beq.n	8007160 <find_volume+0x140>
 800715a:	6c3b      	ldr	r3, [r7, #64]	; 0x40
 800715c:	3b01      	subs	r3, #1
 800715e:	643b      	str	r3, [r7, #64]	; 0x40
		do {							/* Find an FAT volume */
			bsect = br[i];
 8007160:	6c3b      	ldr	r3, [r7, #64]	; 0x40
 8007162:	009b      	lsls	r3, r3, #2
 8007164:	f107 0258 	add.w	r2, r7, #88	; 0x58
 8007168:	4413      	add	r3, r2
 800716a:	f853 3c44 	ldr.w	r3, [r3, #-68]
 800716e:	653b      	str	r3, [r7, #80]	; 0x50
			fmt = bsect ? check_fs(fs, bsect) : 3;	/* Check the partition */
 8007170:	6d3b      	ldr	r3, [r7, #80]	; 0x50
 8007172:	2b00      	cmp	r3, #0
 8007174:	d005      	beq.n	8007182 <find_volume+0x162>
 8007176:	6d39      	ldr	r1, [r7, #80]	; 0x50
 8007178:	6bb8      	ldr	r0, [r7, #56]	; 0x38
 800717a:	f7ff fefb 	bl	8006f74 <check_fs>
 800717e:	4603      	mov	r3, r0
 8007180:	e000      	b.n	8007184 <find_volume+0x164>
 8007182:	2303      	movs	r3, #3
 8007184:	f887 3057 	strb.w	r3, [r7, #87]	; 0x57
		} while (LD2PT(vol) == 0 && fmt >= 2 && ++i < 4);
 8007188:	f897 3057 	ldrb.w	r3, [r7, #87]	; 0x57
 800718c:	2b01      	cmp	r3, #1
 800718e:	d905      	bls.n	800719c <find_volume+0x17c>
 8007190:	6c3b      	ldr	r3, [r7, #64]	; 0x40
 8007192:	3301      	adds	r3, #1
 8007194:	643b      	str	r3, [r7, #64]	; 0x40
 8007196:	6c3b      	ldr	r3, [r7, #64]	; 0x40
 8007198:	2b03      	cmp	r3, #3
 800719a:	d9e1      	bls.n	8007160 <find_volume+0x140>
	}
	if (fmt == 4) return FR_DISK_ERR;		/* An error occured in the disk I/O layer */
 800719c:	f897 3057 	ldrb.w	r3, [r7, #87]	; 0x57
 80071a0:	2b04      	cmp	r3, #4
 80071a2:	d101      	bne.n	80071a8 <find_volume+0x188>
 80071a4:	2301      	movs	r3, #1
 80071a6:	e17d      	b.n	80074a4 <find_volume+0x484>
	if (fmt >= 2) return FR_NO_FILESYSTEM;	/* No FAT volume is found */
 80071a8:	f897 3057 	ldrb.w	r3, [r7, #87]	; 0x57
 80071ac:	2b01      	cmp	r3, #1
 80071ae:	d901      	bls.n	80071b4 <find_volume+0x194>
 80071b0:	230d      	movs	r3, #13
 80071b2:	e177      	b.n	80074a4 <find_volume+0x484>
#endif
		fmt = FS_EXFAT;			/* FAT sub-type */
	} else
#endif	/* _FS_EXFAT */
	{
		if (ld_word(fs->win + BPB_BytsPerSec) != SS(fs)) return FR_NO_FILESYSTEM;	/* (BPB_BytsPerSec must be equal to the physical sector size) */
 80071b4:	6bbb      	ldr	r3, [r7, #56]	; 0x38
 80071b6:	3330      	adds	r3, #48	; 0x30
 80071b8:	330b      	adds	r3, #11
 80071ba:	4618      	mov	r0, r3
 80071bc:	f7fe fd1a 	bl	8005bf4 <ld_word>
 80071c0:	4603      	mov	r3, r0
 80071c2:	f5b3 7f00 	cmp.w	r3, #512	; 0x200
 80071c6:	d001      	beq.n	80071cc <find_volume+0x1ac>
 80071c8:	230d      	movs	r3, #13
 80071ca:	e16b      	b.n	80074a4 <find_volume+0x484>

		fasize = ld_word(fs->win + BPB_FATSz16);		/* Number of sectors per FAT */
 80071cc:	6bbb      	ldr	r3, [r7, #56]	; 0x38
 80071ce:	3330      	adds	r3, #48	; 0x30
 80071d0:	3316      	adds	r3, #22
 80071d2:	4618      	mov	r0, r3
 80071d4:	f7fe fd0e 	bl	8005bf4 <ld_word>
 80071d8:	4603      	mov	r3, r0
 80071da:	64fb      	str	r3, [r7, #76]	; 0x4c
		if (fasize == 0) fasize = ld_dword(fs->win + BPB_FATSz32);
 80071dc:	6cfb      	ldr	r3, [r7, #76]	; 0x4c
 80071de:	2b00      	cmp	r3, #0
 80071e0:	d106      	bne.n	80071f0 <find_volume+0x1d0>
 80071e2:	6bbb      	ldr	r3, [r7, #56]	; 0x38
 80071e4:	3330      	adds	r3, #48	; 0x30
 80071e6:	3324      	adds	r3, #36	; 0x24
 80071e8:	4618      	mov	r0, r3
 80071ea:	f7fe fd1b 	bl	8005c24 <ld_dword>
 80071ee:	64f8      	str	r0, [r7, #76]	; 0x4c
		fs->fsize = fasize;
 80071f0:	6bbb      	ldr	r3, [r7, #56]	; 0x38
 80071f2:	6cfa      	ldr	r2, [r7, #76]	; 0x4c
 80071f4:	619a      	str	r2, [r3, #24]

		fs->n_fats = fs->win[BPB_NumFATs];				/* Number of FATs */
 80071f6:	6bbb      	ldr	r3, [r7, #56]	; 0x38
 80071f8:	f893 2040 	ldrb.w	r2, [r3, #64]	; 0x40
 80071fc:	6bbb      	ldr	r3, [r7, #56]	; 0x38
 80071fe:	709a      	strb	r2, [r3, #2]
		if (fs->n_fats != 1 && fs->n_fats != 2) return FR_NO_FILESYSTEM;	/* (Must be 1 or 2) */
 8007200:	6bbb      	ldr	r3, [r7, #56]	; 0x38
 8007202:	789b      	ldrb	r3, [r3, #2]
 8007204:	2b01      	cmp	r3, #1
 8007206:	d005      	beq.n	8007214 <find_volume+0x1f4>
 8007208:	6bbb      	ldr	r3, [r7, #56]	; 0x38
 800720a:	789b      	ldrb	r3, [r3, #2]
 800720c:	2b02      	cmp	r3, #2
 800720e:	d001      	beq.n	8007214 <find_volume+0x1f4>
 8007210:	230d      	movs	r3, #13
 8007212:	e147      	b.n	80074a4 <find_volume+0x484>
		fasize *= fs->n_fats;							/* Number of sectors for FAT area */
 8007214:	6bbb      	ldr	r3, [r7, #56]	; 0x38
 8007216:	789b      	ldrb	r3, [r3, #2]
 8007218:	461a      	mov	r2, r3
 800721a:	6cfb      	ldr	r3, [r7, #76]	; 0x4c
 800721c:	fb02 f303 	mul.w	r3, r2, r3
 8007220:	64fb      	str	r3, [r7, #76]	; 0x4c

		fs->csize = fs->win[BPB_SecPerClus];			/* Cluster size */
 8007222:	6bbb      	ldr	r3, [r7, #56]	; 0x38
 8007224:	f893 303d 	ldrb.w	r3, [r3, #61]	; 0x3d
 8007228:	b29a      	uxth	r2, r3
 800722a:	6bbb      	ldr	r3, [r7, #56]	; 0x38
 800722c:	815a      	strh	r2, [r3, #10]
		if (fs->csize == 0 || (fs->csize & (fs->csize - 1))) return FR_NO_FILESYSTEM;	/* (Must be power of 2) */
 800722e:	6bbb      	ldr	r3, [r7, #56]	; 0x38
 8007230:	895b      	ldrh	r3, [r3, #10]
 8007232:	2b00      	cmp	r3, #0
 8007234:	d008      	beq.n	8007248 <find_volume+0x228>
 8007236:	6bbb      	ldr	r3, [r7, #56]	; 0x38
 8007238:	895b      	ldrh	r3, [r3, #10]
 800723a:	461a      	mov	r2, r3
 800723c:	6bbb      	ldr	r3, [r7, #56]	; 0x38
 800723e:	895b      	ldrh	r3, [r3, #10]
 8007240:	3b01      	subs	r3, #1
 8007242:	4013      	ands	r3, r2
 8007244:	2b00      	cmp	r3, #0
 8007246:	d001      	beq.n	800724c <find_volume+0x22c>
 8007248:	230d      	movs	r3, #13
 800724a:	e12b      	b.n	80074a4 <find_volume+0x484>

		fs->n_rootdir = ld_word(fs->win + BPB_RootEntCnt);	/* Number of root directory entries */
 800724c:	6bbb      	ldr	r3, [r7, #56]	; 0x38
 800724e:	3330      	adds	r3, #48	; 0x30
 8007250:	3311      	adds	r3, #17
 8007252:	4618      	mov	r0, r3
 8007254:	f7fe fcce 	bl	8005bf4 <ld_word>
 8007258:	4603      	mov	r3, r0
 800725a:	461a      	mov	r2, r3
 800725c:	6bbb      	ldr	r3, [r7, #56]	; 0x38
 800725e:	811a      	strh	r2, [r3, #8]
		if (fs->n_rootdir % (SS(fs) / SZDIRE)) return FR_NO_FILESYSTEM;	/* (Must be sector aligned) */
 8007260:	6bbb      	ldr	r3, [r7, #56]	; 0x38
 8007262:	891b      	ldrh	r3, [r3, #8]
 8007264:	f003 030f 	and.w	r3, r3, #15
 8007268:	b29b      	uxth	r3, r3
 800726a:	2b00      	cmp	r3, #0
 800726c:	d001      	beq.n	8007272 <find_volume+0x252>
 800726e:	230d      	movs	r3, #13
 8007270:	e118      	b.n	80074a4 <find_volume+0x484>

		tsect = ld_word(fs->win + BPB_TotSec16);		/* Number of sectors on the volume */
 8007272:	6bbb      	ldr	r3, [r7, #56]	; 0x38
 8007274:	3330      	adds	r3, #48	; 0x30
 8007276:	3313      	adds	r3, #19
 8007278:	4618      	mov	r0, r3
 800727a:	f7fe fcbb 	bl	8005bf4 <ld_word>
 800727e:	4603      	mov	r3, r0
 8007280:	64bb      	str	r3, [r7, #72]	; 0x48
		if (tsect == 0) tsect = ld_dword(fs->win + BPB_TotSec32);
 8007282:	6cbb      	ldr	r3, [r7, #72]	; 0x48
 8007284:	2b00      	cmp	r3, #0
 8007286:	d106      	bne.n	8007296 <find_volume+0x276>
 8007288:	6bbb      	ldr	r3, [r7, #56]	; 0x38
 800728a:	3330      	adds	r3, #48	; 0x30
 800728c:	3320      	adds	r3, #32
 800728e:	4618      	mov	r0, r3
 8007290:	f7fe fcc8 	bl	8005c24 <ld_dword>
 8007294:	64b8      	str	r0, [r7, #72]	; 0x48

		nrsv = ld_word(fs->win + BPB_RsvdSecCnt);		/* Number of reserved sectors */
 8007296:	6bbb      	ldr	r3, [r7, #56]	; 0x38
 8007298:	3330      	adds	r3, #48	; 0x30
 800729a:	330e      	adds	r3, #14
 800729c:	4618      	mov	r0, r3
 800729e:	f7fe fca9 	bl	8005bf4 <ld_word>
 80072a2:	4603      	mov	r3, r0
 80072a4:	85fb      	strh	r3, [r7, #46]	; 0x2e
		if (nrsv == 0) return FR_NO_FILESYSTEM;			/* (Must not be 0) */
 80072a6:	8dfb      	ldrh	r3, [r7, #46]	; 0x2e
 80072a8:	2b00      	cmp	r3, #0
 80072aa:	d101      	bne.n	80072b0 <find_volume+0x290>
 80072ac:	230d      	movs	r3, #13
 80072ae:	e0f9      	b.n	80074a4 <find_volume+0x484>

		/* Determine the FAT sub type */
		sysect = nrsv + fasize + fs->n_rootdir / (SS(fs) / SZDIRE);	/* RSV + FAT + DIR */
 80072b0:	8dfa      	ldrh	r2, [r7, #46]	; 0x2e
 80072b2:	6cfb      	ldr	r3, [r7, #76]	; 0x4c
 80072b4:	4413      	add	r3, r2
 80072b6:	6bba      	ldr	r2, [r7, #56]	; 0x38
 80072b8:	8912      	ldrh	r2, [r2, #8]
 80072ba:	0912      	lsrs	r2, r2, #4
 80072bc:	b292      	uxth	r2, r2
 80072be:	4413      	add	r3, r2
 80072c0:	62bb      	str	r3, [r7, #40]	; 0x28
		if (tsect < sysect) return FR_NO_FILESYSTEM;	/* (Invalid volume size) */
 80072c2:	6cba      	ldr	r2, [r7, #72]	; 0x48
 80072c4:	6abb      	ldr	r3, [r7, #40]	; 0x28
 80072c6:	429a      	cmp	r2, r3
 80072c8:	d201      	bcs.n	80072ce <find_volume+0x2ae>
 80072ca:	230d      	movs	r3, #13
 80072cc:	e0ea      	b.n	80074a4 <find_volume+0x484>
		nclst = (tsect - sysect) / fs->csize;			/* Number of clusters */
 80072ce:	6cba      	ldr	r2, [r7, #72]	; 0x48
 80072d0:	6abb      	ldr	r3, [r7, #40]	; 0x28
 80072d2:	1ad3      	subs	r3, r2, r3
 80072d4:	6bba      	ldr	r2, [r7, #56]	; 0x38
 80072d6:	8952      	ldrh	r2, [r2, #10]
 80072d8:	fbb3 f3f2 	udiv	r3, r3, r2
 80072dc:	627b      	str	r3, [r7, #36]	; 0x24
		if (nclst == 0) return FR_NO_FILESYSTEM;		/* (Invalid volume size) */
 80072de:	6a7b      	ldr	r3, [r7, #36]	; 0x24
 80072e0:	2b00      	cmp	r3, #0
 80072e2:	d103      	bne.n	80072ec <find_volume+0x2cc>
 80072e4:	230d      	movs	r3, #13
 80072e6:	e0dd      	b.n	80074a4 <find_volume+0x484>
 80072e8:	20000718 	.word	0x20000718
		fmt = FS_FAT32;
 80072ec:	2303      	movs	r3, #3
 80072ee:	f887 3057 	strb.w	r3, [r7, #87]	; 0x57
		if (nclst <= MAX_FAT16) fmt = FS_FAT16;
 80072f2:	6a7b      	ldr	r3, [r7, #36]	; 0x24
 80072f4:	f64f 72f5 	movw	r2, #65525	; 0xfff5
 80072f8:	4293      	cmp	r3, r2
 80072fa:	d802      	bhi.n	8007302 <find_volume+0x2e2>
 80072fc:	2302      	movs	r3, #2
 80072fe:	f887 3057 	strb.w	r3, [r7, #87]	; 0x57
		if (nclst <= MAX_FAT12) fmt = FS_FAT12;
 8007302:	6a7b      	ldr	r3, [r7, #36]	; 0x24
 8007304:	f640 72f5 	movw	r2, #4085	; 0xff5
 8007308:	4293      	cmp	r3, r2
 800730a:	d802      	bhi.n	8007312 <find_volume+0x2f2>
 800730c:	2301      	movs	r3, #1
 800730e:	f887 3057 	strb.w	r3, [r7, #87]	; 0x57

		/* Boundaries and Limits */
		fs->n_fatent = nclst + 2;						/* Number of FAT entries */
 8007312:	6a7b      	ldr	r3, [r7, #36]	; 0x24
 8007314:	1c9a      	adds	r2, r3, #2
 8007316:	6bbb      	ldr	r3, [r7, #56]	; 0x38
 8007318:	615a      	str	r2, [r3, #20]
		fs->volbase = bsect;							/* Volume start sector */
 800731a:	6bbb      	ldr	r3, [r7, #56]	; 0x38
 800731c:	6d3a      	ldr	r2, [r7, #80]	; 0x50
 800731e:	61da      	str	r2, [r3, #28]
		fs->fatbase = bsect + nrsv; 					/* FAT start sector */
 8007320:	8dfa      	ldrh	r2, [r7, #46]	; 0x2e
 8007322:	6d3b      	ldr	r3, [r7, #80]	; 0x50
 8007324:	441a      	add	r2, r3
 8007326:	6bbb      	ldr	r3, [r7, #56]	; 0x38
 8007328:	621a      	str	r2, [r3, #32]
		fs->database = bsect + sysect;					/* Data start sector */
 800732a:	6d3a      	ldr	r2, [r7, #80]	; 0x50
 800732c:	6abb      	ldr	r3, [r7, #40]	; 0x28
 800732e:	441a      	add	r2, r3
 8007330:	6bbb      	ldr	r3, [r7, #56]	; 0x38
 8007332:	629a      	str	r2, [r3, #40]	; 0x28
		if (fmt == FS_FAT32) {
 8007334:	f897 3057 	ldrb.w	r3, [r7, #87]	; 0x57
 8007338:	2b03      	cmp	r3, #3
 800733a:	d11e      	bne.n	800737a <find_volume+0x35a>
			if (ld_word(fs->win + BPB_FSVer32) != 0) return FR_NO_FILESYSTEM;	/* (Must be FAT32 revision 0.0) */
 800733c:	6bbb      	ldr	r3, [r7, #56]	; 0x38
 800733e:	3330      	adds	r3, #48	; 0x30
 8007340:	332a      	adds	r3, #42	; 0x2a
 8007342:	4618      	mov	r0, r3
 8007344:	f7fe fc56 	bl	8005bf4 <ld_word>
 8007348:	4603      	mov	r3, r0
 800734a:	2b00      	cmp	r3, #0
 800734c:	d001      	beq.n	8007352 <find_volume+0x332>
 800734e:	230d      	movs	r3, #13
 8007350:	e0a8      	b.n	80074a4 <find_volume+0x484>
			if (fs->n_rootdir) return FR_NO_FILESYSTEM;	/* (BPB_RootEntCnt must be 0) */
 8007352:	6bbb      	ldr	r3, [r7, #56]	; 0x38
 8007354:	891b      	ldrh	r3, [r3, #8]
 8007356:	2b00      	cmp	r3, #0
 8007358:	d001      	beq.n	800735e <find_volume+0x33e>
 800735a:	230d      	movs	r3, #13
 800735c:	e0a2      	b.n	80074a4 <find_volume+0x484>
			fs->dirbase = ld_dword(fs->win + BPB_RootClus32);	/* Root directory start cluster */
 800735e:	6bbb      	ldr	r3, [r7, #56]	; 0x38
 8007360:	3330      	adds	r3, #48	; 0x30
 8007362:	332c      	adds	r3, #44	; 0x2c
 8007364:	4618      	mov	r0, r3
 8007366:	f7fe fc5d 	bl	8005c24 <ld_dword>
 800736a:	4602      	mov	r2, r0
 800736c:	6bbb      	ldr	r3, [r7, #56]	; 0x38
 800736e:	625a      	str	r2, [r3, #36]	; 0x24
			szbfat = fs->n_fatent * 4;					/* (Needed FAT size) */
 8007370:	6bbb      	ldr	r3, [r7, #56]	; 0x38
 8007372:	695b      	ldr	r3, [r3, #20]
 8007374:	009b      	lsls	r3, r3, #2
 8007376:	647b      	str	r3, [r7, #68]	; 0x44
 8007378:	e01f      	b.n	80073ba <find_volume+0x39a>
		} else {
			if (fs->n_rootdir == 0)	return FR_NO_FILESYSTEM;/* (BPB_RootEntCnt must not be 0) */
 800737a:	6bbb      	ldr	r3, [r7, #56]	; 0x38
 800737c:	891b      	ldrh	r3, [r3, #8]
 800737e:	2b00      	cmp	r3, #0
 8007380:	d101      	bne.n	8007386 <find_volume+0x366>
 8007382:	230d      	movs	r3, #13
 8007384:	e08e      	b.n	80074a4 <find_volume+0x484>
			fs->dirbase = fs->fatbase + fasize;			/* Root directory start sector */
 8007386:	6bbb      	ldr	r3, [r7, #56]	; 0x38
 8007388:	6a1a      	ldr	r2, [r3, #32]
 800738a:	6cfb      	ldr	r3, [r7, #76]	; 0x4c
 800738c:	441a      	add	r2, r3
 800738e:	6bbb      	ldr	r3, [r7, #56]	; 0x38
 8007390:	625a      	str	r2, [r3, #36]	; 0x24
			szbfat = (fmt == FS_FAT16) ?				/* (Needed FAT size) */
				fs->n_fatent * 2 : fs->n_fatent * 3 / 2 + (fs->n_fatent & 1);
 8007392:	f897 3057 	ldrb.w	r3, [r7, #87]	; 0x57
 8007396:	2b02      	cmp	r3, #2
 8007398:	d103      	bne.n	80073a2 <find_volume+0x382>
 800739a:	6bbb      	ldr	r3, [r7, #56]	; 0x38
 800739c:	695b      	ldr	r3, [r3, #20]
 800739e:	005b      	lsls	r3, r3, #1
 80073a0:	e00a      	b.n	80073b8 <find_volume+0x398>
 80073a2:	6bbb      	ldr	r3, [r7, #56]	; 0x38
 80073a4:	695a      	ldr	r2, [r3, #20]
 80073a6:	4613      	mov	r3, r2
 80073a8:	005b      	lsls	r3, r3, #1
 80073aa:	4413      	add	r3, r2
 80073ac:	085a      	lsrs	r2, r3, #1
 80073ae:	6bbb      	ldr	r3, [r7, #56]	; 0x38
 80073b0:	695b      	ldr	r3, [r3, #20]
 80073b2:	f003 0301 	and.w	r3, r3, #1
 80073b6:	4413      	add	r3, r2
			szbfat = (fmt == FS_FAT16) ?				/* (Needed FAT size) */
 80073b8:	647b      	str	r3, [r7, #68]	; 0x44
		}
		if (fs->fsize < (szbfat + (SS(fs) - 1)) / SS(fs)) return FR_NO_FILESYSTEM;	/* (BPB_FATSz must not be less than the size needed) */
 80073ba:	6bbb      	ldr	r3, [r7, #56]	; 0x38
 80073bc:	699a      	ldr	r2, [r3, #24]
 80073be:	6c7b      	ldr	r3, [r7, #68]	; 0x44
 80073c0:	f203 13ff 	addw	r3, r3, #511	; 0x1ff
 80073c4:	0a5b      	lsrs	r3, r3, #9
 80073c6:	429a      	cmp	r2, r3
 80073c8:	d201      	bcs.n	80073ce <find_volume+0x3ae>
 80073ca:	230d      	movs	r3, #13
 80073cc:	e06a      	b.n	80074a4 <find_volume+0x484>

#if !_FS_READONLY
		/* Get FSINFO if available */
		fs->last_clst = fs->free_clst = 0xFFFFFFFF;		/* Initialize cluster allocation information */
 80073ce:	6bbb      	ldr	r3, [r7, #56]	; 0x38
 80073d0:	f04f 32ff 	mov.w	r2, #4294967295
 80073d4:	611a      	str	r2, [r3, #16]
 80073d6:	6bbb      	ldr	r3, [r7, #56]	; 0x38
 80073d8:	691a      	ldr	r2, [r3, #16]
 80073da:	6bbb      	ldr	r3, [r7, #56]	; 0x38
 80073dc:	60da      	str	r2, [r3, #12]
		fs->fsi_flag = 0x80;
 80073de:	6bbb      	ldr	r3, [r7, #56]	; 0x38
 80073e0:	2280      	movs	r2, #128	; 0x80
 80073e2:	711a      	strb	r2, [r3, #4]
#if (_FS_NOFSINFO & 3) != 3
		if (fmt == FS_FAT32				/* Enable FSINFO only if FAT32 and BPB_FSInfo32 == 1 */
 80073e4:	f897 3057 	ldrb.w	r3, [r7, #87]	; 0x57
 80073e8:	2b03      	cmp	r3, #3
 80073ea:	d149      	bne.n	8007480 <find_volume+0x460>
			&& ld_word(fs->win + BPB_FSInfo32) == 1
 80073ec:	6bbb      	ldr	r3, [r7, #56]	; 0x38
 80073ee:	3330      	adds	r3, #48	; 0x30
 80073f0:	3330      	adds	r3, #48	; 0x30
 80073f2:	4618      	mov	r0, r3
 80073f4:	f7fe fbfe 	bl	8005bf4 <ld_word>
 80073f8:	4603      	mov	r3, r0
 80073fa:	2b01      	cmp	r3, #1
 80073fc:	d140      	bne.n	8007480 <find_volume+0x460>
			&& move_window(fs, bsect + 1) == FR_OK)
 80073fe:	6d3b      	ldr	r3, [r7, #80]	; 0x50
 8007400:	3301      	adds	r3, #1
 8007402:	4619      	mov	r1, r3
 8007404:	6bb8      	ldr	r0, [r7, #56]	; 0x38
 8007406:	f7fe fea5 	bl	8006154 <move_window>
 800740a:	4603      	mov	r3, r0
 800740c:	2b00      	cmp	r3, #0
 800740e:	d137      	bne.n	8007480 <find_volume+0x460>
		{
			fs->fsi_flag = 0;
 8007410:	6bbb      	ldr	r3, [r7, #56]	; 0x38
 8007412:	2200      	movs	r2, #0
 8007414:	711a      	strb	r2, [r3, #4]
			if (ld_word(fs->win + BS_55AA) == 0xAA55	/* Load FSINFO data if available */
 8007416:	6bbb      	ldr	r3, [r7, #56]	; 0x38
 8007418:	3330      	adds	r3, #48	; 0x30
 800741a:	f503 73ff 	add.w	r3, r3, #510	; 0x1fe
 800741e:	4618      	mov	r0, r3
 8007420:	f7fe fbe8 	bl	8005bf4 <ld_word>
 8007424:	4603      	mov	r3, r0
 8007426:	461a      	mov	r2, r3
 8007428:	f64a 2355 	movw	r3, #43605	; 0xaa55
 800742c:	429a      	cmp	r2, r3
 800742e:	d127      	bne.n	8007480 <find_volume+0x460>
				&& ld_dword(fs->win + FSI_LeadSig) == 0x41615252
 8007430:	6bbb      	ldr	r3, [r7, #56]	; 0x38
 8007432:	3330      	adds	r3, #48	; 0x30
 8007434:	4618      	mov	r0, r3
 8007436:	f7fe fbf5 	bl	8005c24 <ld_dword>
 800743a:	4602      	mov	r2, r0
 800743c:	4b1b      	ldr	r3, [pc, #108]	; (80074ac <find_volume+0x48c>)
 800743e:	429a      	cmp	r2, r3
 8007440:	d11e      	bne.n	8007480 <find_volume+0x460>
				&& ld_dword(fs->win + FSI_StrucSig) == 0x61417272)
 8007442:	6bbb      	ldr	r3, [r7, #56]	; 0x38
 8007444:	3330      	adds	r3, #48	; 0x30
 8007446:	f503 73f2 	add.w	r3, r3, #484	; 0x1e4
 800744a:	4618      	mov	r0, r3
 800744c:	f7fe fbea 	bl	8005c24 <ld_dword>
 8007450:	4602      	mov	r2, r0
 8007452:	4b17      	ldr	r3, [pc, #92]	; (80074b0 <find_volume+0x490>)
 8007454:	429a      	cmp	r2, r3
 8007456:	d113      	bne.n	8007480 <find_volume+0x460>
			{
#if (_FS_NOFSINFO & 1) == 0
				fs->free_clst = ld_dword(fs->win + FSI_Free_Count);
 8007458:	6bbb      	ldr	r3, [r7, #56]	; 0x38
 800745a:	3330      	adds	r3, #48	; 0x30
 800745c:	f503 73f4 	add.w	r3, r3, #488	; 0x1e8
 8007460:	4618      	mov	r0, r3
 8007462:	f7fe fbdf 	bl	8005c24 <ld_dword>
 8007466:	4602      	mov	r2, r0
 8007468:	6bbb      	ldr	r3, [r7, #56]	; 0x38
 800746a:	611a      	str	r2, [r3, #16]
#endif
#if (_FS_NOFSINFO & 2) == 0
				fs->last_clst = ld_dword(fs->win + FSI_Nxt_Free);
 800746c:	6bbb      	ldr	r3, [r7, #56]	; 0x38
 800746e:	3330      	adds	r3, #48	; 0x30
 8007470:	f503 73f6 	add.w	r3, r3, #492	; 0x1ec
 8007474:	4618      	mov	r0, r3
 8007476:	f7fe fbd5 	bl	8005c24 <ld_dword>
 800747a:	4602      	mov	r2, r0
 800747c:	6bbb      	ldr	r3, [r7, #56]	; 0x38
 800747e:	60da      	str	r2, [r3, #12]
		}
#endif	/* (_FS_NOFSINFO & 3) != 3 */
#endif	/* !_FS_READONLY */
	}

	fs->fs_type = fmt;		/* FAT sub-type */
 8007480:	6bbb      	ldr	r3, [r7, #56]	; 0x38
 8007482:	f897 2057 	ldrb.w	r2, [r7, #87]	; 0x57
 8007486:	701a      	strb	r2, [r3, #0]
	fs->id = ++Fsid;		/* File system mount ID */
 8007488:	4b0a      	ldr	r3, [pc, #40]	; (80074b4 <find_volume+0x494>)
 800748a:	881b      	ldrh	r3, [r3, #0]
 800748c:	3301      	adds	r3, #1
 800748e:	b29a      	uxth	r2, r3
 8007490:	4b08      	ldr	r3, [pc, #32]	; (80074b4 <find_volume+0x494>)
 8007492:	801a      	strh	r2, [r3, #0]
 8007494:	4b07      	ldr	r3, [pc, #28]	; (80074b4 <find_volume+0x494>)
 8007496:	881a      	ldrh	r2, [r3, #0]
 8007498:	6bbb      	ldr	r3, [r7, #56]	; 0x38
 800749a:	80da      	strh	r2, [r3, #6]
#endif
#if _FS_RPATH != 0
	fs->cdir = 0;			/* Initialize current directory */
#endif
#if _FS_LOCK != 0			/* Clear file lock semaphores */
	clear_lock(fs);
 800749c:	6bb8      	ldr	r0, [r7, #56]	; 0x38
 800749e:	f7fe fdf1 	bl	8006084 <clear_lock>
#endif
	return FR_OK;
 80074a2:	2300      	movs	r3, #0
}
 80074a4:	4618      	mov	r0, r3
 80074a6:	3758      	adds	r7, #88	; 0x58
 80074a8:	46bd      	mov	sp, r7
 80074aa:	bd80      	pop	{r7, pc}
 80074ac:	41615252 	.word	0x41615252
 80074b0:	61417272 	.word	0x61417272
 80074b4:	2000071c 	.word	0x2000071c

080074b8 <validate>:
static
FRESULT validate (	/* Returns FR_OK or FR_INVALID_OBJECT */
	_FDID* obj,		/* Pointer to the _OBJ, the 1st member in the FIL/DIR object, to check validity */
	FATFS** fs		/* Pointer to pointer to the owner file system object to return */
)
{
 80074b8:	b580      	push	{r7, lr}
 80074ba:	b084      	sub	sp, #16
 80074bc:	af00      	add	r7, sp, #0
 80074be:	6078      	str	r0, [r7, #4]
 80074c0:	6039      	str	r1, [r7, #0]
	FRESULT res = FR_INVALID_OBJECT;
 80074c2:	2309      	movs	r3, #9
 80074c4:	73fb      	strb	r3, [r7, #15]


	if (obj && obj->fs && obj->fs->fs_type && obj->id == obj->fs->id) {	/* Test if the object is valid */
 80074c6:	687b      	ldr	r3, [r7, #4]
 80074c8:	2b00      	cmp	r3, #0
 80074ca:	d01c      	beq.n	8007506 <validate+0x4e>
 80074cc:	687b      	ldr	r3, [r7, #4]
 80074ce:	681b      	ldr	r3, [r3, #0]
 80074d0:	2b00      	cmp	r3, #0
 80074d2:	d018      	beq.n	8007506 <validate+0x4e>
 80074d4:	687b      	ldr	r3, [r7, #4]
 80074d6:	681b      	ldr	r3, [r3, #0]
 80074d8:	781b      	ldrb	r3, [r3, #0]
 80074da:	2b00      	cmp	r3, #0
 80074dc:	d013      	beq.n	8007506 <validate+0x4e>
 80074de:	687b      	ldr	r3, [r7, #4]
 80074e0:	889a      	ldrh	r2, [r3, #4]
 80074e2:	687b      	ldr	r3, [r7, #4]
 80074e4:	681b      	ldr	r3, [r3, #0]
 80074e6:	88db      	ldrh	r3, [r3, #6]
 80074e8:	429a      	cmp	r2, r3
 80074ea:	d10c      	bne.n	8007506 <validate+0x4e>
			}
		} else {
			res = FR_TIMEOUT;
		}
#else
		if (!(disk_status(obj->fs->drv) & STA_NOINIT)) { /* Test if the phsical drive is kept initialized */
 80074ec:	687b      	ldr	r3, [r7, #4]
 80074ee:	681b      	ldr	r3, [r3, #0]
 80074f0:	785b      	ldrb	r3, [r3, #1]
 80074f2:	4618      	mov	r0, r3
 80074f4:	f7fe fae0 	bl	8005ab8 <disk_status>
 80074f8:	4603      	mov	r3, r0
 80074fa:	f003 0301 	and.w	r3, r3, #1
 80074fe:	2b00      	cmp	r3, #0
 8007500:	d101      	bne.n	8007506 <validate+0x4e>
			res = FR_OK;
 8007502:	2300      	movs	r3, #0
 8007504:	73fb      	strb	r3, [r7, #15]
		}
#endif
	}
	*fs = (res == FR_OK) ? obj->fs : 0;	/* Corresponding filesystem object */
 8007506:	7bfb      	ldrb	r3, [r7, #15]
 8007508:	2b00      	cmp	r3, #0
 800750a:	d102      	bne.n	8007512 <validate+0x5a>
 800750c:	687b      	ldr	r3, [r7, #4]
 800750e:	681b      	ldr	r3, [r3, #0]
 8007510:	e000      	b.n	8007514 <validate+0x5c>
 8007512:	2300      	movs	r3, #0
 8007514:	683a      	ldr	r2, [r7, #0]
 8007516:	6013      	str	r3, [r2, #0]
	return res;
 8007518:	7bfb      	ldrb	r3, [r7, #15]
}
 800751a:	4618      	mov	r0, r3
 800751c:	3710      	adds	r7, #16
 800751e:	46bd      	mov	sp, r7
 8007520:	bd80      	pop	{r7, pc}
	...

08007524 <f_mount>:
FRESULT f_mount (
	FATFS* fs,			/* Pointer to the file system object (NULL:unmount)*/
	const TCHAR* path,	/* Logical drive number to be mounted/unmounted */
	BYTE opt			/* Mode option 0:Do not mount (delayed mount), 1:Mount immediately */
)
{
 8007524:	b580      	push	{r7, lr}
 8007526:	b088      	sub	sp, #32
 8007528:	af00      	add	r7, sp, #0
 800752a:	60f8      	str	r0, [r7, #12]
 800752c:	60b9      	str	r1, [r7, #8]
 800752e:	4613      	mov	r3, r2
 8007530:	71fb      	strb	r3, [r7, #7]
	FATFS *cfs;
	int vol;
	FRESULT res;
	const TCHAR *rp = path;
 8007532:	68bb      	ldr	r3, [r7, #8]
 8007534:	613b      	str	r3, [r7, #16]


	/* Get logical drive number */
	vol = get_ldnumber(&rp);
 8007536:	f107 0310 	add.w	r3, r7, #16
 800753a:	4618      	mov	r0, r3
 800753c:	f7ff fcd5 	bl	8006eea <get_ldnumber>
 8007540:	61f8      	str	r0, [r7, #28]
	if (vol < 0) return FR_INVALID_DRIVE;
 8007542:	69fb      	ldr	r3, [r7, #28]
 8007544:	2b00      	cmp	r3, #0
 8007546:	da01      	bge.n	800754c <f_mount+0x28>
 8007548:	230b      	movs	r3, #11
 800754a:	e02b      	b.n	80075a4 <f_mount+0x80>
	cfs = FatFs[vol];					/* Pointer to fs object */
 800754c:	4a17      	ldr	r2, [pc, #92]	; (80075ac <f_mount+0x88>)
 800754e:	69fb      	ldr	r3, [r7, #28]
 8007550:	f852 3023 	ldr.w	r3, [r2, r3, lsl #2]
 8007554:	61bb      	str	r3, [r7, #24]

	if (cfs) {
 8007556:	69bb      	ldr	r3, [r7, #24]
 8007558:	2b00      	cmp	r3, #0
 800755a:	d005      	beq.n	8007568 <f_mount+0x44>
#if _FS_LOCK != 0
		clear_lock(cfs);
 800755c:	69b8      	ldr	r0, [r7, #24]
 800755e:	f7fe fd91 	bl	8006084 <clear_lock>
#endif
#if _FS_REENTRANT						/* Discard sync object of the current volume */
		if (!ff_del_syncobj(cfs->sobj)) return FR_INT_ERR;
#endif
		cfs->fs_type = 0;				/* Clear old fs object */
 8007562:	69bb      	ldr	r3, [r7, #24]
 8007564:	2200      	movs	r2, #0
 8007566:	701a      	strb	r2, [r3, #0]
	}

	if (fs) {
 8007568:	68fb      	ldr	r3, [r7, #12]
 800756a:	2b00      	cmp	r3, #0
 800756c:	d002      	beq.n	8007574 <f_mount+0x50>
		fs->fs_type = 0;				/* Clear new fs object */
 800756e:	68fb      	ldr	r3, [r7, #12]
 8007570:	2200      	movs	r2, #0
 8007572:	701a      	strb	r2, [r3, #0]
#if _FS_REENTRANT						/* Create sync object for the new volume */
		if (!ff_cre_syncobj((BYTE)vol, &fs->sobj)) return FR_INT_ERR;
#endif
	}
	FatFs[vol] = fs;					/* Register new fs object */
 8007574:	68fa      	ldr	r2, [r7, #12]
 8007576:	490d      	ldr	r1, [pc, #52]	; (80075ac <f_mount+0x88>)
 8007578:	69fb      	ldr	r3, [r7, #28]
 800757a:	f841 2023 	str.w	r2, [r1, r3, lsl #2]

	if (!fs || opt != 1) return FR_OK;	/* Do not mount now, it will be mounted later */
 800757e:	68fb      	ldr	r3, [r7, #12]
 8007580:	2b00      	cmp	r3, #0
 8007582:	d002      	beq.n	800758a <f_mount+0x66>
 8007584:	79fb      	ldrb	r3, [r7, #7]
 8007586:	2b01      	cmp	r3, #1
 8007588:	d001      	beq.n	800758e <f_mount+0x6a>
 800758a:	2300      	movs	r3, #0
 800758c:	e00a      	b.n	80075a4 <f_mount+0x80>

	res = find_volume(&path, &fs, 0);	/* Force mounted the volume */
 800758e:	f107 010c 	add.w	r1, r7, #12
 8007592:	f107 0308 	add.w	r3, r7, #8
 8007596:	2200      	movs	r2, #0
 8007598:	4618      	mov	r0, r3
 800759a:	f7ff fd41 	bl	8007020 <find_volume>
 800759e:	4603      	mov	r3, r0
 80075a0:	75fb      	strb	r3, [r7, #23]
	LEAVE_FF(fs, res);
 80075a2:	7dfb      	ldrb	r3, [r7, #23]
}
 80075a4:	4618      	mov	r0, r3
 80075a6:	3720      	adds	r7, #32
 80075a8:	46bd      	mov	sp, r7
 80075aa:	bd80      	pop	{r7, pc}
 80075ac:	20000718 	.word	0x20000718

080075b0 <f_open>:
FRESULT f_open (
	FIL* fp,			/* Pointer to the blank file object */
	const TCHAR* path,	/* Pointer to the file name */
	BYTE mode			/* Access mode and file open mode flags */
)
{
 80075b0:	b580      	push	{r7, lr}
 80075b2:	b098      	sub	sp, #96	; 0x60
 80075b4:	af00      	add	r7, sp, #0
 80075b6:	60f8      	str	r0, [r7, #12]
 80075b8:	60b9      	str	r1, [r7, #8]
 80075ba:	4613      	mov	r3, r2
 80075bc:	71fb      	strb	r3, [r7, #7]
	FSIZE_t ofs;
#endif
	DEF_NAMBUF


	if (!fp) return FR_INVALID_OBJECT;
 80075be:	68fb      	ldr	r3, [r7, #12]
 80075c0:	2b00      	cmp	r3, #0
 80075c2:	d101      	bne.n	80075c8 <f_open+0x18>
 80075c4:	2309      	movs	r3, #9
 80075c6:	e1ad      	b.n	8007924 <f_open+0x374>

	/* Get logical drive */
	mode &= _FS_READONLY ? FA_READ : FA_READ | FA_WRITE | FA_CREATE_ALWAYS | FA_CREATE_NEW | FA_OPEN_ALWAYS | FA_OPEN_APPEND | FA_SEEKEND;
 80075c8:	79fb      	ldrb	r3, [r7, #7]
 80075ca:	f003 033f 	and.w	r3, r3, #63	; 0x3f
 80075ce:	71fb      	strb	r3, [r7, #7]
	res = find_volume(&path, &fs, mode);
 80075d0:	79fa      	ldrb	r2, [r7, #7]
 80075d2:	f107 0110 	add.w	r1, r7, #16
 80075d6:	f107 0308 	add.w	r3, r7, #8
 80075da:	4618      	mov	r0, r3
 80075dc:	f7ff fd20 	bl	8007020 <find_volume>
 80075e0:	4603      	mov	r3, r0
 80075e2:	f887 305f 	strb.w	r3, [r7, #95]	; 0x5f
	if (res == FR_OK) {
 80075e6:	f897 305f 	ldrb.w	r3, [r7, #95]	; 0x5f
 80075ea:	2b00      	cmp	r3, #0
 80075ec:	f040 8191 	bne.w	8007912 <f_open+0x362>
		dj.obj.fs = fs;
 80075f0:	693b      	ldr	r3, [r7, #16]
 80075f2:	617b      	str	r3, [r7, #20]
		INIT_NAMBUF(fs);
		res = follow_path(&dj, path);	/* Follow the file path */
 80075f4:	68ba      	ldr	r2, [r7, #8]
 80075f6:	f107 0314 	add.w	r3, r7, #20
 80075fa:	4611      	mov	r1, r2
 80075fc:	4618      	mov	r0, r3
 80075fe:	f7ff fc03 	bl	8006e08 <follow_path>
 8007602:	4603      	mov	r3, r0
 8007604:	f887 305f 	strb.w	r3, [r7, #95]	; 0x5f
#if !_FS_READONLY	/* R/W configuration */
		if (res == FR_OK) {
 8007608:	f897 305f 	ldrb.w	r3, [r7, #95]	; 0x5f
 800760c:	2b00      	cmp	r3, #0
 800760e:	d11a      	bne.n	8007646 <f_open+0x96>
			if (dj.fn[NSFLAG] & NS_NONAME) {	/* Origin directory itself? */
 8007610:	f897 3043 	ldrb.w	r3, [r7, #67]	; 0x43
 8007614:	b25b      	sxtb	r3, r3
 8007616:	2b00      	cmp	r3, #0
 8007618:	da03      	bge.n	8007622 <f_open+0x72>
				res = FR_INVALID_NAME;
 800761a:	2306      	movs	r3, #6
 800761c:	f887 305f 	strb.w	r3, [r7, #95]	; 0x5f
 8007620:	e011      	b.n	8007646 <f_open+0x96>
			}
#if _FS_LOCK != 0
			else {
				res = chk_lock(&dj, (mode & ~FA_READ) ? 1 : 0);
 8007622:	79fb      	ldrb	r3, [r7, #7]
 8007624:	f023 0301 	bic.w	r3, r3, #1
 8007628:	2b00      	cmp	r3, #0
 800762a:	bf14      	ite	ne
 800762c:	2301      	movne	r3, #1
 800762e:	2300      	moveq	r3, #0
 8007630:	b2db      	uxtb	r3, r3
 8007632:	461a      	mov	r2, r3
 8007634:	f107 0314 	add.w	r3, r7, #20
 8007638:	4611      	mov	r1, r2
 800763a:	4618      	mov	r0, r3
 800763c:	f7fe fbda 	bl	8005df4 <chk_lock>
 8007640:	4603      	mov	r3, r0
 8007642:	f887 305f 	strb.w	r3, [r7, #95]	; 0x5f
			}
#endif
		}
		/* Create or Open a file */
		if (mode & (FA_CREATE_ALWAYS | FA_OPEN_ALWAYS | FA_CREATE_NEW)) {
 8007646:	79fb      	ldrb	r3, [r7, #7]
 8007648:	f003 031c 	and.w	r3, r3, #28
 800764c:	2b00      	cmp	r3, #0
 800764e:	d07f      	beq.n	8007750 <f_open+0x1a0>
			if (res != FR_OK) {					/* No file, create new */
 8007650:	f897 305f 	ldrb.w	r3, [r7, #95]	; 0x5f
 8007654:	2b00      	cmp	r3, #0
 8007656:	d017      	beq.n	8007688 <f_open+0xd8>
				if (res == FR_NO_FILE) {		/* There is no file to open, create a new entry */
 8007658:	f897 305f 	ldrb.w	r3, [r7, #95]	; 0x5f
 800765c:	2b04      	cmp	r3, #4
 800765e:	d10e      	bne.n	800767e <f_open+0xce>
#if _FS_LOCK != 0
					res = enq_lock() ? dir_register(&dj) : FR_TOO_MANY_OPEN_FILES;
 8007660:	f7fe fc24 	bl	8005eac <enq_lock>
 8007664:	4603      	mov	r3, r0
 8007666:	2b00      	cmp	r3, #0
 8007668:	d006      	beq.n	8007678 <f_open+0xc8>
 800766a:	f107 0314 	add.w	r3, r7, #20
 800766e:	4618      	mov	r0, r3
 8007670:	f7ff fb03 	bl	8006c7a <dir_register>
 8007674:	4603      	mov	r3, r0
 8007676:	e000      	b.n	800767a <f_open+0xca>
 8007678:	2312      	movs	r3, #18
 800767a:	f887 305f 	strb.w	r3, [r7, #95]	; 0x5f
#else
					res = dir_register(&dj);
#endif
				}
				mode |= FA_CREATE_ALWAYS;		/* File is created */
 800767e:	79fb      	ldrb	r3, [r7, #7]
 8007680:	f043 0308 	orr.w	r3, r3, #8
 8007684:	71fb      	strb	r3, [r7, #7]
 8007686:	e010      	b.n	80076aa <f_open+0xfa>
			}
			else {								/* Any object is already existing */
				if (dj.obj.attr & (AM_RDO | AM_DIR)) {	/* Cannot overwrite it (R/O or DIR) */
 8007688:	7ebb      	ldrb	r3, [r7, #26]
 800768a:	f003 0311 	and.w	r3, r3, #17
 800768e:	2b00      	cmp	r3, #0
 8007690:	d003      	beq.n	800769a <f_open+0xea>
					res = FR_DENIED;
 8007692:	2307      	movs	r3, #7
 8007694:	f887 305f 	strb.w	r3, [r7, #95]	; 0x5f
 8007698:	e007      	b.n	80076aa <f_open+0xfa>
				} else {
					if (mode & FA_CREATE_NEW) res = FR_EXIST;	/* Cannot create as new file */
 800769a:	79fb      	ldrb	r3, [r7, #7]
 800769c:	f003 0304 	and.w	r3, r3, #4
 80076a0:	2b00      	cmp	r3, #0
 80076a2:	d002      	beq.n	80076aa <f_open+0xfa>
 80076a4:	2308      	movs	r3, #8
 80076a6:	f887 305f 	strb.w	r3, [r7, #95]	; 0x5f
				}
			}
			if (res == FR_OK && (mode & FA_CREATE_ALWAYS)) {	/* Truncate it if overwrite mode */
 80076aa:	f897 305f 	ldrb.w	r3, [r7, #95]	; 0x5f
 80076ae:	2b00      	cmp	r3, #0
 80076b0:	d168      	bne.n	8007784 <f_open+0x1d4>
 80076b2:	79fb      	ldrb	r3, [r7, #7]
 80076b4:	f003 0308 	and.w	r3, r3, #8
 80076b8:	2b00      	cmp	r3, #0
 80076ba:	d063      	beq.n	8007784 <f_open+0x1d4>
				dw = GET_FATTIME();
 80076bc:	f7fd fcc0 	bl	8005040 <get_fattime>
 80076c0:	6538      	str	r0, [r7, #80]	; 0x50
					}
				} else
#endif
				{
					/* Clean directory info */
					st_dword(dj.dir + DIR_CrtTime, dw);	/* Set created time */
 80076c2:	6b7b      	ldr	r3, [r7, #52]	; 0x34
 80076c4:	330e      	adds	r3, #14
 80076c6:	6d39      	ldr	r1, [r7, #80]	; 0x50
 80076c8:	4618      	mov	r0, r3
 80076ca:	f7fe fae9 	bl	8005ca0 <st_dword>
					st_dword(dj.dir + DIR_ModTime, dw);	/* Set modified time */
 80076ce:	6b7b      	ldr	r3, [r7, #52]	; 0x34
 80076d0:	3316      	adds	r3, #22
 80076d2:	6d39      	ldr	r1, [r7, #80]	; 0x50
 80076d4:	4618      	mov	r0, r3
 80076d6:	f7fe fae3 	bl	8005ca0 <st_dword>
					dj.dir[DIR_Attr] = AM_ARC;			/* Reset attribute */
 80076da:	6b7b      	ldr	r3, [r7, #52]	; 0x34
 80076dc:	330b      	adds	r3, #11
 80076de:	2220      	movs	r2, #32
 80076e0:	701a      	strb	r2, [r3, #0]
					cl = ld_clust(fs, dj.dir);			/* Get cluster chain */
 80076e2:	693b      	ldr	r3, [r7, #16]
 80076e4:	6b7a      	ldr	r2, [r7, #52]	; 0x34
 80076e6:	4611      	mov	r1, r2
 80076e8:	4618      	mov	r0, r3
 80076ea:	f7ff fa32 	bl	8006b52 <ld_clust>
 80076ee:	64f8      	str	r0, [r7, #76]	; 0x4c
					st_clust(fs, dj.dir, 0);			/* Reset file allocation info */
 80076f0:	693b      	ldr	r3, [r7, #16]
 80076f2:	6b79      	ldr	r1, [r7, #52]	; 0x34
 80076f4:	2200      	movs	r2, #0
 80076f6:	4618      	mov	r0, r3
 80076f8:	f7ff fa4a 	bl	8006b90 <st_clust>
					st_dword(dj.dir + DIR_FileSize, 0);
 80076fc:	6b7b      	ldr	r3, [r7, #52]	; 0x34
 80076fe:	331c      	adds	r3, #28
 8007700:	2100      	movs	r1, #0
 8007702:	4618      	mov	r0, r3
 8007704:	f7fe facc 	bl	8005ca0 <st_dword>
					fs->wflag = 1;
 8007708:	693b      	ldr	r3, [r7, #16]
 800770a:	2201      	movs	r2, #1
 800770c:	70da      	strb	r2, [r3, #3]

					if (cl) {							/* Remove the cluster chain if exist */
 800770e:	6cfb      	ldr	r3, [r7, #76]	; 0x4c
 8007710:	2b00      	cmp	r3, #0
 8007712:	d037      	beq.n	8007784 <f_open+0x1d4>
						dw = fs->winsect;
 8007714:	693b      	ldr	r3, [r7, #16]
 8007716:	6adb      	ldr	r3, [r3, #44]	; 0x2c
 8007718:	653b      	str	r3, [r7, #80]	; 0x50
						res = remove_chain(&dj.obj, cl, 0);
 800771a:	f107 0314 	add.w	r3, r7, #20
 800771e:	2200      	movs	r2, #0
 8007720:	6cf9      	ldr	r1, [r7, #76]	; 0x4c
 8007722:	4618      	mov	r0, r3
 8007724:	f7fe ff5d 	bl	80065e2 <remove_chain>
 8007728:	4603      	mov	r3, r0
 800772a:	f887 305f 	strb.w	r3, [r7, #95]	; 0x5f
						if (res == FR_OK) {
 800772e:	f897 305f 	ldrb.w	r3, [r7, #95]	; 0x5f
 8007732:	2b00      	cmp	r3, #0
 8007734:	d126      	bne.n	8007784 <f_open+0x1d4>
							res = move_window(fs, dw);
 8007736:	693b      	ldr	r3, [r7, #16]
 8007738:	6d39      	ldr	r1, [r7, #80]	; 0x50
 800773a:	4618      	mov	r0, r3
 800773c:	f7fe fd0a 	bl	8006154 <move_window>
 8007740:	4603      	mov	r3, r0
 8007742:	f887 305f 	strb.w	r3, [r7, #95]	; 0x5f
							fs->last_clst = cl - 1;		/* Reuse the cluster hole */
 8007746:	693b      	ldr	r3, [r7, #16]
 8007748:	6cfa      	ldr	r2, [r7, #76]	; 0x4c
 800774a:	3a01      	subs	r2, #1
 800774c:	60da      	str	r2, [r3, #12]
 800774e:	e019      	b.n	8007784 <f_open+0x1d4>
					}
				}
			}
		}
		else {	/* Open an existing file */
			if (res == FR_OK) {					/* Following succeeded */
 8007750:	f897 305f 	ldrb.w	r3, [r7, #95]	; 0x5f
 8007754:	2b00      	cmp	r3, #0
 8007756:	d115      	bne.n	8007784 <f_open+0x1d4>
				if (dj.obj.attr & AM_DIR) {		/* It is a directory */
 8007758:	7ebb      	ldrb	r3, [r7, #26]
 800775a:	f003 0310 	and.w	r3, r3, #16
 800775e:	2b00      	cmp	r3, #0
 8007760:	d003      	beq.n	800776a <f_open+0x1ba>
					res = FR_NO_FILE;
 8007762:	2304      	movs	r3, #4
 8007764:	f887 305f 	strb.w	r3, [r7, #95]	; 0x5f
 8007768:	e00c      	b.n	8007784 <f_open+0x1d4>
				} else {
					if ((mode & FA_WRITE) && (dj.obj.attr & AM_RDO)) { /* R/O violation */
 800776a:	79fb      	ldrb	r3, [r7, #7]
 800776c:	f003 0302 	and.w	r3, r3, #2
 8007770:	2b00      	cmp	r3, #0
 8007772:	d007      	beq.n	8007784 <f_open+0x1d4>
 8007774:	7ebb      	ldrb	r3, [r7, #26]
 8007776:	f003 0301 	and.w	r3, r3, #1
 800777a:	2b00      	cmp	r3, #0
 800777c:	d002      	beq.n	8007784 <f_open+0x1d4>
						res = FR_DENIED;
 800777e:	2307      	movs	r3, #7
 8007780:	f887 305f 	strb.w	r3, [r7, #95]	; 0x5f
					}
				}
			}
		}
		if (res == FR_OK) {
 8007784:	f897 305f 	ldrb.w	r3, [r7, #95]	; 0x5f
 8007788:	2b00      	cmp	r3, #0
 800778a:	d128      	bne.n	80077de <f_open+0x22e>
			if (mode & FA_CREATE_ALWAYS)		/* Set file change flag if created or overwritten */
 800778c:	79fb      	ldrb	r3, [r7, #7]
 800778e:	f003 0308 	and.w	r3, r3, #8
 8007792:	2b00      	cmp	r3, #0
 8007794:	d003      	beq.n	800779e <f_open+0x1ee>
				mode |= FA_MODIFIED;
 8007796:	79fb      	ldrb	r3, [r7, #7]
 8007798:	f043 0340 	orr.w	r3, r3, #64	; 0x40
 800779c:	71fb      	strb	r3, [r7, #7]
			fp->dir_sect = fs->winsect;			/* Pointer to the directory entry */
 800779e:	693b      	ldr	r3, [r7, #16]
 80077a0:	6ada      	ldr	r2, [r3, #44]	; 0x2c
 80077a2:	68fb      	ldr	r3, [r7, #12]
 80077a4:	625a      	str	r2, [r3, #36]	; 0x24
			fp->dir_ptr = dj.dir;
 80077a6:	6b7a      	ldr	r2, [r7, #52]	; 0x34
 80077a8:	68fb      	ldr	r3, [r7, #12]
 80077aa:	629a      	str	r2, [r3, #40]	; 0x28
#if _FS_LOCK != 0
			fp->obj.lockid = inc_lock(&dj, (mode & ~FA_READ) ? 1 : 0);
 80077ac:	79fb      	ldrb	r3, [r7, #7]
 80077ae:	f023 0301 	bic.w	r3, r3, #1
 80077b2:	2b00      	cmp	r3, #0
 80077b4:	bf14      	ite	ne
 80077b6:	2301      	movne	r3, #1
 80077b8:	2300      	moveq	r3, #0
 80077ba:	b2db      	uxtb	r3, r3
 80077bc:	461a      	mov	r2, r3
 80077be:	f107 0314 	add.w	r3, r7, #20
 80077c2:	4611      	mov	r1, r2
 80077c4:	4618      	mov	r0, r3
 80077c6:	f7fe fb93 	bl	8005ef0 <inc_lock>
 80077ca:	4602      	mov	r2, r0
 80077cc:	68fb      	ldr	r3, [r7, #12]
 80077ce:	611a      	str	r2, [r3, #16]
			if (!fp->obj.lockid) res = FR_INT_ERR;
 80077d0:	68fb      	ldr	r3, [r7, #12]
 80077d2:	691b      	ldr	r3, [r3, #16]
 80077d4:	2b00      	cmp	r3, #0
 80077d6:	d102      	bne.n	80077de <f_open+0x22e>
 80077d8:	2302      	movs	r3, #2
 80077da:	f887 305f 	strb.w	r3, [r7, #95]	; 0x5f
				}
			}
		}
#endif

		if (res == FR_OK) {
 80077de:	f897 305f 	ldrb.w	r3, [r7, #95]	; 0x5f
 80077e2:	2b00      	cmp	r3, #0
 80077e4:	f040 8095 	bne.w	8007912 <f_open+0x362>
				fp->obj.objsize = ld_qword(fs->dirbuf + XDIR_FileSize);
				fp->obj.stat = fs->dirbuf[XDIR_GenFlags] & 2;
			} else
#endif
			{
				fp->obj.sclust = ld_clust(fs, dj.dir);					/* Get object allocation info */
 80077e8:	693b      	ldr	r3, [r7, #16]
 80077ea:	6b7a      	ldr	r2, [r7, #52]	; 0x34
 80077ec:	4611      	mov	r1, r2
 80077ee:	4618      	mov	r0, r3
 80077f0:	f7ff f9af 	bl	8006b52 <ld_clust>
 80077f4:	4602      	mov	r2, r0
 80077f6:	68fb      	ldr	r3, [r7, #12]
 80077f8:	609a      	str	r2, [r3, #8]
				fp->obj.objsize = ld_dword(dj.dir + DIR_FileSize);
 80077fa:	6b7b      	ldr	r3, [r7, #52]	; 0x34
 80077fc:	331c      	adds	r3, #28
 80077fe:	4618      	mov	r0, r3
 8007800:	f7fe fa10 	bl	8005c24 <ld_dword>
 8007804:	4602      	mov	r2, r0
 8007806:	68fb      	ldr	r3, [r7, #12]
 8007808:	60da      	str	r2, [r3, #12]
			}
#if _USE_FASTSEEK
			fp->cltbl = 0;			/* Disable fast seek mode */
 800780a:	68fb      	ldr	r3, [r7, #12]
 800780c:	2200      	movs	r2, #0
 800780e:	62da      	str	r2, [r3, #44]	; 0x2c
#endif
			fp->obj.fs = fs;	 	/* Validate the file object */
 8007810:	693a      	ldr	r2, [r7, #16]
 8007812:	68fb      	ldr	r3, [r7, #12]
 8007814:	601a      	str	r2, [r3, #0]
			fp->obj.id = fs->id;
 8007816:	693b      	ldr	r3, [r7, #16]
 8007818:	88da      	ldrh	r2, [r3, #6]
 800781a:	68fb      	ldr	r3, [r7, #12]
 800781c:	809a      	strh	r2, [r3, #4]
			fp->flag = mode;		/* Set file access mode */
 800781e:	68fb      	ldr	r3, [r7, #12]
 8007820:	79fa      	ldrb	r2, [r7, #7]
 8007822:	751a      	strb	r2, [r3, #20]
			fp->err = 0;			/* Clear error flag */
 8007824:	68fb      	ldr	r3, [r7, #12]
 8007826:	2200      	movs	r2, #0
 8007828:	755a      	strb	r2, [r3, #21]
			fp->sect = 0;			/* Invalidate current data sector */
 800782a:	68fb      	ldr	r3, [r7, #12]
 800782c:	2200      	movs	r2, #0
 800782e:	621a      	str	r2, [r3, #32]
			fp->fptr = 0;			/* Set file pointer top of the file */
 8007830:	68fb      	ldr	r3, [r7, #12]
 8007832:	2200      	movs	r2, #0
 8007834:	619a      	str	r2, [r3, #24]
#if !_FS_READONLY
#if !_FS_TINY
			mem_set(fp->buf, 0, _MAX_SS);	/* Clear sector buffer */
 8007836:	68fb      	ldr	r3, [r7, #12]
 8007838:	3330      	adds	r3, #48	; 0x30
 800783a:	f44f 7200 	mov.w	r2, #512	; 0x200
 800783e:	2100      	movs	r1, #0
 8007840:	4618      	mov	r0, r3
 8007842:	f7fe fa7a 	bl	8005d3a <mem_set>
#endif
			if ((mode & FA_SEEKEND) && fp->obj.objsize > 0) {	/* Seek to end of file if FA_OPEN_APPEND is specified */
 8007846:	79fb      	ldrb	r3, [r7, #7]
 8007848:	f003 0320 	and.w	r3, r3, #32
 800784c:	2b00      	cmp	r3, #0
 800784e:	d060      	beq.n	8007912 <f_open+0x362>
 8007850:	68fb      	ldr	r3, [r7, #12]
 8007852:	68db      	ldr	r3, [r3, #12]
 8007854:	2b00      	cmp	r3, #0
 8007856:	d05c      	beq.n	8007912 <f_open+0x362>
				fp->fptr = fp->obj.objsize;			/* Offset to seek */
 8007858:	68fb      	ldr	r3, [r7, #12]
 800785a:	68da      	ldr	r2, [r3, #12]
 800785c:	68fb      	ldr	r3, [r7, #12]
 800785e:	619a      	str	r2, [r3, #24]
				bcs = (DWORD)fs->csize * SS(fs);	/* Cluster size in byte */
 8007860:	693b      	ldr	r3, [r7, #16]
 8007862:	895b      	ldrh	r3, [r3, #10]
 8007864:	025b      	lsls	r3, r3, #9
 8007866:	64bb      	str	r3, [r7, #72]	; 0x48
				clst = fp->obj.sclust;				/* Follow the cluster chain */
 8007868:	68fb      	ldr	r3, [r7, #12]
 800786a:	689b      	ldr	r3, [r3, #8]
 800786c:	65bb      	str	r3, [r7, #88]	; 0x58
				for (ofs = fp->obj.objsize; res == FR_OK && ofs > bcs; ofs -= bcs) {
 800786e:	68fb      	ldr	r3, [r7, #12]
 8007870:	68db      	ldr	r3, [r3, #12]
 8007872:	657b      	str	r3, [r7, #84]	; 0x54
 8007874:	e016      	b.n	80078a4 <f_open+0x2f4>
					clst = get_fat(&fp->obj, clst);
 8007876:	68fb      	ldr	r3, [r7, #12]
 8007878:	6db9      	ldr	r1, [r7, #88]	; 0x58
 800787a:	4618      	mov	r0, r3
 800787c:	f7fe fd25 	bl	80062ca <get_fat>
 8007880:	65b8      	str	r0, [r7, #88]	; 0x58
					if (clst <= 1) res = FR_INT_ERR;
 8007882:	6dbb      	ldr	r3, [r7, #88]	; 0x58
 8007884:	2b01      	cmp	r3, #1
 8007886:	d802      	bhi.n	800788e <f_open+0x2de>
 8007888:	2302      	movs	r3, #2
 800788a:	f887 305f 	strb.w	r3, [r7, #95]	; 0x5f
					if (clst == 0xFFFFFFFF) res = FR_DISK_ERR;
 800788e:	6dbb      	ldr	r3, [r7, #88]	; 0x58
 8007890:	f1b3 3fff 	cmp.w	r3, #4294967295
 8007894:	d102      	bne.n	800789c <f_open+0x2ec>
 8007896:	2301      	movs	r3, #1
 8007898:	f887 305f 	strb.w	r3, [r7, #95]	; 0x5f
				for (ofs = fp->obj.objsize; res == FR_OK && ofs > bcs; ofs -= bcs) {
 800789c:	6d7a      	ldr	r2, [r7, #84]	; 0x54
 800789e:	6cbb      	ldr	r3, [r7, #72]	; 0x48
 80078a0:	1ad3      	subs	r3, r2, r3
 80078a2:	657b      	str	r3, [r7, #84]	; 0x54
 80078a4:	f897 305f 	ldrb.w	r3, [r7, #95]	; 0x5f
 80078a8:	2b00      	cmp	r3, #0
 80078aa:	d103      	bne.n	80078b4 <f_open+0x304>
 80078ac:	6d7a      	ldr	r2, [r7, #84]	; 0x54
 80078ae:	6cbb      	ldr	r3, [r7, #72]	; 0x48
 80078b0:	429a      	cmp	r2, r3
 80078b2:	d8e0      	bhi.n	8007876 <f_open+0x2c6>
				}
				fp->clust = clst;
 80078b4:	68fb      	ldr	r3, [r7, #12]
 80078b6:	6dba      	ldr	r2, [r7, #88]	; 0x58
 80078b8:	61da      	str	r2, [r3, #28]
				if (res == FR_OK && ofs % SS(fs)) {	/* Fill sector buffer if not on the sector boundary */
 80078ba:	f897 305f 	ldrb.w	r3, [r7, #95]	; 0x5f
 80078be:	2b00      	cmp	r3, #0
 80078c0:	d127      	bne.n	8007912 <f_open+0x362>
 80078c2:	6d7b      	ldr	r3, [r7, #84]	; 0x54
 80078c4:	f3c3 0308 	ubfx	r3, r3, #0, #9
 80078c8:	2b00      	cmp	r3, #0
 80078ca:	d022      	beq.n	8007912 <f_open+0x362>
					if ((sc = clust2sect(fs, clst)) == 0) {
 80078cc:	693b      	ldr	r3, [r7, #16]
 80078ce:	6db9      	ldr	r1, [r7, #88]	; 0x58
 80078d0:	4618      	mov	r0, r3
 80078d2:	f7fe fcdb 	bl	800628c <clust2sect>
 80078d6:	6478      	str	r0, [r7, #68]	; 0x44
 80078d8:	6c7b      	ldr	r3, [r7, #68]	; 0x44
 80078da:	2b00      	cmp	r3, #0
 80078dc:	d103      	bne.n	80078e6 <f_open+0x336>
						res = FR_INT_ERR;
 80078de:	2302      	movs	r3, #2
 80078e0:	f887 305f 	strb.w	r3, [r7, #95]	; 0x5f
 80078e4:	e015      	b.n	8007912 <f_open+0x362>
					} else {
						fp->sect = sc + (DWORD)(ofs / SS(fs));
 80078e6:	6d7b      	ldr	r3, [r7, #84]	; 0x54
 80078e8:	0a5a      	lsrs	r2, r3, #9
 80078ea:	6c7b      	ldr	r3, [r7, #68]	; 0x44
 80078ec:	441a      	add	r2, r3
 80078ee:	68fb      	ldr	r3, [r7, #12]
 80078f0:	621a      	str	r2, [r3, #32]
#if !_FS_TINY
						if (disk_read(fs->drv, fp->buf, fp->sect, 1) != RES_OK) res = FR_DISK_ERR;
 80078f2:	693b      	ldr	r3, [r7, #16]
 80078f4:	7858      	ldrb	r0, [r3, #1]
 80078f6:	68fb      	ldr	r3, [r7, #12]
 80078f8:	f103 0130 	add.w	r1, r3, #48	; 0x30
 80078fc:	68fb      	ldr	r3, [r7, #12]
 80078fe:	6a1a      	ldr	r2, [r3, #32]
 8007900:	2301      	movs	r3, #1
 8007902:	f7fe f919 	bl	8005b38 <disk_read>
 8007906:	4603      	mov	r3, r0
 8007908:	2b00      	cmp	r3, #0
 800790a:	d002      	beq.n	8007912 <f_open+0x362>
 800790c:	2301      	movs	r3, #1
 800790e:	f887 305f 	strb.w	r3, [r7, #95]	; 0x5f
		}

		FREE_NAMBUF();
	}

	if (res != FR_OK) fp->obj.fs = 0;	/* Invalidate file object on error */
 8007912:	f897 305f 	ldrb.w	r3, [r7, #95]	; 0x5f
 8007916:	2b00      	cmp	r3, #0
 8007918:	d002      	beq.n	8007920 <f_open+0x370>
 800791a:	68fb      	ldr	r3, [r7, #12]
 800791c:	2200      	movs	r2, #0
 800791e:	601a      	str	r2, [r3, #0]

	LEAVE_FF(fs, res);
 8007920:	f897 305f 	ldrb.w	r3, [r7, #95]	; 0x5f
}
 8007924:	4618      	mov	r0, r3
 8007926:	3760      	adds	r7, #96	; 0x60
 8007928:	46bd      	mov	sp, r7
 800792a:	bd80      	pop	{r7, pc}

0800792c <f_write>:
	FIL* fp,			/* Pointer to the file object */
	const void* buff,	/* Pointer to the data to be written */
	UINT btw,			/* Number of bytes to write */
	UINT* bw			/* Pointer to number of bytes written */
)
{
 800792c:	b580      	push	{r7, lr}
 800792e:	b08c      	sub	sp, #48	; 0x30
 8007930:	af00      	add	r7, sp, #0
 8007932:	60f8      	str	r0, [r7, #12]
 8007934:	60b9      	str	r1, [r7, #8]
 8007936:	607a      	str	r2, [r7, #4]
 8007938:	603b      	str	r3, [r7, #0]
	FRESULT res;
	FATFS *fs;
	DWORD clst, sect;
	UINT wcnt, cc, csect;
	const BYTE *wbuff = (const BYTE*)buff;
 800793a:	68bb      	ldr	r3, [r7, #8]
 800793c:	61fb      	str	r3, [r7, #28]


	*bw = 0;	/* Clear write byte counter */
 800793e:	683b      	ldr	r3, [r7, #0]
 8007940:	2200      	movs	r2, #0
 8007942:	601a      	str	r2, [r3, #0]
	res = validate(&fp->obj, &fs);			/* Check validity of the file object */
 8007944:	68fb      	ldr	r3, [r7, #12]
 8007946:	f107 0210 	add.w	r2, r7, #16
 800794a:	4611      	mov	r1, r2
 800794c:	4618      	mov	r0, r3
 800794e:	f7ff fdb3 	bl	80074b8 <validate>
 8007952:	4603      	mov	r3, r0
 8007954:	f887 302f 	strb.w	r3, [r7, #47]	; 0x2f
	if (res != FR_OK || (res = (FRESULT)fp->err) != FR_OK) LEAVE_FF(fs, res);	/* Check validity */
 8007958:	f897 302f 	ldrb.w	r3, [r7, #47]	; 0x2f
 800795c:	2b00      	cmp	r3, #0
 800795e:	d107      	bne.n	8007970 <f_write+0x44>
 8007960:	68fb      	ldr	r3, [r7, #12]
 8007962:	7d5b      	ldrb	r3, [r3, #21]
 8007964:	f887 302f 	strb.w	r3, [r7, #47]	; 0x2f
 8007968:	f897 302f 	ldrb.w	r3, [r7, #47]	; 0x2f
 800796c:	2b00      	cmp	r3, #0
 800796e:	d002      	beq.n	8007976 <f_write+0x4a>
 8007970:	f897 302f 	ldrb.w	r3, [r7, #47]	; 0x2f
 8007974:	e14b      	b.n	8007c0e <f_write+0x2e2>
	if (!(fp->flag & FA_WRITE)) LEAVE_FF(fs, FR_DENIED);	/* Check access mode */
 8007976:	68fb      	ldr	r3, [r7, #12]
 8007978:	7d1b      	ldrb	r3, [r3, #20]
 800797a:	f003 0302 	and.w	r3, r3, #2
 800797e:	2b00      	cmp	r3, #0
 8007980:	d101      	bne.n	8007986 <f_write+0x5a>
 8007982:	2307      	movs	r3, #7
 8007984:	e143      	b.n	8007c0e <f_write+0x2e2>

	/* Check fptr wrap-around (file size cannot reach 4GiB on FATxx) */
	if ((!_FS_EXFAT || fs->fs_type != FS_EXFAT) && (DWORD)(fp->fptr + btw) < (DWORD)fp->fptr) {
 8007986:	68fb      	ldr	r3, [r7, #12]
 8007988:	699a      	ldr	r2, [r3, #24]
 800798a:	687b      	ldr	r3, [r7, #4]
 800798c:	441a      	add	r2, r3
 800798e:	68fb      	ldr	r3, [r7, #12]
 8007990:	699b      	ldr	r3, [r3, #24]
 8007992:	429a      	cmp	r2, r3
 8007994:	f080 812d 	bcs.w	8007bf2 <f_write+0x2c6>
		btw = (UINT)(0xFFFFFFFF - (DWORD)fp->fptr);
 8007998:	68fb      	ldr	r3, [r7, #12]
 800799a:	699b      	ldr	r3, [r3, #24]
 800799c:	43db      	mvns	r3, r3
 800799e:	607b      	str	r3, [r7, #4]
	}

	for ( ;  btw;							/* Repeat until all data written */
 80079a0:	e127      	b.n	8007bf2 <f_write+0x2c6>
		wbuff += wcnt, fp->fptr += wcnt, fp->obj.objsize = (fp->fptr > fp->obj.objsize) ? fp->fptr : fp->obj.objsize, *bw += wcnt, btw -= wcnt) {
		if (fp->fptr % SS(fs) == 0) {		/* On the sector boundary? */
 80079a2:	68fb      	ldr	r3, [r7, #12]
 80079a4:	699b      	ldr	r3, [r3, #24]
 80079a6:	f3c3 0308 	ubfx	r3, r3, #0, #9
 80079aa:	2b00      	cmp	r3, #0
 80079ac:	f040 80e3 	bne.w	8007b76 <f_write+0x24a>
			csect = (UINT)(fp->fptr / SS(fs)) & (fs->csize - 1);	/* Sector offset in the cluster */
 80079b0:	68fb      	ldr	r3, [r7, #12]
 80079b2:	699b      	ldr	r3, [r3, #24]
 80079b4:	0a5b      	lsrs	r3, r3, #9
 80079b6:	693a      	ldr	r2, [r7, #16]
 80079b8:	8952      	ldrh	r2, [r2, #10]
 80079ba:	3a01      	subs	r2, #1
 80079bc:	4013      	ands	r3, r2
 80079be:	61bb      	str	r3, [r7, #24]
			if (csect == 0) {				/* On the cluster boundary? */
 80079c0:	69bb      	ldr	r3, [r7, #24]
 80079c2:	2b00      	cmp	r3, #0
 80079c4:	d143      	bne.n	8007a4e <f_write+0x122>
				if (fp->fptr == 0) {		/* On the top of the file? */
 80079c6:	68fb      	ldr	r3, [r7, #12]
 80079c8:	699b      	ldr	r3, [r3, #24]
 80079ca:	2b00      	cmp	r3, #0
 80079cc:	d10c      	bne.n	80079e8 <f_write+0xbc>
					clst = fp->obj.sclust;	/* Follow from the origin */
 80079ce:	68fb      	ldr	r3, [r7, #12]
 80079d0:	689b      	ldr	r3, [r3, #8]
 80079d2:	62bb      	str	r3, [r7, #40]	; 0x28
					if (clst == 0) {		/* If no cluster is allocated, */
 80079d4:	6abb      	ldr	r3, [r7, #40]	; 0x28
 80079d6:	2b00      	cmp	r3, #0
 80079d8:	d11a      	bne.n	8007a10 <f_write+0xe4>
						clst = create_chain(&fp->obj, 0);	/* create a new cluster chain */
 80079da:	68fb      	ldr	r3, [r7, #12]
 80079dc:	2100      	movs	r1, #0
 80079de:	4618      	mov	r0, r3
 80079e0:	f7fe fe64 	bl	80066ac <create_chain>
 80079e4:	62b8      	str	r0, [r7, #40]	; 0x28
 80079e6:	e013      	b.n	8007a10 <f_write+0xe4>
					}
				} else {					/* On the middle or end of the file */
#if _USE_FASTSEEK
					if (fp->cltbl) {
 80079e8:	68fb      	ldr	r3, [r7, #12]
 80079ea:	6adb      	ldr	r3, [r3, #44]	; 0x2c
 80079ec:	2b00      	cmp	r3, #0
 80079ee:	d007      	beq.n	8007a00 <f_write+0xd4>
						clst = clmt_clust(fp, fp->fptr);	/* Get cluster# from the CLMT */
 80079f0:	68fb      	ldr	r3, [r7, #12]
 80079f2:	699b      	ldr	r3, [r3, #24]
 80079f4:	4619      	mov	r1, r3
 80079f6:	68f8      	ldr	r0, [r7, #12]
 80079f8:	f7fe fef0 	bl	80067dc <clmt_clust>
 80079fc:	62b8      	str	r0, [r7, #40]	; 0x28
 80079fe:	e007      	b.n	8007a10 <f_write+0xe4>
					} else
#endif
					{
						clst = create_chain(&fp->obj, fp->clust);	/* Follow or stretch cluster chain on the FAT */
 8007a00:	68fa      	ldr	r2, [r7, #12]
 8007a02:	68fb      	ldr	r3, [r7, #12]
 8007a04:	69db      	ldr	r3, [r3, #28]
 8007a06:	4619      	mov	r1, r3
 8007a08:	4610      	mov	r0, r2
 8007a0a:	f7fe fe4f 	bl	80066ac <create_chain>
 8007a0e:	62b8      	str	r0, [r7, #40]	; 0x28
					}
				}
				if (clst == 0) break;		/* Could not allocate a new cluster (disk full) */
 8007a10:	6abb      	ldr	r3, [r7, #40]	; 0x28
 8007a12:	2b00      	cmp	r3, #0
 8007a14:	f000 80f2 	beq.w	8007bfc <f_write+0x2d0>
				if (clst == 1) ABORT(fs, FR_INT_ERR);
 8007a18:	6abb      	ldr	r3, [r7, #40]	; 0x28
 8007a1a:	2b01      	cmp	r3, #1
 8007a1c:	d104      	bne.n	8007a28 <f_write+0xfc>
 8007a1e:	68fb      	ldr	r3, [r7, #12]
 8007a20:	2202      	movs	r2, #2
 8007a22:	755a      	strb	r2, [r3, #21]
 8007a24:	2302      	movs	r3, #2
 8007a26:	e0f2      	b.n	8007c0e <f_write+0x2e2>
				if (clst == 0xFFFFFFFF) ABORT(fs, FR_DISK_ERR);
 8007a28:	6abb      	ldr	r3, [r7, #40]	; 0x28
 8007a2a:	f1b3 3fff 	cmp.w	r3, #4294967295
 8007a2e:	d104      	bne.n	8007a3a <f_write+0x10e>
 8007a30:	68fb      	ldr	r3, [r7, #12]
 8007a32:	2201      	movs	r2, #1
 8007a34:	755a      	strb	r2, [r3, #21]
 8007a36:	2301      	movs	r3, #1
 8007a38:	e0e9      	b.n	8007c0e <f_write+0x2e2>
				fp->clust = clst;			/* Update current cluster */
 8007a3a:	68fb      	ldr	r3, [r7, #12]
 8007a3c:	6aba      	ldr	r2, [r7, #40]	; 0x28
 8007a3e:	61da      	str	r2, [r3, #28]
				if (fp->obj.sclust == 0) fp->obj.sclust = clst;	/* Set start cluster if the first write */
 8007a40:	68fb      	ldr	r3, [r7, #12]
 8007a42:	689b      	ldr	r3, [r3, #8]
 8007a44:	2b00      	cmp	r3, #0
 8007a46:	d102      	bne.n	8007a4e <f_write+0x122>
 8007a48:	68fb      	ldr	r3, [r7, #12]
 8007a4a:	6aba      	ldr	r2, [r7, #40]	; 0x28
 8007a4c:	609a      	str	r2, [r3, #8]
			}
#if _FS_TINY
			if (fs->winsect == fp->sect && sync_window(fs) != FR_OK) ABORT(fs, FR_DISK_ERR);	/* Write-back sector cache */
#else
			if (fp->flag & FA_DIRTY) {		/* Write-back sector cache */
 8007a4e:	68fb      	ldr	r3, [r7, #12]
 8007a50:	7d1b      	ldrb	r3, [r3, #20]
 8007a52:	b25b      	sxtb	r3, r3
 8007a54:	2b00      	cmp	r3, #0
 8007a56:	da18      	bge.n	8007a8a <f_write+0x15e>
				if (disk_write(fs->drv, fp->buf, fp->sect, 1) != RES_OK) ABORT(fs, FR_DISK_ERR);
 8007a58:	693b      	ldr	r3, [r7, #16]
 8007a5a:	7858      	ldrb	r0, [r3, #1]
 8007a5c:	68fb      	ldr	r3, [r7, #12]
 8007a5e:	f103 0130 	add.w	r1, r3, #48	; 0x30
 8007a62:	68fb      	ldr	r3, [r7, #12]
 8007a64:	6a1a      	ldr	r2, [r3, #32]
 8007a66:	2301      	movs	r3, #1
 8007a68:	f7fe f886 	bl	8005b78 <disk_write>
 8007a6c:	4603      	mov	r3, r0
 8007a6e:	2b00      	cmp	r3, #0
 8007a70:	d004      	beq.n	8007a7c <f_write+0x150>
 8007a72:	68fb      	ldr	r3, [r7, #12]
 8007a74:	2201      	movs	r2, #1
 8007a76:	755a      	strb	r2, [r3, #21]
 8007a78:	2301      	movs	r3, #1
 8007a7a:	e0c8      	b.n	8007c0e <f_write+0x2e2>
				fp->flag &= (BYTE)~FA_DIRTY;
 8007a7c:	68fb      	ldr	r3, [r7, #12]
 8007a7e:	7d1b      	ldrb	r3, [r3, #20]
 8007a80:	f003 037f 	and.w	r3, r3, #127	; 0x7f
 8007a84:	b2da      	uxtb	r2, r3
 8007a86:	68fb      	ldr	r3, [r7, #12]
 8007a88:	751a      	strb	r2, [r3, #20]
			}
#endif
			sect = clust2sect(fs, fp->clust);	/* Get current sector */
 8007a8a:	693a      	ldr	r2, [r7, #16]
 8007a8c:	68fb      	ldr	r3, [r7, #12]
 8007a8e:	69db      	ldr	r3, [r3, #28]
 8007a90:	4619      	mov	r1, r3
 8007a92:	4610      	mov	r0, r2
 8007a94:	f7fe fbfa 	bl	800628c <clust2sect>
 8007a98:	6178      	str	r0, [r7, #20]
			if (!sect) ABORT(fs, FR_INT_ERR);
 8007a9a:	697b      	ldr	r3, [r7, #20]
 8007a9c:	2b00      	cmp	r3, #0
 8007a9e:	d104      	bne.n	8007aaa <f_write+0x17e>
 8007aa0:	68fb      	ldr	r3, [r7, #12]
 8007aa2:	2202      	movs	r2, #2
 8007aa4:	755a      	strb	r2, [r3, #21]
 8007aa6:	2302      	movs	r3, #2
 8007aa8:	e0b1      	b.n	8007c0e <f_write+0x2e2>
			sect += csect;
 8007aaa:	697a      	ldr	r2, [r7, #20]
 8007aac:	69bb      	ldr	r3, [r7, #24]
 8007aae:	4413      	add	r3, r2
 8007ab0:	617b      	str	r3, [r7, #20]
			cc = btw / SS(fs);				/* When remaining bytes >= sector size, */
 8007ab2:	687b      	ldr	r3, [r7, #4]
 8007ab4:	0a5b      	lsrs	r3, r3, #9
 8007ab6:	623b      	str	r3, [r7, #32]
			if (cc) {						/* Write maximum contiguous sectors directly */
 8007ab8:	6a3b      	ldr	r3, [r7, #32]
 8007aba:	2b00      	cmp	r3, #0
 8007abc:	d03c      	beq.n	8007b38 <f_write+0x20c>
				if (csect + cc > fs->csize) {	/* Clip at cluster boundary */
 8007abe:	69ba      	ldr	r2, [r7, #24]
 8007ac0:	6a3b      	ldr	r3, [r7, #32]
 8007ac2:	4413      	add	r3, r2
 8007ac4:	693a      	ldr	r2, [r7, #16]
 8007ac6:	8952      	ldrh	r2, [r2, #10]
 8007ac8:	4293      	cmp	r3, r2
 8007aca:	d905      	bls.n	8007ad8 <f_write+0x1ac>
					cc = fs->csize - csect;
 8007acc:	693b      	ldr	r3, [r7, #16]
 8007ace:	895b      	ldrh	r3, [r3, #10]
 8007ad0:	461a      	mov	r2, r3
 8007ad2:	69bb      	ldr	r3, [r7, #24]
 8007ad4:	1ad3      	subs	r3, r2, r3
 8007ad6:	623b      	str	r3, [r7, #32]
				}
				if (disk_write(fs->drv, wbuff, sect, cc) != RES_OK) ABORT(fs, FR_DISK_ERR);
 8007ad8:	693b      	ldr	r3, [r7, #16]
 8007ada:	7858      	ldrb	r0, [r3, #1]
 8007adc:	6a3b      	ldr	r3, [r7, #32]
 8007ade:	697a      	ldr	r2, [r7, #20]
 8007ae0:	69f9      	ldr	r1, [r7, #28]
 8007ae2:	f7fe f849 	bl	8005b78 <disk_write>
 8007ae6:	4603      	mov	r3, r0
 8007ae8:	2b00      	cmp	r3, #0
 8007aea:	d004      	beq.n	8007af6 <f_write+0x1ca>
 8007aec:	68fb      	ldr	r3, [r7, #12]
 8007aee:	2201      	movs	r2, #1
 8007af0:	755a      	strb	r2, [r3, #21]
 8007af2:	2301      	movs	r3, #1
 8007af4:	e08b      	b.n	8007c0e <f_write+0x2e2>
				if (fs->winsect - sect < cc) {	/* Refill sector cache if it gets invalidated by the direct write */
					mem_cpy(fs->win, wbuff + ((fs->winsect - sect) * SS(fs)), SS(fs));
					fs->wflag = 0;
				}
#else
				if (fp->sect - sect < cc) { /* Refill sector cache if it gets invalidated by the direct write */
 8007af6:	68fb      	ldr	r3, [r7, #12]
 8007af8:	6a1a      	ldr	r2, [r3, #32]
 8007afa:	697b      	ldr	r3, [r7, #20]
 8007afc:	1ad3      	subs	r3, r2, r3
 8007afe:	6a3a      	ldr	r2, [r7, #32]
 8007b00:	429a      	cmp	r2, r3
 8007b02:	d915      	bls.n	8007b30 <f_write+0x204>
					mem_cpy(fp->buf, wbuff + ((fp->sect - sect) * SS(fs)), SS(fs));
 8007b04:	68fb      	ldr	r3, [r7, #12]
 8007b06:	f103 0030 	add.w	r0, r3, #48	; 0x30
 8007b0a:	68fb      	ldr	r3, [r7, #12]
 8007b0c:	6a1a      	ldr	r2, [r3, #32]
 8007b0e:	697b      	ldr	r3, [r7, #20]
 8007b10:	1ad3      	subs	r3, r2, r3
 8007b12:	025b      	lsls	r3, r3, #9
 8007b14:	69fa      	ldr	r2, [r7, #28]
 8007b16:	4413      	add	r3, r2
 8007b18:	f44f 7200 	mov.w	r2, #512	; 0x200
 8007b1c:	4619      	mov	r1, r3
 8007b1e:	f7fe f8eb 	bl	8005cf8 <mem_cpy>
					fp->flag &= (BYTE)~FA_DIRTY;
 8007b22:	68fb      	ldr	r3, [r7, #12]
 8007b24:	7d1b      	ldrb	r3, [r3, #20]
 8007b26:	f003 037f 	and.w	r3, r3, #127	; 0x7f
 8007b2a:	b2da      	uxtb	r2, r3
 8007b2c:	68fb      	ldr	r3, [r7, #12]
 8007b2e:	751a      	strb	r2, [r3, #20]
				}
#endif
#endif
				wcnt = SS(fs) * cc;		/* Number of bytes transferred */
 8007b30:	6a3b      	ldr	r3, [r7, #32]
 8007b32:	025b      	lsls	r3, r3, #9
 8007b34:	627b      	str	r3, [r7, #36]	; 0x24
				continue;
 8007b36:	e03f      	b.n	8007bb8 <f_write+0x28c>
			if (fp->fptr >= fp->obj.objsize) {	/* Avoid silly cache filling on the growing edge */
				if (sync_window(fs) != FR_OK) ABORT(fs, FR_DISK_ERR);
				fs->winsect = sect;
			}
#else
			if (fp->sect != sect && 		/* Fill sector cache with file data */
 8007b38:	68fb      	ldr	r3, [r7, #12]
 8007b3a:	6a1b      	ldr	r3, [r3, #32]
 8007b3c:	697a      	ldr	r2, [r7, #20]
 8007b3e:	429a      	cmp	r2, r3
 8007b40:	d016      	beq.n	8007b70 <f_write+0x244>
				fp->fptr < fp->obj.objsize &&
 8007b42:	68fb      	ldr	r3, [r7, #12]
 8007b44:	699a      	ldr	r2, [r3, #24]
 8007b46:	68fb      	ldr	r3, [r7, #12]
 8007b48:	68db      	ldr	r3, [r3, #12]
			if (fp->sect != sect && 		/* Fill sector cache with file data */
 8007b4a:	429a      	cmp	r2, r3
 8007b4c:	d210      	bcs.n	8007b70 <f_write+0x244>
				disk_read(fs->drv, fp->buf, sect, 1) != RES_OK) {
 8007b4e:	693b      	ldr	r3, [r7, #16]
 8007b50:	7858      	ldrb	r0, [r3, #1]
 8007b52:	68fb      	ldr	r3, [r7, #12]
 8007b54:	f103 0130 	add.w	r1, r3, #48	; 0x30
 8007b58:	2301      	movs	r3, #1
 8007b5a:	697a      	ldr	r2, [r7, #20]
 8007b5c:	f7fd ffec 	bl	8005b38 <disk_read>
 8007b60:	4603      	mov	r3, r0
				fp->fptr < fp->obj.objsize &&
 8007b62:	2b00      	cmp	r3, #0
 8007b64:	d004      	beq.n	8007b70 <f_write+0x244>
					ABORT(fs, FR_DISK_ERR);
 8007b66:	68fb      	ldr	r3, [r7, #12]
 8007b68:	2201      	movs	r2, #1
 8007b6a:	755a      	strb	r2, [r3, #21]
 8007b6c:	2301      	movs	r3, #1
 8007b6e:	e04e      	b.n	8007c0e <f_write+0x2e2>
			}
#endif
			fp->sect = sect;
 8007b70:	68fb      	ldr	r3, [r7, #12]
 8007b72:	697a      	ldr	r2, [r7, #20]
 8007b74:	621a      	str	r2, [r3, #32]
		}
		wcnt = SS(fs) - (UINT)fp->fptr % SS(fs);	/* Number of bytes left in the sector */
 8007b76:	68fb      	ldr	r3, [r7, #12]
 8007b78:	699b      	ldr	r3, [r3, #24]
 8007b7a:	f3c3 0308 	ubfx	r3, r3, #0, #9
 8007b7e:	f5c3 7300 	rsb	r3, r3, #512	; 0x200
 8007b82:	627b      	str	r3, [r7, #36]	; 0x24
		if (wcnt > btw) wcnt = btw;					/* Clip it by btw if needed */
 8007b84:	6a7a      	ldr	r2, [r7, #36]	; 0x24
 8007b86:	687b      	ldr	r3, [r7, #4]
 8007b88:	429a      	cmp	r2, r3
 8007b8a:	d901      	bls.n	8007b90 <f_write+0x264>
 8007b8c:	687b      	ldr	r3, [r7, #4]
 8007b8e:	627b      	str	r3, [r7, #36]	; 0x24
#if _FS_TINY
		if (move_window(fs, fp->sect) != FR_OK) ABORT(fs, FR_DISK_ERR);	/* Move sector window */
		mem_cpy(fs->win + fp->fptr % SS(fs), wbuff, wcnt);	/* Fit data to the sector */
		fs->wflag = 1;
#else
		mem_cpy(fp->buf + fp->fptr % SS(fs), wbuff, wcnt);	/* Fit data to the sector */
 8007b90:	68fb      	ldr	r3, [r7, #12]
 8007b92:	f103 0230 	add.w	r2, r3, #48	; 0x30
 8007b96:	68fb      	ldr	r3, [r7, #12]
 8007b98:	699b      	ldr	r3, [r3, #24]
 8007b9a:	f3c3 0308 	ubfx	r3, r3, #0, #9
 8007b9e:	4413      	add	r3, r2
 8007ba0:	6a7a      	ldr	r2, [r7, #36]	; 0x24
 8007ba2:	69f9      	ldr	r1, [r7, #28]
 8007ba4:	4618      	mov	r0, r3
 8007ba6:	f7fe f8a7 	bl	8005cf8 <mem_cpy>
		fp->flag |= FA_DIRTY;
 8007baa:	68fb      	ldr	r3, [r7, #12]
 8007bac:	7d1b      	ldrb	r3, [r3, #20]
 8007bae:	f063 037f 	orn	r3, r3, #127	; 0x7f
 8007bb2:	b2da      	uxtb	r2, r3
 8007bb4:	68fb      	ldr	r3, [r7, #12]
 8007bb6:	751a      	strb	r2, [r3, #20]
		wbuff += wcnt, fp->fptr += wcnt, fp->obj.objsize = (fp->fptr > fp->obj.objsize) ? fp->fptr : fp->obj.objsize, *bw += wcnt, btw -= wcnt) {
 8007bb8:	69fa      	ldr	r2, [r7, #28]
 8007bba:	6a7b      	ldr	r3, [r7, #36]	; 0x24
 8007bbc:	4413      	add	r3, r2
 8007bbe:	61fb      	str	r3, [r7, #28]
 8007bc0:	68fb      	ldr	r3, [r7, #12]
 8007bc2:	699a      	ldr	r2, [r3, #24]
 8007bc4:	6a7b      	ldr	r3, [r7, #36]	; 0x24
 8007bc6:	441a      	add	r2, r3
 8007bc8:	68fb      	ldr	r3, [r7, #12]
 8007bca:	619a      	str	r2, [r3, #24]
 8007bcc:	68fb      	ldr	r3, [r7, #12]
 8007bce:	68da      	ldr	r2, [r3, #12]
 8007bd0:	68fb      	ldr	r3, [r7, #12]
 8007bd2:	699b      	ldr	r3, [r3, #24]
 8007bd4:	429a      	cmp	r2, r3
 8007bd6:	bf38      	it	cc
 8007bd8:	461a      	movcc	r2, r3
 8007bda:	68fb      	ldr	r3, [r7, #12]
 8007bdc:	60da      	str	r2, [r3, #12]
 8007bde:	683b      	ldr	r3, [r7, #0]
 8007be0:	681a      	ldr	r2, [r3, #0]
 8007be2:	6a7b      	ldr	r3, [r7, #36]	; 0x24
 8007be4:	441a      	add	r2, r3
 8007be6:	683b      	ldr	r3, [r7, #0]
 8007be8:	601a      	str	r2, [r3, #0]
 8007bea:	687a      	ldr	r2, [r7, #4]
 8007bec:	6a7b      	ldr	r3, [r7, #36]	; 0x24
 8007bee:	1ad3      	subs	r3, r2, r3
 8007bf0:	607b      	str	r3, [r7, #4]
	for ( ;  btw;							/* Repeat until all data written */
 8007bf2:	687b      	ldr	r3, [r7, #4]
 8007bf4:	2b00      	cmp	r3, #0
 8007bf6:	f47f aed4 	bne.w	80079a2 <f_write+0x76>
 8007bfa:	e000      	b.n	8007bfe <f_write+0x2d2>
				if (clst == 0) break;		/* Could not allocate a new cluster (disk full) */
 8007bfc:	bf00      	nop
#endif
	}

	fp->flag |= FA_MODIFIED;				/* Set file change flag */
 8007bfe:	68fb      	ldr	r3, [r7, #12]
 8007c00:	7d1b      	ldrb	r3, [r3, #20]
 8007c02:	f043 0340 	orr.w	r3, r3, #64	; 0x40
 8007c06:	b2da      	uxtb	r2, r3
 8007c08:	68fb      	ldr	r3, [r7, #12]
 8007c0a:	751a      	strb	r2, [r3, #20]

	LEAVE_FF(fs, FR_OK);
 8007c0c:	2300      	movs	r3, #0
}
 8007c0e:	4618      	mov	r0, r3
 8007c10:	3730      	adds	r7, #48	; 0x30
 8007c12:	46bd      	mov	sp, r7
 8007c14:	bd80      	pop	{r7, pc}

08007c16 <f_sync>:
/*-----------------------------------------------------------------------*/

FRESULT f_sync (
	FIL* fp		/* Pointer to the file object */
)
{
 8007c16:	b580      	push	{r7, lr}
 8007c18:	b086      	sub	sp, #24
 8007c1a:	af00      	add	r7, sp, #0
 8007c1c:	6078      	str	r0, [r7, #4]
#if _FS_EXFAT
	DIR dj;
	DEF_NAMBUF
#endif

	res = validate(&fp->obj, &fs);	/* Check validity of the file object */
 8007c1e:	687b      	ldr	r3, [r7, #4]
 8007c20:	f107 0208 	add.w	r2, r7, #8
 8007c24:	4611      	mov	r1, r2
 8007c26:	4618      	mov	r0, r3
 8007c28:	f7ff fc46 	bl	80074b8 <validate>
 8007c2c:	4603      	mov	r3, r0
 8007c2e:	75fb      	strb	r3, [r7, #23]
	if (res == FR_OK) {
 8007c30:	7dfb      	ldrb	r3, [r7, #23]
 8007c32:	2b00      	cmp	r3, #0
 8007c34:	d168      	bne.n	8007d08 <f_sync+0xf2>
		if (fp->flag & FA_MODIFIED) {	/* Is there any change to the file? */
 8007c36:	687b      	ldr	r3, [r7, #4]
 8007c38:	7d1b      	ldrb	r3, [r3, #20]
 8007c3a:	f003 0340 	and.w	r3, r3, #64	; 0x40
 8007c3e:	2b00      	cmp	r3, #0
 8007c40:	d062      	beq.n	8007d08 <f_sync+0xf2>
#if !_FS_TINY
			if (fp->flag & FA_DIRTY) {	/* Write-back cached data if needed */
 8007c42:	687b      	ldr	r3, [r7, #4]
 8007c44:	7d1b      	ldrb	r3, [r3, #20]
 8007c46:	b25b      	sxtb	r3, r3
 8007c48:	2b00      	cmp	r3, #0
 8007c4a:	da15      	bge.n	8007c78 <f_sync+0x62>
				if (disk_write(fs->drv, fp->buf, fp->sect, 1) != RES_OK) LEAVE_FF(fs, FR_DISK_ERR);
 8007c4c:	68bb      	ldr	r3, [r7, #8]
 8007c4e:	7858      	ldrb	r0, [r3, #1]
 8007c50:	687b      	ldr	r3, [r7, #4]
 8007c52:	f103 0130 	add.w	r1, r3, #48	; 0x30
 8007c56:	687b      	ldr	r3, [r7, #4]
 8007c58:	6a1a      	ldr	r2, [r3, #32]
 8007c5a:	2301      	movs	r3, #1
 8007c5c:	f7fd ff8c 	bl	8005b78 <disk_write>
 8007c60:	4603      	mov	r3, r0
 8007c62:	2b00      	cmp	r3, #0
 8007c64:	d001      	beq.n	8007c6a <f_sync+0x54>
 8007c66:	2301      	movs	r3, #1
 8007c68:	e04f      	b.n	8007d0a <f_sync+0xf4>
				fp->flag &= (BYTE)~FA_DIRTY;
 8007c6a:	687b      	ldr	r3, [r7, #4]
 8007c6c:	7d1b      	ldrb	r3, [r3, #20]
 8007c6e:	f003 037f 	and.w	r3, r3, #127	; 0x7f
 8007c72:	b2da      	uxtb	r2, r3
 8007c74:	687b      	ldr	r3, [r7, #4]
 8007c76:	751a      	strb	r2, [r3, #20]
			}
#endif
			/* Update the directory entry */
			tm = GET_FATTIME();				/* Modified time */
 8007c78:	f7fd f9e2 	bl	8005040 <get_fattime>
 8007c7c:	6138      	str	r0, [r7, #16]
					FREE_NAMBUF();
				}
			} else
#endif
			{
				res = move_window(fs, fp->dir_sect);
 8007c7e:	68ba      	ldr	r2, [r7, #8]
 8007c80:	687b      	ldr	r3, [r7, #4]
 8007c82:	6a5b      	ldr	r3, [r3, #36]	; 0x24
 8007c84:	4619      	mov	r1, r3
 8007c86:	4610      	mov	r0, r2
 8007c88:	f7fe fa64 	bl	8006154 <move_window>
 8007c8c:	4603      	mov	r3, r0
 8007c8e:	75fb      	strb	r3, [r7, #23]
				if (res == FR_OK) {
 8007c90:	7dfb      	ldrb	r3, [r7, #23]
 8007c92:	2b00      	cmp	r3, #0
 8007c94:	d138      	bne.n	8007d08 <f_sync+0xf2>
					dir = fp->dir_ptr;
 8007c96:	687b      	ldr	r3, [r7, #4]
 8007c98:	6a9b      	ldr	r3, [r3, #40]	; 0x28
 8007c9a:	60fb      	str	r3, [r7, #12]
					dir[DIR_Attr] |= AM_ARC;						/* Set archive bit */
 8007c9c:	68fb      	ldr	r3, [r7, #12]
 8007c9e:	330b      	adds	r3, #11
 8007ca0:	781a      	ldrb	r2, [r3, #0]
 8007ca2:	68fb      	ldr	r3, [r7, #12]
 8007ca4:	330b      	adds	r3, #11
 8007ca6:	f042 0220 	orr.w	r2, r2, #32
 8007caa:	b2d2      	uxtb	r2, r2
 8007cac:	701a      	strb	r2, [r3, #0]
					st_clust(fp->obj.fs, dir, fp->obj.sclust);		/* Update file allocation info  */
 8007cae:	687b      	ldr	r3, [r7, #4]
 8007cb0:	6818      	ldr	r0, [r3, #0]
 8007cb2:	687b      	ldr	r3, [r7, #4]
 8007cb4:	689b      	ldr	r3, [r3, #8]
 8007cb6:	461a      	mov	r2, r3
 8007cb8:	68f9      	ldr	r1, [r7, #12]
 8007cba:	f7fe ff69 	bl	8006b90 <st_clust>
					st_dword(dir + DIR_FileSize, (DWORD)fp->obj.objsize);	/* Update file size */
 8007cbe:	68fb      	ldr	r3, [r7, #12]
 8007cc0:	f103 021c 	add.w	r2, r3, #28
 8007cc4:	687b      	ldr	r3, [r7, #4]
 8007cc6:	68db      	ldr	r3, [r3, #12]
 8007cc8:	4619      	mov	r1, r3
 8007cca:	4610      	mov	r0, r2
 8007ccc:	f7fd ffe8 	bl	8005ca0 <st_dword>
					st_dword(dir + DIR_ModTime, tm);				/* Update modified time */
 8007cd0:	68fb      	ldr	r3, [r7, #12]
 8007cd2:	3316      	adds	r3, #22
 8007cd4:	6939      	ldr	r1, [r7, #16]
 8007cd6:	4618      	mov	r0, r3
 8007cd8:	f7fd ffe2 	bl	8005ca0 <st_dword>
					st_word(dir + DIR_LstAccDate, 0);
 8007cdc:	68fb      	ldr	r3, [r7, #12]
 8007cde:	3312      	adds	r3, #18
 8007ce0:	2100      	movs	r1, #0
 8007ce2:	4618      	mov	r0, r3
 8007ce4:	f7fd ffc1 	bl	8005c6a <st_word>
					fs->wflag = 1;
 8007ce8:	68bb      	ldr	r3, [r7, #8]
 8007cea:	2201      	movs	r2, #1
 8007cec:	70da      	strb	r2, [r3, #3]
					res = sync_fs(fs);					/* Restore it to the directory */
 8007cee:	68bb      	ldr	r3, [r7, #8]
 8007cf0:	4618      	mov	r0, r3
 8007cf2:	f7fe fa5d 	bl	80061b0 <sync_fs>
 8007cf6:	4603      	mov	r3, r0
 8007cf8:	75fb      	strb	r3, [r7, #23]
					fp->flag &= (BYTE)~FA_MODIFIED;
 8007cfa:	687b      	ldr	r3, [r7, #4]
 8007cfc:	7d1b      	ldrb	r3, [r3, #20]
 8007cfe:	f023 0340 	bic.w	r3, r3, #64	; 0x40
 8007d02:	b2da      	uxtb	r2, r3
 8007d04:	687b      	ldr	r3, [r7, #4]
 8007d06:	751a      	strb	r2, [r3, #20]
				}
			}
		}
	}

	LEAVE_FF(fs, res);
 8007d08:	7dfb      	ldrb	r3, [r7, #23]
}
 8007d0a:	4618      	mov	r0, r3
 8007d0c:	3718      	adds	r7, #24
 8007d0e:	46bd      	mov	sp, r7
 8007d10:	bd80      	pop	{r7, pc}

08007d12 <f_close>:
/*-----------------------------------------------------------------------*/

FRESULT f_close (
	FIL* fp		/* Pointer to the file object to be closed */
)
{
 8007d12:	b580      	push	{r7, lr}
 8007d14:	b084      	sub	sp, #16
 8007d16:	af00      	add	r7, sp, #0
 8007d18:	6078      	str	r0, [r7, #4]
	FRESULT res;
	FATFS *fs;

#if !_FS_READONLY
	res = f_sync(fp);					/* Flush cached data */
 8007d1a:	6878      	ldr	r0, [r7, #4]
 8007d1c:	f7ff ff7b 	bl	8007c16 <f_sync>
 8007d20:	4603      	mov	r3, r0
 8007d22:	73fb      	strb	r3, [r7, #15]
	if (res == FR_OK)
 8007d24:	7bfb      	ldrb	r3, [r7, #15]
 8007d26:	2b00      	cmp	r3, #0
 8007d28:	d118      	bne.n	8007d5c <f_close+0x4a>
#endif
	{
		res = validate(&fp->obj, &fs);	/* Lock volume */
 8007d2a:	687b      	ldr	r3, [r7, #4]
 8007d2c:	f107 0208 	add.w	r2, r7, #8
 8007d30:	4611      	mov	r1, r2
 8007d32:	4618      	mov	r0, r3
 8007d34:	f7ff fbc0 	bl	80074b8 <validate>
 8007d38:	4603      	mov	r3, r0
 8007d3a:	73fb      	strb	r3, [r7, #15]
		if (res == FR_OK) {
 8007d3c:	7bfb      	ldrb	r3, [r7, #15]
 8007d3e:	2b00      	cmp	r3, #0
 8007d40:	d10c      	bne.n	8007d5c <f_close+0x4a>
#if _FS_LOCK != 0
			res = dec_lock(fp->obj.lockid);	/* Decrement file open counter */
 8007d42:	687b      	ldr	r3, [r7, #4]
 8007d44:	691b      	ldr	r3, [r3, #16]
 8007d46:	4618      	mov	r0, r3
 8007d48:	f7fe f960 	bl	800600c <dec_lock>
 8007d4c:	4603      	mov	r3, r0
 8007d4e:	73fb      	strb	r3, [r7, #15]
			if (res == FR_OK)
 8007d50:	7bfb      	ldrb	r3, [r7, #15]
 8007d52:	2b00      	cmp	r3, #0
 8007d54:	d102      	bne.n	8007d5c <f_close+0x4a>
#endif
			{
				fp->obj.fs = 0;			/* Invalidate file object */
 8007d56:	687b      	ldr	r3, [r7, #4]
 8007d58:	2200      	movs	r2, #0
 8007d5a:	601a      	str	r2, [r3, #0]
#if _FS_REENTRANT
			unlock_fs(fs, FR_OK);		/* Unlock volume */
#endif
		}
	}
	return res;
 8007d5c:	7bfb      	ldrb	r3, [r7, #15]
}
 8007d5e:	4618      	mov	r0, r3
 8007d60:	3710      	adds	r7, #16
 8007d62:	46bd      	mov	sp, r7
 8007d64:	bd80      	pop	{r7, pc}

08007d66 <f_lseek>:

FRESULT f_lseek (
	FIL* fp,		/* Pointer to the file object */
	FSIZE_t ofs		/* File pointer from top of file */
)
{
 8007d66:	b580      	push	{r7, lr}
 8007d68:	b090      	sub	sp, #64	; 0x40
 8007d6a:	af00      	add	r7, sp, #0
 8007d6c:	6078      	str	r0, [r7, #4]
 8007d6e:	6039      	str	r1, [r7, #0]
	FSIZE_t ifptr;
#if _USE_FASTSEEK
	DWORD cl, pcl, ncl, tcl, dsc, tlen, ulen, *tbl;
#endif

	res = validate(&fp->obj, &fs);		/* Check validity of the file object */
 8007d70:	687b      	ldr	r3, [r7, #4]
 8007d72:	f107 0208 	add.w	r2, r7, #8
 8007d76:	4611      	mov	r1, r2
 8007d78:	4618      	mov	r0, r3
 8007d7a:	f7ff fb9d 	bl	80074b8 <validate>
 8007d7e:	4603      	mov	r3, r0
 8007d80:	f887 303f 	strb.w	r3, [r7, #63]	; 0x3f
	if (res == FR_OK) res = (FRESULT)fp->err;
 8007d84:	f897 303f 	ldrb.w	r3, [r7, #63]	; 0x3f
 8007d88:	2b00      	cmp	r3, #0
 8007d8a:	d103      	bne.n	8007d94 <f_lseek+0x2e>
 8007d8c:	687b      	ldr	r3, [r7, #4]
 8007d8e:	7d5b      	ldrb	r3, [r3, #21]
 8007d90:	f887 303f 	strb.w	r3, [r7, #63]	; 0x3f
#if _FS_EXFAT && !_FS_READONLY
	if (res == FR_OK && fs->fs_type == FS_EXFAT) {
		res = fill_last_frag(&fp->obj, fp->clust, 0xFFFFFFFF);	/* Fill last fragment on the FAT if needed */
	}
#endif
	if (res != FR_OK) LEAVE_FF(fs, res);
 8007d94:	f897 303f 	ldrb.w	r3, [r7, #63]	; 0x3f
 8007d98:	2b00      	cmp	r3, #0
 8007d9a:	d002      	beq.n	8007da2 <f_lseek+0x3c>
 8007d9c:	f897 303f 	ldrb.w	r3, [r7, #63]	; 0x3f
 8007da0:	e1e6      	b.n	8008170 <f_lseek+0x40a>

#if _USE_FASTSEEK
	if (fp->cltbl) {	/* Fast seek */
 8007da2:	687b      	ldr	r3, [r7, #4]
 8007da4:	6adb      	ldr	r3, [r3, #44]	; 0x2c
 8007da6:	2b00      	cmp	r3, #0
 8007da8:	f000 80d1 	beq.w	8007f4e <f_lseek+0x1e8>
		if (ofs == CREATE_LINKMAP) {	/* Create CLMT */
 8007dac:	683b      	ldr	r3, [r7, #0]
 8007dae:	f1b3 3fff 	cmp.w	r3, #4294967295
 8007db2:	d15a      	bne.n	8007e6a <f_lseek+0x104>
			tbl = fp->cltbl;
 8007db4:	687b      	ldr	r3, [r7, #4]
 8007db6:	6adb      	ldr	r3, [r3, #44]	; 0x2c
 8007db8:	627b      	str	r3, [r7, #36]	; 0x24
			tlen = *tbl++; ulen = 2;	/* Given table size and required table size */
 8007dba:	6a7b      	ldr	r3, [r7, #36]	; 0x24
 8007dbc:	1d1a      	adds	r2, r3, #4
 8007dbe:	627a      	str	r2, [r7, #36]	; 0x24
 8007dc0:	681b      	ldr	r3, [r3, #0]
 8007dc2:	617b      	str	r3, [r7, #20]
 8007dc4:	2302      	movs	r3, #2
 8007dc6:	62bb      	str	r3, [r7, #40]	; 0x28
			cl = fp->obj.sclust;		/* Origin of the chain */
 8007dc8:	687b      	ldr	r3, [r7, #4]
 8007dca:	689b      	ldr	r3, [r3, #8]
 8007dcc:	633b      	str	r3, [r7, #48]	; 0x30
			if (cl) {
 8007dce:	6b3b      	ldr	r3, [r7, #48]	; 0x30
 8007dd0:	2b00      	cmp	r3, #0
 8007dd2:	d03a      	beq.n	8007e4a <f_lseek+0xe4>
				do {
					/* Get a fragment */
					tcl = cl; ncl = 0; ulen += 2;	/* Top, length and used items */
 8007dd4:	6b3b      	ldr	r3, [r7, #48]	; 0x30
 8007dd6:	613b      	str	r3, [r7, #16]
 8007dd8:	2300      	movs	r3, #0
 8007dda:	62fb      	str	r3, [r7, #44]	; 0x2c
 8007ddc:	6abb      	ldr	r3, [r7, #40]	; 0x28
 8007dde:	3302      	adds	r3, #2
 8007de0:	62bb      	str	r3, [r7, #40]	; 0x28
					do {
						pcl = cl; ncl++;
 8007de2:	6b3b      	ldr	r3, [r7, #48]	; 0x30
 8007de4:	60fb      	str	r3, [r7, #12]
 8007de6:	6afb      	ldr	r3, [r7, #44]	; 0x2c
 8007de8:	3301      	adds	r3, #1
 8007dea:	62fb      	str	r3, [r7, #44]	; 0x2c
						cl = get_fat(&fp->obj, cl);
 8007dec:	687b      	ldr	r3, [r7, #4]
 8007dee:	6b39      	ldr	r1, [r7, #48]	; 0x30
 8007df0:	4618      	mov	r0, r3
 8007df2:	f7fe fa6a 	bl	80062ca <get_fat>
 8007df6:	6338      	str	r0, [r7, #48]	; 0x30
						if (cl <= 1) ABORT(fs, FR_INT_ERR);
 8007df8:	6b3b      	ldr	r3, [r7, #48]	; 0x30
 8007dfa:	2b01      	cmp	r3, #1
 8007dfc:	d804      	bhi.n	8007e08 <f_lseek+0xa2>
 8007dfe:	687b      	ldr	r3, [r7, #4]
 8007e00:	2202      	movs	r2, #2
 8007e02:	755a      	strb	r2, [r3, #21]
 8007e04:	2302      	movs	r3, #2
 8007e06:	e1b3      	b.n	8008170 <f_lseek+0x40a>
						if (cl == 0xFFFFFFFF) ABORT(fs, FR_DISK_ERR);
 8007e08:	6b3b      	ldr	r3, [r7, #48]	; 0x30
 8007e0a:	f1b3 3fff 	cmp.w	r3, #4294967295
 8007e0e:	d104      	bne.n	8007e1a <f_lseek+0xb4>
 8007e10:	687b      	ldr	r3, [r7, #4]
 8007e12:	2201      	movs	r2, #1
 8007e14:	755a      	strb	r2, [r3, #21]
 8007e16:	2301      	movs	r3, #1
 8007e18:	e1aa      	b.n	8008170 <f_lseek+0x40a>
					} while (cl == pcl + 1);
 8007e1a:	68fb      	ldr	r3, [r7, #12]
 8007e1c:	3301      	adds	r3, #1
 8007e1e:	6b3a      	ldr	r2, [r7, #48]	; 0x30
 8007e20:	429a      	cmp	r2, r3
 8007e22:	d0de      	beq.n	8007de2 <f_lseek+0x7c>
					if (ulen <= tlen) {		/* Store the length and top of the fragment */
 8007e24:	6aba      	ldr	r2, [r7, #40]	; 0x28
 8007e26:	697b      	ldr	r3, [r7, #20]
 8007e28:	429a      	cmp	r2, r3
 8007e2a:	d809      	bhi.n	8007e40 <f_lseek+0xda>
						*tbl++ = ncl; *tbl++ = tcl;
 8007e2c:	6a7b      	ldr	r3, [r7, #36]	; 0x24
 8007e2e:	1d1a      	adds	r2, r3, #4
 8007e30:	627a      	str	r2, [r7, #36]	; 0x24
 8007e32:	6afa      	ldr	r2, [r7, #44]	; 0x2c
 8007e34:	601a      	str	r2, [r3, #0]
 8007e36:	6a7b      	ldr	r3, [r7, #36]	; 0x24
 8007e38:	1d1a      	adds	r2, r3, #4
 8007e3a:	627a      	str	r2, [r7, #36]	; 0x24
 8007e3c:	693a      	ldr	r2, [r7, #16]
 8007e3e:	601a      	str	r2, [r3, #0]
					}
				} while (cl < fs->n_fatent);	/* Repeat until end of chain */
 8007e40:	68bb      	ldr	r3, [r7, #8]
 8007e42:	695b      	ldr	r3, [r3, #20]
 8007e44:	6b3a      	ldr	r2, [r7, #48]	; 0x30
 8007e46:	429a      	cmp	r2, r3
 8007e48:	d3c4      	bcc.n	8007dd4 <f_lseek+0x6e>
			}
			*fp->cltbl = ulen;	/* Number of items used */
 8007e4a:	687b      	ldr	r3, [r7, #4]
 8007e4c:	6adb      	ldr	r3, [r3, #44]	; 0x2c
 8007e4e:	6aba      	ldr	r2, [r7, #40]	; 0x28
 8007e50:	601a      	str	r2, [r3, #0]
			if (ulen <= tlen) {
 8007e52:	6aba      	ldr	r2, [r7, #40]	; 0x28
 8007e54:	697b      	ldr	r3, [r7, #20]
 8007e56:	429a      	cmp	r2, r3
 8007e58:	d803      	bhi.n	8007e62 <f_lseek+0xfc>
				*tbl = 0;		/* Terminate table */
 8007e5a:	6a7b      	ldr	r3, [r7, #36]	; 0x24
 8007e5c:	2200      	movs	r2, #0
 8007e5e:	601a      	str	r2, [r3, #0]
 8007e60:	e184      	b.n	800816c <f_lseek+0x406>
			} else {
				res = FR_NOT_ENOUGH_CORE;	/* Given table size is smaller than required */
 8007e62:	2311      	movs	r3, #17
 8007e64:	f887 303f 	strb.w	r3, [r7, #63]	; 0x3f
 8007e68:	e180      	b.n	800816c <f_lseek+0x406>
			}
		} else {						/* Fast seek */
			if (ofs > fp->obj.objsize) ofs = fp->obj.objsize;	/* Clip offset at the file size */
 8007e6a:	687b      	ldr	r3, [r7, #4]
 8007e6c:	68db      	ldr	r3, [r3, #12]
 8007e6e:	683a      	ldr	r2, [r7, #0]
 8007e70:	429a      	cmp	r2, r3
 8007e72:	d902      	bls.n	8007e7a <f_lseek+0x114>
 8007e74:	687b      	ldr	r3, [r7, #4]
 8007e76:	68db      	ldr	r3, [r3, #12]
 8007e78:	603b      	str	r3, [r7, #0]
			fp->fptr = ofs;				/* Set file pointer */
 8007e7a:	687b      	ldr	r3, [r7, #4]
 8007e7c:	683a      	ldr	r2, [r7, #0]
 8007e7e:	619a      	str	r2, [r3, #24]
			if (ofs) {
 8007e80:	683b      	ldr	r3, [r7, #0]
 8007e82:	2b00      	cmp	r3, #0
 8007e84:	f000 8172 	beq.w	800816c <f_lseek+0x406>
				fp->clust = clmt_clust(fp, ofs - 1);
 8007e88:	683b      	ldr	r3, [r7, #0]
 8007e8a:	3b01      	subs	r3, #1
 8007e8c:	4619      	mov	r1, r3
 8007e8e:	6878      	ldr	r0, [r7, #4]
 8007e90:	f7fe fca4 	bl	80067dc <clmt_clust>
 8007e94:	4602      	mov	r2, r0
 8007e96:	687b      	ldr	r3, [r7, #4]
 8007e98:	61da      	str	r2, [r3, #28]
				dsc = clust2sect(fs, fp->clust);
 8007e9a:	68ba      	ldr	r2, [r7, #8]
 8007e9c:	687b      	ldr	r3, [r7, #4]
 8007e9e:	69db      	ldr	r3, [r3, #28]
 8007ea0:	4619      	mov	r1, r3
 8007ea2:	4610      	mov	r0, r2
 8007ea4:	f7fe f9f2 	bl	800628c <clust2sect>
 8007ea8:	61b8      	str	r0, [r7, #24]
				if (!dsc) ABORT(fs, FR_INT_ERR);
 8007eaa:	69bb      	ldr	r3, [r7, #24]
 8007eac:	2b00      	cmp	r3, #0
 8007eae:	d104      	bne.n	8007eba <f_lseek+0x154>
 8007eb0:	687b      	ldr	r3, [r7, #4]
 8007eb2:	2202      	movs	r2, #2
 8007eb4:	755a      	strb	r2, [r3, #21]
 8007eb6:	2302      	movs	r3, #2
 8007eb8:	e15a      	b.n	8008170 <f_lseek+0x40a>
				dsc += (DWORD)((ofs - 1) / SS(fs)) & (fs->csize - 1);
 8007eba:	683b      	ldr	r3, [r7, #0]
 8007ebc:	3b01      	subs	r3, #1
 8007ebe:	0a5b      	lsrs	r3, r3, #9
 8007ec0:	68ba      	ldr	r2, [r7, #8]
 8007ec2:	8952      	ldrh	r2, [r2, #10]
 8007ec4:	3a01      	subs	r2, #1
 8007ec6:	4013      	ands	r3, r2
 8007ec8:	69ba      	ldr	r2, [r7, #24]
 8007eca:	4413      	add	r3, r2
 8007ecc:	61bb      	str	r3, [r7, #24]
				if (fp->fptr % SS(fs) && dsc != fp->sect) {	/* Refill sector cache if needed */
 8007ece:	687b      	ldr	r3, [r7, #4]
 8007ed0:	699b      	ldr	r3, [r3, #24]
 8007ed2:	f3c3 0308 	ubfx	r3, r3, #0, #9
 8007ed6:	2b00      	cmp	r3, #0
 8007ed8:	f000 8148 	beq.w	800816c <f_lseek+0x406>
 8007edc:	687b      	ldr	r3, [r7, #4]
 8007ede:	6a1b      	ldr	r3, [r3, #32]
 8007ee0:	69ba      	ldr	r2, [r7, #24]
 8007ee2:	429a      	cmp	r2, r3
 8007ee4:	f000 8142 	beq.w	800816c <f_lseek+0x406>
#if !_FS_TINY
#if !_FS_READONLY
					if (fp->flag & FA_DIRTY) {		/* Write-back dirty sector cache */
 8007ee8:	687b      	ldr	r3, [r7, #4]
 8007eea:	7d1b      	ldrb	r3, [r3, #20]
 8007eec:	b25b      	sxtb	r3, r3
 8007eee:	2b00      	cmp	r3, #0
 8007ef0:	da18      	bge.n	8007f24 <f_lseek+0x1be>
						if (disk_write(fs->drv, fp->buf, fp->sect, 1) != RES_OK) ABORT(fs, FR_DISK_ERR);
 8007ef2:	68bb      	ldr	r3, [r7, #8]
 8007ef4:	7858      	ldrb	r0, [r3, #1]
 8007ef6:	687b      	ldr	r3, [r7, #4]
 8007ef8:	f103 0130 	add.w	r1, r3, #48	; 0x30
 8007efc:	687b      	ldr	r3, [r7, #4]
 8007efe:	6a1a      	ldr	r2, [r3, #32]
 8007f00:	2301      	movs	r3, #1
 8007f02:	f7fd fe39 	bl	8005b78 <disk_write>
 8007f06:	4603      	mov	r3, r0
 8007f08:	2b00      	cmp	r3, #0
 8007f0a:	d004      	beq.n	8007f16 <f_lseek+0x1b0>
 8007f0c:	687b      	ldr	r3, [r7, #4]
 8007f0e:	2201      	movs	r2, #1
 8007f10:	755a      	strb	r2, [r3, #21]
 8007f12:	2301      	movs	r3, #1
 8007f14:	e12c      	b.n	8008170 <f_lseek+0x40a>
						fp->flag &= (BYTE)~FA_DIRTY;
 8007f16:	687b      	ldr	r3, [r7, #4]
 8007f18:	7d1b      	ldrb	r3, [r3, #20]
 8007f1a:	f003 037f 	and.w	r3, r3, #127	; 0x7f
 8007f1e:	b2da      	uxtb	r2, r3
 8007f20:	687b      	ldr	r3, [r7, #4]
 8007f22:	751a      	strb	r2, [r3, #20]
					}
#endif
					if (disk_read(fs->drv, fp->buf, dsc, 1) != RES_OK) ABORT(fs, FR_DISK_ERR);	/* Load current sector */
 8007f24:	68bb      	ldr	r3, [r7, #8]
 8007f26:	7858      	ldrb	r0, [r3, #1]
 8007f28:	687b      	ldr	r3, [r7, #4]
 8007f2a:	f103 0130 	add.w	r1, r3, #48	; 0x30
 8007f2e:	2301      	movs	r3, #1
 8007f30:	69ba      	ldr	r2, [r7, #24]
 8007f32:	f7fd fe01 	bl	8005b38 <disk_read>
 8007f36:	4603      	mov	r3, r0
 8007f38:	2b00      	cmp	r3, #0
 8007f3a:	d004      	beq.n	8007f46 <f_lseek+0x1e0>
 8007f3c:	687b      	ldr	r3, [r7, #4]
 8007f3e:	2201      	movs	r2, #1
 8007f40:	755a      	strb	r2, [r3, #21]
 8007f42:	2301      	movs	r3, #1
 8007f44:	e114      	b.n	8008170 <f_lseek+0x40a>
#endif
					fp->sect = dsc;
 8007f46:	687b      	ldr	r3, [r7, #4]
 8007f48:	69ba      	ldr	r2, [r7, #24]
 8007f4a:	621a      	str	r2, [r3, #32]
 8007f4c:	e10e      	b.n	800816c <f_lseek+0x406>
	/* Normal Seek */
	{
#if _FS_EXFAT
		if (fs->fs_type != FS_EXFAT && ofs >= 0x100000000) ofs = 0xFFFFFFFF;	/* Clip at 4GiB-1 if at FATxx */
#endif
		if (ofs > fp->obj.objsize && (_FS_READONLY || !(fp->flag & FA_WRITE))) {	/* In read-only mode, clip offset with the file size */
 8007f4e:	687b      	ldr	r3, [r7, #4]
 8007f50:	68db      	ldr	r3, [r3, #12]
 8007f52:	683a      	ldr	r2, [r7, #0]
 8007f54:	429a      	cmp	r2, r3
 8007f56:	d908      	bls.n	8007f6a <f_lseek+0x204>
 8007f58:	687b      	ldr	r3, [r7, #4]
 8007f5a:	7d1b      	ldrb	r3, [r3, #20]
 8007f5c:	f003 0302 	and.w	r3, r3, #2
 8007f60:	2b00      	cmp	r3, #0
 8007f62:	d102      	bne.n	8007f6a <f_lseek+0x204>
			ofs = fp->obj.objsize;
 8007f64:	687b      	ldr	r3, [r7, #4]
 8007f66:	68db      	ldr	r3, [r3, #12]
 8007f68:	603b      	str	r3, [r7, #0]
		}
		ifptr = fp->fptr;
 8007f6a:	687b      	ldr	r3, [r7, #4]
 8007f6c:	699b      	ldr	r3, [r3, #24]
 8007f6e:	623b      	str	r3, [r7, #32]
		fp->fptr = nsect = 0;
 8007f70:	2300      	movs	r3, #0
 8007f72:	637b      	str	r3, [r7, #52]	; 0x34
 8007f74:	687b      	ldr	r3, [r7, #4]
 8007f76:	6b7a      	ldr	r2, [r7, #52]	; 0x34
 8007f78:	619a      	str	r2, [r3, #24]
		if (ofs) {
 8007f7a:	683b      	ldr	r3, [r7, #0]
 8007f7c:	2b00      	cmp	r3, #0
 8007f7e:	f000 80a7 	beq.w	80080d0 <f_lseek+0x36a>
			bcs = (DWORD)fs->csize * SS(fs);	/* Cluster size (byte) */
 8007f82:	68bb      	ldr	r3, [r7, #8]
 8007f84:	895b      	ldrh	r3, [r3, #10]
 8007f86:	025b      	lsls	r3, r3, #9
 8007f88:	61fb      	str	r3, [r7, #28]
			if (ifptr > 0 &&
 8007f8a:	6a3b      	ldr	r3, [r7, #32]
 8007f8c:	2b00      	cmp	r3, #0
 8007f8e:	d01b      	beq.n	8007fc8 <f_lseek+0x262>
				(ofs - 1) / bcs >= (ifptr - 1) / bcs) {	/* When seek to same or following cluster, */
 8007f90:	683b      	ldr	r3, [r7, #0]
 8007f92:	1e5a      	subs	r2, r3, #1
 8007f94:	69fb      	ldr	r3, [r7, #28]
 8007f96:	fbb2 f2f3 	udiv	r2, r2, r3
 8007f9a:	6a3b      	ldr	r3, [r7, #32]
 8007f9c:	1e59      	subs	r1, r3, #1
 8007f9e:	69fb      	ldr	r3, [r7, #28]
 8007fa0:	fbb1 f3f3 	udiv	r3, r1, r3
			if (ifptr > 0 &&
 8007fa4:	429a      	cmp	r2, r3
 8007fa6:	d30f      	bcc.n	8007fc8 <f_lseek+0x262>
				fp->fptr = (ifptr - 1) & ~(FSIZE_t)(bcs - 1);	/* start from the current cluster */
 8007fa8:	6a3b      	ldr	r3, [r7, #32]
 8007faa:	1e5a      	subs	r2, r3, #1
 8007fac:	69fb      	ldr	r3, [r7, #28]
 8007fae:	425b      	negs	r3, r3
 8007fb0:	401a      	ands	r2, r3
 8007fb2:	687b      	ldr	r3, [r7, #4]
 8007fb4:	619a      	str	r2, [r3, #24]
				ofs -= fp->fptr;
 8007fb6:	687b      	ldr	r3, [r7, #4]
 8007fb8:	699b      	ldr	r3, [r3, #24]
 8007fba:	683a      	ldr	r2, [r7, #0]
 8007fbc:	1ad3      	subs	r3, r2, r3
 8007fbe:	603b      	str	r3, [r7, #0]
				clst = fp->clust;
 8007fc0:	687b      	ldr	r3, [r7, #4]
 8007fc2:	69db      	ldr	r3, [r3, #28]
 8007fc4:	63bb      	str	r3, [r7, #56]	; 0x38
 8007fc6:	e022      	b.n	800800e <f_lseek+0x2a8>
			} else {									/* When seek to back cluster, */
				clst = fp->obj.sclust;					/* start from the first cluster */
 8007fc8:	687b      	ldr	r3, [r7, #4]
 8007fca:	689b      	ldr	r3, [r3, #8]
 8007fcc:	63bb      	str	r3, [r7, #56]	; 0x38
#if !_FS_READONLY
				if (clst == 0) {						/* If no cluster chain, create a new chain */
 8007fce:	6bbb      	ldr	r3, [r7, #56]	; 0x38
 8007fd0:	2b00      	cmp	r3, #0
 8007fd2:	d119      	bne.n	8008008 <f_lseek+0x2a2>
					clst = create_chain(&fp->obj, 0);
 8007fd4:	687b      	ldr	r3, [r7, #4]
 8007fd6:	2100      	movs	r1, #0
 8007fd8:	4618      	mov	r0, r3
 8007fda:	f7fe fb67 	bl	80066ac <create_chain>
 8007fde:	63b8      	str	r0, [r7, #56]	; 0x38
					if (clst == 1) ABORT(fs, FR_INT_ERR);
 8007fe0:	6bbb      	ldr	r3, [r7, #56]	; 0x38
 8007fe2:	2b01      	cmp	r3, #1
 8007fe4:	d104      	bne.n	8007ff0 <f_lseek+0x28a>
 8007fe6:	687b      	ldr	r3, [r7, #4]
 8007fe8:	2202      	movs	r2, #2
 8007fea:	755a      	strb	r2, [r3, #21]
 8007fec:	2302      	movs	r3, #2
 8007fee:	e0bf      	b.n	8008170 <f_lseek+0x40a>
					if (clst == 0xFFFFFFFF) ABORT(fs, FR_DISK_ERR);
 8007ff0:	6bbb      	ldr	r3, [r7, #56]	; 0x38
 8007ff2:	f1b3 3fff 	cmp.w	r3, #4294967295
 8007ff6:	d104      	bne.n	8008002 <f_lseek+0x29c>
 8007ff8:	687b      	ldr	r3, [r7, #4]
 8007ffa:	2201      	movs	r2, #1
 8007ffc:	755a      	strb	r2, [r3, #21]
 8007ffe:	2301      	movs	r3, #1
 8008000:	e0b6      	b.n	8008170 <f_lseek+0x40a>
					fp->obj.sclust = clst;
 8008002:	687b      	ldr	r3, [r7, #4]
 8008004:	6bba      	ldr	r2, [r7, #56]	; 0x38
 8008006:	609a      	str	r2, [r3, #8]
				}
#endif
				fp->clust = clst;
 8008008:	687b      	ldr	r3, [r7, #4]
 800800a:	6bba      	ldr	r2, [r7, #56]	; 0x38
 800800c:	61da      	str	r2, [r3, #28]
			}
			if (clst != 0) {
 800800e:	6bbb      	ldr	r3, [r7, #56]	; 0x38
 8008010:	2b00      	cmp	r3, #0
 8008012:	d05d      	beq.n	80080d0 <f_lseek+0x36a>
				while (ofs > bcs) {						/* Cluster following loop */
 8008014:	e03a      	b.n	800808c <f_lseek+0x326>
					ofs -= bcs; fp->fptr += bcs;
 8008016:	683a      	ldr	r2, [r7, #0]
 8008018:	69fb      	ldr	r3, [r7, #28]
 800801a:	1ad3      	subs	r3, r2, r3
 800801c:	603b      	str	r3, [r7, #0]
 800801e:	687b      	ldr	r3, [r7, #4]
 8008020:	699a      	ldr	r2, [r3, #24]
 8008022:	69fb      	ldr	r3, [r7, #28]
 8008024:	441a      	add	r2, r3
 8008026:	687b      	ldr	r3, [r7, #4]
 8008028:	619a      	str	r2, [r3, #24]
#if !_FS_READONLY
					if (fp->flag & FA_WRITE) {			/* Check if in write mode or not */
 800802a:	687b      	ldr	r3, [r7, #4]
 800802c:	7d1b      	ldrb	r3, [r3, #20]
 800802e:	f003 0302 	and.w	r3, r3, #2
 8008032:	2b00      	cmp	r3, #0
 8008034:	d00b      	beq.n	800804e <f_lseek+0x2e8>
						if (_FS_EXFAT && fp->fptr > fp->obj.objsize) {	/* No FAT chain object needs correct objsize to generate FAT value */
							fp->obj.objsize = fp->fptr;
							fp->flag |= FA_MODIFIED;
						}
						clst = create_chain(&fp->obj, clst);	/* Follow chain with forceed stretch */
 8008036:	687b      	ldr	r3, [r7, #4]
 8008038:	6bb9      	ldr	r1, [r7, #56]	; 0x38
 800803a:	4618      	mov	r0, r3
 800803c:	f7fe fb36 	bl	80066ac <create_chain>
 8008040:	63b8      	str	r0, [r7, #56]	; 0x38
						if (clst == 0) {				/* Clip file size in case of disk full */
 8008042:	6bbb      	ldr	r3, [r7, #56]	; 0x38
 8008044:	2b00      	cmp	r3, #0
 8008046:	d108      	bne.n	800805a <f_lseek+0x2f4>
							ofs = 0; break;
 8008048:	2300      	movs	r3, #0
 800804a:	603b      	str	r3, [r7, #0]
 800804c:	e022      	b.n	8008094 <f_lseek+0x32e>
						}
					} else
#endif
					{
						clst = get_fat(&fp->obj, clst);	/* Follow cluster chain if not in write mode */
 800804e:	687b      	ldr	r3, [r7, #4]
 8008050:	6bb9      	ldr	r1, [r7, #56]	; 0x38
 8008052:	4618      	mov	r0, r3
 8008054:	f7fe f939 	bl	80062ca <get_fat>
 8008058:	63b8      	str	r0, [r7, #56]	; 0x38
					}
					if (clst == 0xFFFFFFFF) ABORT(fs, FR_DISK_ERR);
 800805a:	6bbb      	ldr	r3, [r7, #56]	; 0x38
 800805c:	f1b3 3fff 	cmp.w	r3, #4294967295
 8008060:	d104      	bne.n	800806c <f_lseek+0x306>
 8008062:	687b      	ldr	r3, [r7, #4]
 8008064:	2201      	movs	r2, #1
 8008066:	755a      	strb	r2, [r3, #21]
 8008068:	2301      	movs	r3, #1
 800806a:	e081      	b.n	8008170 <f_lseek+0x40a>
					if (clst <= 1 || clst >= fs->n_fatent) ABORT(fs, FR_INT_ERR);
 800806c:	6bbb      	ldr	r3, [r7, #56]	; 0x38
 800806e:	2b01      	cmp	r3, #1
 8008070:	d904      	bls.n	800807c <f_lseek+0x316>
 8008072:	68bb      	ldr	r3, [r7, #8]
 8008074:	695b      	ldr	r3, [r3, #20]
 8008076:	6bba      	ldr	r2, [r7, #56]	; 0x38
 8008078:	429a      	cmp	r2, r3
 800807a:	d304      	bcc.n	8008086 <f_lseek+0x320>
 800807c:	687b      	ldr	r3, [r7, #4]
 800807e:	2202      	movs	r2, #2
 8008080:	755a      	strb	r2, [r3, #21]
 8008082:	2302      	movs	r3, #2
 8008084:	e074      	b.n	8008170 <f_lseek+0x40a>
					fp->clust = clst;
 8008086:	687b      	ldr	r3, [r7, #4]
 8008088:	6bba      	ldr	r2, [r7, #56]	; 0x38
 800808a:	61da      	str	r2, [r3, #28]
				while (ofs > bcs) {						/* Cluster following loop */
 800808c:	683a      	ldr	r2, [r7, #0]
 800808e:	69fb      	ldr	r3, [r7, #28]
 8008090:	429a      	cmp	r2, r3
 8008092:	d8c0      	bhi.n	8008016 <f_lseek+0x2b0>
				}
				fp->fptr += ofs;
 8008094:	687b      	ldr	r3, [r7, #4]
 8008096:	699a      	ldr	r2, [r3, #24]
 8008098:	683b      	ldr	r3, [r7, #0]
 800809a:	441a      	add	r2, r3
 800809c:	687b      	ldr	r3, [r7, #4]
 800809e:	619a      	str	r2, [r3, #24]
				if (ofs % SS(fs)) {
 80080a0:	683b      	ldr	r3, [r7, #0]
 80080a2:	f3c3 0308 	ubfx	r3, r3, #0, #9
 80080a6:	2b00      	cmp	r3, #0
 80080a8:	d012      	beq.n	80080d0 <f_lseek+0x36a>
					nsect = clust2sect(fs, clst);	/* Current sector */
 80080aa:	68bb      	ldr	r3, [r7, #8]
 80080ac:	6bb9      	ldr	r1, [r7, #56]	; 0x38
 80080ae:	4618      	mov	r0, r3
 80080b0:	f7fe f8ec 	bl	800628c <clust2sect>
 80080b4:	6378      	str	r0, [r7, #52]	; 0x34
					if (!nsect) ABORT(fs, FR_INT_ERR);
 80080b6:	6b7b      	ldr	r3, [r7, #52]	; 0x34
 80080b8:	2b00      	cmp	r3, #0
 80080ba:	d104      	bne.n	80080c6 <f_lseek+0x360>
 80080bc:	687b      	ldr	r3, [r7, #4]
 80080be:	2202      	movs	r2, #2
 80080c0:	755a      	strb	r2, [r3, #21]
 80080c2:	2302      	movs	r3, #2
 80080c4:	e054      	b.n	8008170 <f_lseek+0x40a>
					nsect += (DWORD)(ofs / SS(fs));
 80080c6:	683b      	ldr	r3, [r7, #0]
 80080c8:	0a5b      	lsrs	r3, r3, #9
 80080ca:	6b7a      	ldr	r2, [r7, #52]	; 0x34
 80080cc:	4413      	add	r3, r2
 80080ce:	637b      	str	r3, [r7, #52]	; 0x34
				}
			}
		}
		if (!_FS_READONLY && fp->fptr > fp->obj.objsize) {		/* Set file change flag if the file size is extended */
 80080d0:	687b      	ldr	r3, [r7, #4]
 80080d2:	699a      	ldr	r2, [r3, #24]
 80080d4:	687b      	ldr	r3, [r7, #4]
 80080d6:	68db      	ldr	r3, [r3, #12]
 80080d8:	429a      	cmp	r2, r3
 80080da:	d90a      	bls.n	80080f2 <f_lseek+0x38c>
			fp->obj.objsize = fp->fptr;
 80080dc:	687b      	ldr	r3, [r7, #4]
 80080de:	699a      	ldr	r2, [r3, #24]
 80080e0:	687b      	ldr	r3, [r7, #4]
 80080e2:	60da      	str	r2, [r3, #12]
			fp->flag |= FA_MODIFIED;
 80080e4:	687b      	ldr	r3, [r7, #4]
 80080e6:	7d1b      	ldrb	r3, [r3, #20]
 80080e8:	f043 0340 	orr.w	r3, r3, #64	; 0x40
 80080ec:	b2da      	uxtb	r2, r3
 80080ee:	687b      	ldr	r3, [r7, #4]
 80080f0:	751a      	strb	r2, [r3, #20]
		}
		if (fp->fptr % SS(fs) && nsect != fp->sect) {	/* Fill sector cache if needed */
 80080f2:	687b      	ldr	r3, [r7, #4]
 80080f4:	699b      	ldr	r3, [r3, #24]
 80080f6:	f3c3 0308 	ubfx	r3, r3, #0, #9
 80080fa:	2b00      	cmp	r3, #0
 80080fc:	d036      	beq.n	800816c <f_lseek+0x406>
 80080fe:	687b      	ldr	r3, [r7, #4]
 8008100:	6a1b      	ldr	r3, [r3, #32]
 8008102:	6b7a      	ldr	r2, [r7, #52]	; 0x34
 8008104:	429a      	cmp	r2, r3
 8008106:	d031      	beq.n	800816c <f_lseek+0x406>
#if !_FS_TINY
#if !_FS_READONLY
			if (fp->flag & FA_DIRTY) {			/* Write-back dirty sector cache */
 8008108:	687b      	ldr	r3, [r7, #4]
 800810a:	7d1b      	ldrb	r3, [r3, #20]
 800810c:	b25b      	sxtb	r3, r3
 800810e:	2b00      	cmp	r3, #0
 8008110:	da18      	bge.n	8008144 <f_lseek+0x3de>
				if (disk_write(fs->drv, fp->buf, fp->sect, 1) != RES_OK) ABORT(fs, FR_DISK_ERR);
 8008112:	68bb      	ldr	r3, [r7, #8]
 8008114:	7858      	ldrb	r0, [r3, #1]
 8008116:	687b      	ldr	r3, [r7, #4]
 8008118:	f103 0130 	add.w	r1, r3, #48	; 0x30
 800811c:	687b      	ldr	r3, [r7, #4]
 800811e:	6a1a      	ldr	r2, [r3, #32]
 8008120:	2301      	movs	r3, #1
 8008122:	f7fd fd29 	bl	8005b78 <disk_write>
 8008126:	4603      	mov	r3, r0
 8008128:	2b00      	cmp	r3, #0
 800812a:	d004      	beq.n	8008136 <f_lseek+0x3d0>
 800812c:	687b      	ldr	r3, [r7, #4]
 800812e:	2201      	movs	r2, #1
 8008130:	755a      	strb	r2, [r3, #21]
 8008132:	2301      	movs	r3, #1
 8008134:	e01c      	b.n	8008170 <f_lseek+0x40a>
				fp->flag &= (BYTE)~FA_DIRTY;
 8008136:	687b      	ldr	r3, [r7, #4]
 8008138:	7d1b      	ldrb	r3, [r3, #20]
 800813a:	f003 037f 	and.w	r3, r3, #127	; 0x7f
 800813e:	b2da      	uxtb	r2, r3
 8008140:	687b      	ldr	r3, [r7, #4]
 8008142:	751a      	strb	r2, [r3, #20]
			}
#endif
			if (disk_read(fs->drv, fp->buf, nsect, 1) != RES_OK) ABORT(fs, FR_DISK_ERR);	/* Fill sector cache */
 8008144:	68bb      	ldr	r3, [r7, #8]
 8008146:	7858      	ldrb	r0, [r3, #1]
 8008148:	687b      	ldr	r3, [r7, #4]
 800814a:	f103 0130 	add.w	r1, r3, #48	; 0x30
 800814e:	2301      	movs	r3, #1
 8008150:	6b7a      	ldr	r2, [r7, #52]	; 0x34
 8008152:	f7fd fcf1 	bl	8005b38 <disk_read>
 8008156:	4603      	mov	r3, r0
 8008158:	2b00      	cmp	r3, #0
 800815a:	d004      	beq.n	8008166 <f_lseek+0x400>
 800815c:	687b      	ldr	r3, [r7, #4]
 800815e:	2201      	movs	r2, #1
 8008160:	755a      	strb	r2, [r3, #21]
 8008162:	2301      	movs	r3, #1
 8008164:	e004      	b.n	8008170 <f_lseek+0x40a>
#endif
			fp->sect = nsect;
 8008166:	687b      	ldr	r3, [r7, #4]
 8008168:	6b7a      	ldr	r2, [r7, #52]	; 0x34
 800816a:	621a      	str	r2, [r3, #32]
		}
	}

	LEAVE_FF(fs, res);
 800816c:	f897 303f 	ldrb.w	r3, [r7, #63]	; 0x3f
}
 8008170:	4618      	mov	r0, r3
 8008172:	3740      	adds	r7, #64	; 0x40
 8008174:	46bd      	mov	sp, r7
 8008176:	bd80      	pop	{r7, pc}

08008178 <f_getfree>:
FRESULT f_getfree (
	const TCHAR* path,	/* Path name of the logical drive number */
	DWORD* nclst,		/* Pointer to a variable to return number of free clusters */
	FATFS** fatfs		/* Pointer to return pointer to corresponding file system object */
)
{
 8008178:	b580      	push	{r7, lr}
 800817a:	b092      	sub	sp, #72	; 0x48
 800817c:	af00      	add	r7, sp, #0
 800817e:	60f8      	str	r0, [r7, #12]
 8008180:	60b9      	str	r1, [r7, #8]
 8008182:	607a      	str	r2, [r7, #4]
	BYTE *p;
	_FDID obj;


	/* Get logical drive */
	res = find_volume(&path, &fs, 0);
 8008184:	f107 0128 	add.w	r1, r7, #40	; 0x28
 8008188:	f107 030c 	add.w	r3, r7, #12
 800818c:	2200      	movs	r2, #0
 800818e:	4618      	mov	r0, r3
 8008190:	f7fe ff46 	bl	8007020 <find_volume>
 8008194:	4603      	mov	r3, r0
 8008196:	f887 3047 	strb.w	r3, [r7, #71]	; 0x47
	if (res == FR_OK) {
 800819a:	f897 3047 	ldrb.w	r3, [r7, #71]	; 0x47
 800819e:	2b00      	cmp	r3, #0
 80081a0:	f040 8099 	bne.w	80082d6 <f_getfree+0x15e>
		*fatfs = fs;				/* Return ptr to the fs object */
 80081a4:	6aba      	ldr	r2, [r7, #40]	; 0x28
 80081a6:	687b      	ldr	r3, [r7, #4]
 80081a8:	601a      	str	r2, [r3, #0]
		/* If free_clst is valid, return it without full cluster scan */
		if (fs->free_clst <= fs->n_fatent - 2) {
 80081aa:	6abb      	ldr	r3, [r7, #40]	; 0x28
 80081ac:	691a      	ldr	r2, [r3, #16]
 80081ae:	6abb      	ldr	r3, [r7, #40]	; 0x28
 80081b0:	695b      	ldr	r3, [r3, #20]
 80081b2:	3b02      	subs	r3, #2
 80081b4:	429a      	cmp	r2, r3
 80081b6:	d804      	bhi.n	80081c2 <f_getfree+0x4a>
			*nclst = fs->free_clst;
 80081b8:	6abb      	ldr	r3, [r7, #40]	; 0x28
 80081ba:	691a      	ldr	r2, [r3, #16]
 80081bc:	68bb      	ldr	r3, [r7, #8]
 80081be:	601a      	str	r2, [r3, #0]
 80081c0:	e089      	b.n	80082d6 <f_getfree+0x15e>
		} else {
			/* Get number of free clusters */
			nfree = 0;
 80081c2:	2300      	movs	r3, #0
 80081c4:	643b      	str	r3, [r7, #64]	; 0x40
			if (fs->fs_type == FS_FAT12) {	/* FAT12: Sector unalighed FAT entries */
 80081c6:	6abb      	ldr	r3, [r7, #40]	; 0x28
 80081c8:	781b      	ldrb	r3, [r3, #0]
 80081ca:	2b01      	cmp	r3, #1
 80081cc:	d128      	bne.n	8008220 <f_getfree+0xa8>
				clst = 2; obj.fs = fs;
 80081ce:	2302      	movs	r3, #2
 80081d0:	63fb      	str	r3, [r7, #60]	; 0x3c
 80081d2:	6abb      	ldr	r3, [r7, #40]	; 0x28
 80081d4:	617b      	str	r3, [r7, #20]
				do {
					stat = get_fat(&obj, clst);
 80081d6:	f107 0314 	add.w	r3, r7, #20
 80081da:	6bf9      	ldr	r1, [r7, #60]	; 0x3c
 80081dc:	4618      	mov	r0, r3
 80081de:	f7fe f874 	bl	80062ca <get_fat>
 80081e2:	62f8      	str	r0, [r7, #44]	; 0x2c
					if (stat == 0xFFFFFFFF) { res = FR_DISK_ERR; break; }
 80081e4:	6afb      	ldr	r3, [r7, #44]	; 0x2c
 80081e6:	f1b3 3fff 	cmp.w	r3, #4294967295
 80081ea:	d103      	bne.n	80081f4 <f_getfree+0x7c>
 80081ec:	2301      	movs	r3, #1
 80081ee:	f887 3047 	strb.w	r3, [r7, #71]	; 0x47
 80081f2:	e063      	b.n	80082bc <f_getfree+0x144>
					if (stat == 1) { res = FR_INT_ERR; break; }
 80081f4:	6afb      	ldr	r3, [r7, #44]	; 0x2c
 80081f6:	2b01      	cmp	r3, #1
 80081f8:	d103      	bne.n	8008202 <f_getfree+0x8a>
 80081fa:	2302      	movs	r3, #2
 80081fc:	f887 3047 	strb.w	r3, [r7, #71]	; 0x47
 8008200:	e05c      	b.n	80082bc <f_getfree+0x144>
					if (stat == 0) nfree++;
 8008202:	6afb      	ldr	r3, [r7, #44]	; 0x2c
 8008204:	2b00      	cmp	r3, #0
 8008206:	d102      	bne.n	800820e <f_getfree+0x96>
 8008208:	6c3b      	ldr	r3, [r7, #64]	; 0x40
 800820a:	3301      	adds	r3, #1
 800820c:	643b      	str	r3, [r7, #64]	; 0x40
				} while (++clst < fs->n_fatent);
 800820e:	6bfb      	ldr	r3, [r7, #60]	; 0x3c
 8008210:	3301      	adds	r3, #1
 8008212:	63fb      	str	r3, [r7, #60]	; 0x3c
 8008214:	6abb      	ldr	r3, [r7, #40]	; 0x28
 8008216:	695b      	ldr	r3, [r3, #20]
 8008218:	6bfa      	ldr	r2, [r7, #60]	; 0x3c
 800821a:	429a      	cmp	r2, r3
 800821c:	d3db      	bcc.n	80081d6 <f_getfree+0x5e>
 800821e:	e04d      	b.n	80082bc <f_getfree+0x144>
						i = (i + 1) % SS(fs);
					} while (clst);
				} else
#endif
				{	/* FAT16/32: Sector alighed FAT entries */
					clst = fs->n_fatent; sect = fs->fatbase;
 8008220:	6abb      	ldr	r3, [r7, #40]	; 0x28
 8008222:	695b      	ldr	r3, [r3, #20]
 8008224:	63fb      	str	r3, [r7, #60]	; 0x3c
 8008226:	6abb      	ldr	r3, [r7, #40]	; 0x28
 8008228:	6a1b      	ldr	r3, [r3, #32]
 800822a:	63bb      	str	r3, [r7, #56]	; 0x38
					i = 0; p = 0;
 800822c:	2300      	movs	r3, #0
 800822e:	637b      	str	r3, [r7, #52]	; 0x34
 8008230:	2300      	movs	r3, #0
 8008232:	633b      	str	r3, [r7, #48]	; 0x30
					do {
						if (i == 0) {
 8008234:	6b7b      	ldr	r3, [r7, #52]	; 0x34
 8008236:	2b00      	cmp	r3, #0
 8008238:	d113      	bne.n	8008262 <f_getfree+0xea>
							res = move_window(fs, sect++);
 800823a:	6ab8      	ldr	r0, [r7, #40]	; 0x28
 800823c:	6bbb      	ldr	r3, [r7, #56]	; 0x38
 800823e:	1c5a      	adds	r2, r3, #1
 8008240:	63ba      	str	r2, [r7, #56]	; 0x38
 8008242:	4619      	mov	r1, r3
 8008244:	f7fd ff86 	bl	8006154 <move_window>
 8008248:	4603      	mov	r3, r0
 800824a:	f887 3047 	strb.w	r3, [r7, #71]	; 0x47
							if (res != FR_OK) break;
 800824e:	f897 3047 	ldrb.w	r3, [r7, #71]	; 0x47
 8008252:	2b00      	cmp	r3, #0
 8008254:	d131      	bne.n	80082ba <f_getfree+0x142>
							p = fs->win;
 8008256:	6abb      	ldr	r3, [r7, #40]	; 0x28
 8008258:	3330      	adds	r3, #48	; 0x30
 800825a:	633b      	str	r3, [r7, #48]	; 0x30
							i = SS(fs);
 800825c:	f44f 7300 	mov.w	r3, #512	; 0x200
 8008260:	637b      	str	r3, [r7, #52]	; 0x34
						}
						if (fs->fs_type == FS_FAT16) {
 8008262:	6abb      	ldr	r3, [r7, #40]	; 0x28
 8008264:	781b      	ldrb	r3, [r3, #0]
 8008266:	2b02      	cmp	r3, #2
 8008268:	d10f      	bne.n	800828a <f_getfree+0x112>
							if (ld_word(p) == 0) nfree++;
 800826a:	6b38      	ldr	r0, [r7, #48]	; 0x30
 800826c:	f7fd fcc2 	bl	8005bf4 <ld_word>
 8008270:	4603      	mov	r3, r0
 8008272:	2b00      	cmp	r3, #0
 8008274:	d102      	bne.n	800827c <f_getfree+0x104>
 8008276:	6c3b      	ldr	r3, [r7, #64]	; 0x40
 8008278:	3301      	adds	r3, #1
 800827a:	643b      	str	r3, [r7, #64]	; 0x40
							p += 2; i -= 2;
 800827c:	6b3b      	ldr	r3, [r7, #48]	; 0x30
 800827e:	3302      	adds	r3, #2
 8008280:	633b      	str	r3, [r7, #48]	; 0x30
 8008282:	6b7b      	ldr	r3, [r7, #52]	; 0x34
 8008284:	3b02      	subs	r3, #2
 8008286:	637b      	str	r3, [r7, #52]	; 0x34
 8008288:	e010      	b.n	80082ac <f_getfree+0x134>
						} else {
							if ((ld_dword(p) & 0x0FFFFFFF) == 0) nfree++;
 800828a:	6b38      	ldr	r0, [r7, #48]	; 0x30
 800828c:	f7fd fcca 	bl	8005c24 <ld_dword>
 8008290:	4603      	mov	r3, r0
 8008292:	f023 4370 	bic.w	r3, r3, #4026531840	; 0xf0000000
 8008296:	2b00      	cmp	r3, #0
 8008298:	d102      	bne.n	80082a0 <f_getfree+0x128>
 800829a:	6c3b      	ldr	r3, [r7, #64]	; 0x40
 800829c:	3301      	adds	r3, #1
 800829e:	643b      	str	r3, [r7, #64]	; 0x40
							p += 4; i -= 4;
 80082a0:	6b3b      	ldr	r3, [r7, #48]	; 0x30
 80082a2:	3304      	adds	r3, #4
 80082a4:	633b      	str	r3, [r7, #48]	; 0x30
 80082a6:	6b7b      	ldr	r3, [r7, #52]	; 0x34
 80082a8:	3b04      	subs	r3, #4
 80082aa:	637b      	str	r3, [r7, #52]	; 0x34
						}
					} while (--clst);
 80082ac:	6bfb      	ldr	r3, [r7, #60]	; 0x3c
 80082ae:	3b01      	subs	r3, #1
 80082b0:	63fb      	str	r3, [r7, #60]	; 0x3c
 80082b2:	6bfb      	ldr	r3, [r7, #60]	; 0x3c
 80082b4:	2b00      	cmp	r3, #0
 80082b6:	d1bd      	bne.n	8008234 <f_getfree+0xbc>
 80082b8:	e000      	b.n	80082bc <f_getfree+0x144>
							if (res != FR_OK) break;
 80082ba:	bf00      	nop
				}
			}
			*nclst = nfree;			/* Return the free clusters */
 80082bc:	68bb      	ldr	r3, [r7, #8]
 80082be:	6c3a      	ldr	r2, [r7, #64]	; 0x40
 80082c0:	601a      	str	r2, [r3, #0]
			fs->free_clst = nfree;	/* Now free_clst is valid */
 80082c2:	6abb      	ldr	r3, [r7, #40]	; 0x28
 80082c4:	6c3a      	ldr	r2, [r7, #64]	; 0x40
 80082c6:	611a      	str	r2, [r3, #16]
			fs->fsi_flag |= 1;		/* FSInfo is to be updated */
 80082c8:	6abb      	ldr	r3, [r7, #40]	; 0x28
 80082ca:	791a      	ldrb	r2, [r3, #4]
 80082cc:	6abb      	ldr	r3, [r7, #40]	; 0x28
 80082ce:	f042 0201 	orr.w	r2, r2, #1
 80082d2:	b2d2      	uxtb	r2, r2
 80082d4:	711a      	strb	r2, [r3, #4]
		}
	}

	LEAVE_FF(fs, res);
 80082d6:	f897 3047 	ldrb.w	r3, [r7, #71]	; 0x47
}
 80082da:	4618      	mov	r0, r3
 80082dc:	3748      	adds	r7, #72	; 0x48
 80082de:	46bd      	mov	sp, r7
 80082e0:	bd80      	pop	{r7, pc}
	...

080082e4 <FATFS_LinkDriverEx>:
  * @param  lun : only used for USB Key Disk to add multi-lun management
            else the parameter must be equal to 0
  * @retval Returns 0 in case of success, otherwise 1.
  */
uint8_t FATFS_LinkDriverEx(const Diskio_drvTypeDef *drv, char *path, uint8_t lun)
{
 80082e4:	b480      	push	{r7}
 80082e6:	b087      	sub	sp, #28
 80082e8:	af00      	add	r7, sp, #0
 80082ea:	60f8      	str	r0, [r7, #12]
 80082ec:	60b9      	str	r1, [r7, #8]
 80082ee:	4613      	mov	r3, r2
 80082f0:	71fb      	strb	r3, [r7, #7]
  uint8_t ret = 1;
 80082f2:	2301      	movs	r3, #1
 80082f4:	75fb      	strb	r3, [r7, #23]
  uint8_t DiskNum = 0;
 80082f6:	2300      	movs	r3, #0
 80082f8:	75bb      	strb	r3, [r7, #22]

  if(disk.nbr < _VOLUMES)
 80082fa:	4b1f      	ldr	r3, [pc, #124]	; (8008378 <FATFS_LinkDriverEx+0x94>)
 80082fc:	7a5b      	ldrb	r3, [r3, #9]
 80082fe:	b2db      	uxtb	r3, r3
 8008300:	2b00      	cmp	r3, #0
 8008302:	d131      	bne.n	8008368 <FATFS_LinkDriverEx+0x84>
  {
    disk.is_initialized[disk.nbr] = 0;
 8008304:	4b1c      	ldr	r3, [pc, #112]	; (8008378 <FATFS_LinkDriverEx+0x94>)
 8008306:	7a5b      	ldrb	r3, [r3, #9]
 8008308:	b2db      	uxtb	r3, r3
 800830a:	461a      	mov	r2, r3
 800830c:	4b1a      	ldr	r3, [pc, #104]	; (8008378 <FATFS_LinkDriverEx+0x94>)
 800830e:	2100      	movs	r1, #0
 8008310:	5499      	strb	r1, [r3, r2]
    disk.drv[disk.nbr] = drv;
 8008312:	4b19      	ldr	r3, [pc, #100]	; (8008378 <FATFS_LinkDriverEx+0x94>)
 8008314:	7a5b      	ldrb	r3, [r3, #9]
 8008316:	b2db      	uxtb	r3, r3
 8008318:	4a17      	ldr	r2, [pc, #92]	; (8008378 <FATFS_LinkDriverEx+0x94>)
 800831a:	009b      	lsls	r3, r3, #2
 800831c:	4413      	add	r3, r2
 800831e:	68fa      	ldr	r2, [r7, #12]
 8008320:	605a      	str	r2, [r3, #4]
    disk.lun[disk.nbr] = lun;
 8008322:	4b15      	ldr	r3, [pc, #84]	; (8008378 <FATFS_LinkDriverEx+0x94>)
 8008324:	7a5b      	ldrb	r3, [r3, #9]
 8008326:	b2db      	uxtb	r3, r3
 8008328:	461a      	mov	r2, r3
 800832a:	4b13      	ldr	r3, [pc, #76]	; (8008378 <FATFS_LinkDriverEx+0x94>)
 800832c:	4413      	add	r3, r2
 800832e:	79fa      	ldrb	r2, [r7, #7]
 8008330:	721a      	strb	r2, [r3, #8]
    DiskNum = disk.nbr++;
 8008332:	4b11      	ldr	r3, [pc, #68]	; (8008378 <FATFS_LinkDriverEx+0x94>)
 8008334:	7a5b      	ldrb	r3, [r3, #9]
 8008336:	b2db      	uxtb	r3, r3
 8008338:	1c5a      	adds	r2, r3, #1
 800833a:	b2d1      	uxtb	r1, r2
 800833c:	4a0e      	ldr	r2, [pc, #56]	; (8008378 <FATFS_LinkDriverEx+0x94>)
 800833e:	7251      	strb	r1, [r2, #9]
 8008340:	75bb      	strb	r3, [r7, #22]
    path[0] = DiskNum + '0';
 8008342:	7dbb      	ldrb	r3, [r7, #22]
 8008344:	3330      	adds	r3, #48	; 0x30
 8008346:	b2da      	uxtb	r2, r3
 8008348:	68bb      	ldr	r3, [r7, #8]
 800834a:	701a      	strb	r2, [r3, #0]
    path[1] = ':';
 800834c:	68bb      	ldr	r3, [r7, #8]
 800834e:	3301      	adds	r3, #1
 8008350:	223a      	movs	r2, #58	; 0x3a
 8008352:	701a      	strb	r2, [r3, #0]
    path[2] = '/';
 8008354:	68bb      	ldr	r3, [r7, #8]
 8008356:	3302      	adds	r3, #2
 8008358:	222f      	movs	r2, #47	; 0x2f
 800835a:	701a      	strb	r2, [r3, #0]
    path[3] = 0;
 800835c:	68bb      	ldr	r3, [r7, #8]
 800835e:	3303      	adds	r3, #3
 8008360:	2200      	movs	r2, #0
 8008362:	701a      	strb	r2, [r3, #0]
    ret = 0;
 8008364:	2300      	movs	r3, #0
 8008366:	75fb      	strb	r3, [r7, #23]
  }

  return ret;
 8008368:	7dfb      	ldrb	r3, [r7, #23]
}
 800836a:	4618      	mov	r0, r3
 800836c:	371c      	adds	r7, #28
 800836e:	46bd      	mov	sp, r7
 8008370:	f85d 7b04 	ldr.w	r7, [sp], #4
 8008374:	4770      	bx	lr
 8008376:	bf00      	nop
 8008378:	20000740 	.word	0x20000740

0800837c <FATFS_LinkDriver>:
  * @param  drv: pointer to the disk IO Driver structure
  * @param  path: pointer to the logical drive path
  * @retval Returns 0 in case of success, otherwise 1.
  */
uint8_t FATFS_LinkDriver(const Diskio_drvTypeDef *drv, char *path)
{
 800837c:	b580      	push	{r7, lr}
 800837e:	b082      	sub	sp, #8
 8008380:	af00      	add	r7, sp, #0
 8008382:	6078      	str	r0, [r7, #4]
 8008384:	6039      	str	r1, [r7, #0]
  return FATFS_LinkDriverEx(drv, path, 0);
 8008386:	2200      	movs	r2, #0
 8008388:	6839      	ldr	r1, [r7, #0]
 800838a:	6878      	ldr	r0, [r7, #4]
 800838c:	f7ff ffaa 	bl	80082e4 <FATFS_LinkDriverEx>
 8008390:	4603      	mov	r3, r0
}
 8008392:	4618      	mov	r0, r3
 8008394:	3708      	adds	r7, #8
 8008396:	46bd      	mov	sp, r7
 8008398:	bd80      	pop	{r7, pc}
	...

0800839c <__errno>:
 800839c:	4b01      	ldr	r3, [pc, #4]	; (80083a4 <__errno+0x8>)
 800839e:	6818      	ldr	r0, [r3, #0]
 80083a0:	4770      	bx	lr
 80083a2:	bf00      	nop
 80083a4:	20000024 	.word	0x20000024

080083a8 <__libc_init_array>:
 80083a8:	b570      	push	{r4, r5, r6, lr}
 80083aa:	4e0d      	ldr	r6, [pc, #52]	; (80083e0 <__libc_init_array+0x38>)
 80083ac:	4c0d      	ldr	r4, [pc, #52]	; (80083e4 <__libc_init_array+0x3c>)
 80083ae:	1ba4      	subs	r4, r4, r6
 80083b0:	10a4      	asrs	r4, r4, #2
 80083b2:	2500      	movs	r5, #0
 80083b4:	42a5      	cmp	r5, r4
 80083b6:	d109      	bne.n	80083cc <__libc_init_array+0x24>
 80083b8:	4e0b      	ldr	r6, [pc, #44]	; (80083e8 <__libc_init_array+0x40>)
 80083ba:	4c0c      	ldr	r4, [pc, #48]	; (80083ec <__libc_init_array+0x44>)
 80083bc:	f002 f898 	bl	800a4f0 <_init>
 80083c0:	1ba4      	subs	r4, r4, r6
 80083c2:	10a4      	asrs	r4, r4, #2
 80083c4:	2500      	movs	r5, #0
 80083c6:	42a5      	cmp	r5, r4
 80083c8:	d105      	bne.n	80083d6 <__libc_init_array+0x2e>
 80083ca:	bd70      	pop	{r4, r5, r6, pc}
 80083cc:	f856 3025 	ldr.w	r3, [r6, r5, lsl #2]
 80083d0:	4798      	blx	r3
 80083d2:	3501      	adds	r5, #1
 80083d4:	e7ee      	b.n	80083b4 <__libc_init_array+0xc>
 80083d6:	f856 3025 	ldr.w	r3, [r6, r5, lsl #2]
 80083da:	4798      	blx	r3
 80083dc:	3501      	adds	r5, #1
 80083de:	e7f2      	b.n	80083c6 <__libc_init_array+0x1e>
 80083e0:	0800a9a0 	.word	0x0800a9a0
 80083e4:	0800a9a0 	.word	0x0800a9a0
 80083e8:	0800a9a0 	.word	0x0800a9a0
 80083ec:	0800a9a4 	.word	0x0800a9a4

080083f0 <memset>:
 80083f0:	4402      	add	r2, r0
 80083f2:	4603      	mov	r3, r0
 80083f4:	4293      	cmp	r3, r2
 80083f6:	d100      	bne.n	80083fa <memset+0xa>
 80083f8:	4770      	bx	lr
 80083fa:	f803 1b01 	strb.w	r1, [r3], #1
 80083fe:	e7f9      	b.n	80083f4 <memset+0x4>

08008400 <__cvt>:
 8008400:	e92d 47ff 	stmdb	sp!, {r0, r1, r2, r3, r4, r5, r6, r7, r8, r9, sl, lr}
 8008404:	ec55 4b10 	vmov	r4, r5, d0
 8008408:	9f0d      	ldr	r7, [sp, #52]	; 0x34
 800840a:	f8dd a030 	ldr.w	sl, [sp, #48]	; 0x30
 800840e:	2d00      	cmp	r5, #0
 8008410:	460e      	mov	r6, r1
 8008412:	4691      	mov	r9, r2
 8008414:	4619      	mov	r1, r3
 8008416:	bfb8      	it	lt
 8008418:	4622      	movlt	r2, r4
 800841a:	462b      	mov	r3, r5
 800841c:	f027 0720 	bic.w	r7, r7, #32
 8008420:	bfbb      	ittet	lt
 8008422:	f105 4300 	addlt.w	r3, r5, #2147483648	; 0x80000000
 8008426:	461d      	movlt	r5, r3
 8008428:	2300      	movge	r3, #0
 800842a:	232d      	movlt	r3, #45	; 0x2d
 800842c:	bfb8      	it	lt
 800842e:	4614      	movlt	r4, r2
 8008430:	2f46      	cmp	r7, #70	; 0x46
 8008432:	700b      	strb	r3, [r1, #0]
 8008434:	d004      	beq.n	8008440 <__cvt+0x40>
 8008436:	2f45      	cmp	r7, #69	; 0x45
 8008438:	d100      	bne.n	800843c <__cvt+0x3c>
 800843a:	3601      	adds	r6, #1
 800843c:	2102      	movs	r1, #2
 800843e:	e000      	b.n	8008442 <__cvt+0x42>
 8008440:	2103      	movs	r1, #3
 8008442:	ab03      	add	r3, sp, #12
 8008444:	9301      	str	r3, [sp, #4]
 8008446:	ab02      	add	r3, sp, #8
 8008448:	9300      	str	r3, [sp, #0]
 800844a:	4632      	mov	r2, r6
 800844c:	4653      	mov	r3, sl
 800844e:	ec45 4b10 	vmov	d0, r4, r5
 8008452:	f000 fd19 	bl	8008e88 <_dtoa_r>
 8008456:	2f47      	cmp	r7, #71	; 0x47
 8008458:	4680      	mov	r8, r0
 800845a:	d102      	bne.n	8008462 <__cvt+0x62>
 800845c:	f019 0f01 	tst.w	r9, #1
 8008460:	d026      	beq.n	80084b0 <__cvt+0xb0>
 8008462:	2f46      	cmp	r7, #70	; 0x46
 8008464:	eb08 0906 	add.w	r9, r8, r6
 8008468:	d111      	bne.n	800848e <__cvt+0x8e>
 800846a:	f898 3000 	ldrb.w	r3, [r8]
 800846e:	2b30      	cmp	r3, #48	; 0x30
 8008470:	d10a      	bne.n	8008488 <__cvt+0x88>
 8008472:	2200      	movs	r2, #0
 8008474:	2300      	movs	r3, #0
 8008476:	4620      	mov	r0, r4
 8008478:	4629      	mov	r1, r5
 800847a:	f7f8 fb45 	bl	8000b08 <__aeabi_dcmpeq>
 800847e:	b918      	cbnz	r0, 8008488 <__cvt+0x88>
 8008480:	f1c6 0601 	rsb	r6, r6, #1
 8008484:	f8ca 6000 	str.w	r6, [sl]
 8008488:	f8da 3000 	ldr.w	r3, [sl]
 800848c:	4499      	add	r9, r3
 800848e:	2200      	movs	r2, #0
 8008490:	2300      	movs	r3, #0
 8008492:	4620      	mov	r0, r4
 8008494:	4629      	mov	r1, r5
 8008496:	f7f8 fb37 	bl	8000b08 <__aeabi_dcmpeq>
 800849a:	b938      	cbnz	r0, 80084ac <__cvt+0xac>
 800849c:	2230      	movs	r2, #48	; 0x30
 800849e:	9b03      	ldr	r3, [sp, #12]
 80084a0:	454b      	cmp	r3, r9
 80084a2:	d205      	bcs.n	80084b0 <__cvt+0xb0>
 80084a4:	1c59      	adds	r1, r3, #1
 80084a6:	9103      	str	r1, [sp, #12]
 80084a8:	701a      	strb	r2, [r3, #0]
 80084aa:	e7f8      	b.n	800849e <__cvt+0x9e>
 80084ac:	f8cd 900c 	str.w	r9, [sp, #12]
 80084b0:	9b03      	ldr	r3, [sp, #12]
 80084b2:	9a0e      	ldr	r2, [sp, #56]	; 0x38
 80084b4:	eba3 0308 	sub.w	r3, r3, r8
 80084b8:	4640      	mov	r0, r8
 80084ba:	6013      	str	r3, [r2, #0]
 80084bc:	b004      	add	sp, #16
 80084be:	e8bd 87f0 	ldmia.w	sp!, {r4, r5, r6, r7, r8, r9, sl, pc}

080084c2 <__exponent>:
 80084c2:	b5f7      	push	{r0, r1, r2, r4, r5, r6, r7, lr}
 80084c4:	2900      	cmp	r1, #0
 80084c6:	4604      	mov	r4, r0
 80084c8:	bfba      	itte	lt
 80084ca:	4249      	neglt	r1, r1
 80084cc:	232d      	movlt	r3, #45	; 0x2d
 80084ce:	232b      	movge	r3, #43	; 0x2b
 80084d0:	2909      	cmp	r1, #9
 80084d2:	f804 2b02 	strb.w	r2, [r4], #2
 80084d6:	7043      	strb	r3, [r0, #1]
 80084d8:	dd20      	ble.n	800851c <__exponent+0x5a>
 80084da:	f10d 0307 	add.w	r3, sp, #7
 80084de:	461f      	mov	r7, r3
 80084e0:	260a      	movs	r6, #10
 80084e2:	fb91 f5f6 	sdiv	r5, r1, r6
 80084e6:	fb06 1115 	mls	r1, r6, r5, r1
 80084ea:	3130      	adds	r1, #48	; 0x30
 80084ec:	2d09      	cmp	r5, #9
 80084ee:	f803 1c01 	strb.w	r1, [r3, #-1]
 80084f2:	f103 32ff 	add.w	r2, r3, #4294967295
 80084f6:	4629      	mov	r1, r5
 80084f8:	dc09      	bgt.n	800850e <__exponent+0x4c>
 80084fa:	3130      	adds	r1, #48	; 0x30
 80084fc:	3b02      	subs	r3, #2
 80084fe:	f802 1c01 	strb.w	r1, [r2, #-1]
 8008502:	42bb      	cmp	r3, r7
 8008504:	4622      	mov	r2, r4
 8008506:	d304      	bcc.n	8008512 <__exponent+0x50>
 8008508:	1a10      	subs	r0, r2, r0
 800850a:	b003      	add	sp, #12
 800850c:	bdf0      	pop	{r4, r5, r6, r7, pc}
 800850e:	4613      	mov	r3, r2
 8008510:	e7e7      	b.n	80084e2 <__exponent+0x20>
 8008512:	f813 2b01 	ldrb.w	r2, [r3], #1
 8008516:	f804 2b01 	strb.w	r2, [r4], #1
 800851a:	e7f2      	b.n	8008502 <__exponent+0x40>
 800851c:	2330      	movs	r3, #48	; 0x30
 800851e:	4419      	add	r1, r3
 8008520:	7083      	strb	r3, [r0, #2]
 8008522:	1d02      	adds	r2, r0, #4
 8008524:	70c1      	strb	r1, [r0, #3]
 8008526:	e7ef      	b.n	8008508 <__exponent+0x46>

08008528 <_printf_float>:
 8008528:	e92d 4ff0 	stmdb	sp!, {r4, r5, r6, r7, r8, r9, sl, fp, lr}
 800852c:	b08d      	sub	sp, #52	; 0x34
 800852e:	460c      	mov	r4, r1
 8008530:	f8dd 8058 	ldr.w	r8, [sp, #88]	; 0x58
 8008534:	4616      	mov	r6, r2
 8008536:	461f      	mov	r7, r3
 8008538:	4605      	mov	r5, r0
 800853a:	f001 fa5d 	bl	80099f8 <_localeconv_r>
 800853e:	6803      	ldr	r3, [r0, #0]
 8008540:	9304      	str	r3, [sp, #16]
 8008542:	4618      	mov	r0, r3
 8008544:	f7f7 fe64 	bl	8000210 <strlen>
 8008548:	2300      	movs	r3, #0
 800854a:	930a      	str	r3, [sp, #40]	; 0x28
 800854c:	f8d8 3000 	ldr.w	r3, [r8]
 8008550:	9005      	str	r0, [sp, #20]
 8008552:	3307      	adds	r3, #7
 8008554:	f023 0307 	bic.w	r3, r3, #7
 8008558:	f103 0208 	add.w	r2, r3, #8
 800855c:	f894 a018 	ldrb.w	sl, [r4, #24]
 8008560:	f8d4 b000 	ldr.w	fp, [r4]
 8008564:	f8c8 2000 	str.w	r2, [r8]
 8008568:	e9d3 2300 	ldrd	r2, r3, [r3]
 800856c:	e9c4 2312 	strd	r2, r3, [r4, #72]	; 0x48
 8008570:	e9d4 8912 	ldrd	r8, r9, [r4, #72]	; 0x48
 8008574:	f029 4300 	bic.w	r3, r9, #2147483648	; 0x80000000
 8008578:	9307      	str	r3, [sp, #28]
 800857a:	f8cd 8018 	str.w	r8, [sp, #24]
 800857e:	f04f 32ff 	mov.w	r2, #4294967295
 8008582:	4ba7      	ldr	r3, [pc, #668]	; (8008820 <_printf_float+0x2f8>)
 8008584:	e9dd 0106 	ldrd	r0, r1, [sp, #24]
 8008588:	f7f8 faf0 	bl	8000b6c <__aeabi_dcmpun>
 800858c:	bb70      	cbnz	r0, 80085ec <_printf_float+0xc4>
 800858e:	f04f 32ff 	mov.w	r2, #4294967295
 8008592:	4ba3      	ldr	r3, [pc, #652]	; (8008820 <_printf_float+0x2f8>)
 8008594:	e9dd 0106 	ldrd	r0, r1, [sp, #24]
 8008598:	f7f8 faca 	bl	8000b30 <__aeabi_dcmple>
 800859c:	bb30      	cbnz	r0, 80085ec <_printf_float+0xc4>
 800859e:	2200      	movs	r2, #0
 80085a0:	2300      	movs	r3, #0
 80085a2:	4640      	mov	r0, r8
 80085a4:	4649      	mov	r1, r9
 80085a6:	f7f8 fab9 	bl	8000b1c <__aeabi_dcmplt>
 80085aa:	b110      	cbz	r0, 80085b2 <_printf_float+0x8a>
 80085ac:	232d      	movs	r3, #45	; 0x2d
 80085ae:	f884 3043 	strb.w	r3, [r4, #67]	; 0x43
 80085b2:	4a9c      	ldr	r2, [pc, #624]	; (8008824 <_printf_float+0x2fc>)
 80085b4:	4b9c      	ldr	r3, [pc, #624]	; (8008828 <_printf_float+0x300>)
 80085b6:	f1ba 0f47 	cmp.w	sl, #71	; 0x47
 80085ba:	bf8c      	ite	hi
 80085bc:	4690      	movhi	r8, r2
 80085be:	4698      	movls	r8, r3
 80085c0:	2303      	movs	r3, #3
 80085c2:	f02b 0204 	bic.w	r2, fp, #4
 80085c6:	6123      	str	r3, [r4, #16]
 80085c8:	6022      	str	r2, [r4, #0]
 80085ca:	f04f 0900 	mov.w	r9, #0
 80085ce:	9700      	str	r7, [sp, #0]
 80085d0:	4633      	mov	r3, r6
 80085d2:	aa0b      	add	r2, sp, #44	; 0x2c
 80085d4:	4621      	mov	r1, r4
 80085d6:	4628      	mov	r0, r5
 80085d8:	f000 f9e6 	bl	80089a8 <_printf_common>
 80085dc:	3001      	adds	r0, #1
 80085de:	f040 808d 	bne.w	80086fc <_printf_float+0x1d4>
 80085e2:	f04f 30ff 	mov.w	r0, #4294967295
 80085e6:	b00d      	add	sp, #52	; 0x34
 80085e8:	e8bd 8ff0 	ldmia.w	sp!, {r4, r5, r6, r7, r8, r9, sl, fp, pc}
 80085ec:	4642      	mov	r2, r8
 80085ee:	464b      	mov	r3, r9
 80085f0:	4640      	mov	r0, r8
 80085f2:	4649      	mov	r1, r9
 80085f4:	f7f8 faba 	bl	8000b6c <__aeabi_dcmpun>
 80085f8:	b110      	cbz	r0, 8008600 <_printf_float+0xd8>
 80085fa:	4a8c      	ldr	r2, [pc, #560]	; (800882c <_printf_float+0x304>)
 80085fc:	4b8c      	ldr	r3, [pc, #560]	; (8008830 <_printf_float+0x308>)
 80085fe:	e7da      	b.n	80085b6 <_printf_float+0x8e>
 8008600:	6861      	ldr	r1, [r4, #4]
 8008602:	1c4b      	adds	r3, r1, #1
 8008604:	f44b 6280 	orr.w	r2, fp, #1024	; 0x400
 8008608:	a80a      	add	r0, sp, #40	; 0x28
 800860a:	d13e      	bne.n	800868a <_printf_float+0x162>
 800860c:	2306      	movs	r3, #6
 800860e:	6063      	str	r3, [r4, #4]
 8008610:	2300      	movs	r3, #0
 8008612:	e9cd 0302 	strd	r0, r3, [sp, #8]
 8008616:	ab09      	add	r3, sp, #36	; 0x24
 8008618:	9300      	str	r3, [sp, #0]
 800861a:	ec49 8b10 	vmov	d0, r8, r9
 800861e:	f10d 0323 	add.w	r3, sp, #35	; 0x23
 8008622:	6022      	str	r2, [r4, #0]
 8008624:	f8cd a004 	str.w	sl, [sp, #4]
 8008628:	6861      	ldr	r1, [r4, #4]
 800862a:	4628      	mov	r0, r5
 800862c:	f7ff fee8 	bl	8008400 <__cvt>
 8008630:	f00a 03df 	and.w	r3, sl, #223	; 0xdf
 8008634:	2b47      	cmp	r3, #71	; 0x47
 8008636:	4680      	mov	r8, r0
 8008638:	d109      	bne.n	800864e <_printf_float+0x126>
 800863a:	9b09      	ldr	r3, [sp, #36]	; 0x24
 800863c:	1cd8      	adds	r0, r3, #3
 800863e:	db02      	blt.n	8008646 <_printf_float+0x11e>
 8008640:	6862      	ldr	r2, [r4, #4]
 8008642:	4293      	cmp	r3, r2
 8008644:	dd47      	ble.n	80086d6 <_printf_float+0x1ae>
 8008646:	f1aa 0a02 	sub.w	sl, sl, #2
 800864a:	fa5f fa8a 	uxtb.w	sl, sl
 800864e:	f1ba 0f65 	cmp.w	sl, #101	; 0x65
 8008652:	9909      	ldr	r1, [sp, #36]	; 0x24
 8008654:	d824      	bhi.n	80086a0 <_printf_float+0x178>
 8008656:	3901      	subs	r1, #1
 8008658:	4652      	mov	r2, sl
 800865a:	f104 0050 	add.w	r0, r4, #80	; 0x50
 800865e:	9109      	str	r1, [sp, #36]	; 0x24
 8008660:	f7ff ff2f 	bl	80084c2 <__exponent>
 8008664:	9a0a      	ldr	r2, [sp, #40]	; 0x28
 8008666:	1813      	adds	r3, r2, r0
 8008668:	2a01      	cmp	r2, #1
 800866a:	4681      	mov	r9, r0
 800866c:	6123      	str	r3, [r4, #16]
 800866e:	dc02      	bgt.n	8008676 <_printf_float+0x14e>
 8008670:	6822      	ldr	r2, [r4, #0]
 8008672:	07d1      	lsls	r1, r2, #31
 8008674:	d501      	bpl.n	800867a <_printf_float+0x152>
 8008676:	3301      	adds	r3, #1
 8008678:	6123      	str	r3, [r4, #16]
 800867a:	f89d 3023 	ldrb.w	r3, [sp, #35]	; 0x23
 800867e:	2b00      	cmp	r3, #0
 8008680:	d0a5      	beq.n	80085ce <_printf_float+0xa6>
 8008682:	232d      	movs	r3, #45	; 0x2d
 8008684:	f884 3043 	strb.w	r3, [r4, #67]	; 0x43
 8008688:	e7a1      	b.n	80085ce <_printf_float+0xa6>
 800868a:	f1ba 0f67 	cmp.w	sl, #103	; 0x67
 800868e:	f000 8177 	beq.w	8008980 <_printf_float+0x458>
 8008692:	f1ba 0f47 	cmp.w	sl, #71	; 0x47
 8008696:	d1bb      	bne.n	8008610 <_printf_float+0xe8>
 8008698:	2900      	cmp	r1, #0
 800869a:	d1b9      	bne.n	8008610 <_printf_float+0xe8>
 800869c:	2301      	movs	r3, #1
 800869e:	e7b6      	b.n	800860e <_printf_float+0xe6>
 80086a0:	f1ba 0f66 	cmp.w	sl, #102	; 0x66
 80086a4:	d119      	bne.n	80086da <_printf_float+0x1b2>
 80086a6:	2900      	cmp	r1, #0
 80086a8:	6863      	ldr	r3, [r4, #4]
 80086aa:	dd0c      	ble.n	80086c6 <_printf_float+0x19e>
 80086ac:	6121      	str	r1, [r4, #16]
 80086ae:	b913      	cbnz	r3, 80086b6 <_printf_float+0x18e>
 80086b0:	6822      	ldr	r2, [r4, #0]
 80086b2:	07d2      	lsls	r2, r2, #31
 80086b4:	d502      	bpl.n	80086bc <_printf_float+0x194>
 80086b6:	3301      	adds	r3, #1
 80086b8:	440b      	add	r3, r1
 80086ba:	6123      	str	r3, [r4, #16]
 80086bc:	9b09      	ldr	r3, [sp, #36]	; 0x24
 80086be:	65a3      	str	r3, [r4, #88]	; 0x58
 80086c0:	f04f 0900 	mov.w	r9, #0
 80086c4:	e7d9      	b.n	800867a <_printf_float+0x152>
 80086c6:	b913      	cbnz	r3, 80086ce <_printf_float+0x1a6>
 80086c8:	6822      	ldr	r2, [r4, #0]
 80086ca:	07d0      	lsls	r0, r2, #31
 80086cc:	d501      	bpl.n	80086d2 <_printf_float+0x1aa>
 80086ce:	3302      	adds	r3, #2
 80086d0:	e7f3      	b.n	80086ba <_printf_float+0x192>
 80086d2:	2301      	movs	r3, #1
 80086d4:	e7f1      	b.n	80086ba <_printf_float+0x192>
 80086d6:	f04f 0a67 	mov.w	sl, #103	; 0x67
 80086da:	e9dd 3209 	ldrd	r3, r2, [sp, #36]	; 0x24
 80086de:	4293      	cmp	r3, r2
 80086e0:	db05      	blt.n	80086ee <_printf_float+0x1c6>
 80086e2:	6822      	ldr	r2, [r4, #0]
 80086e4:	6123      	str	r3, [r4, #16]
 80086e6:	07d1      	lsls	r1, r2, #31
 80086e8:	d5e8      	bpl.n	80086bc <_printf_float+0x194>
 80086ea:	3301      	adds	r3, #1
 80086ec:	e7e5      	b.n	80086ba <_printf_float+0x192>
 80086ee:	2b00      	cmp	r3, #0
 80086f0:	bfd4      	ite	le
 80086f2:	f1c3 0302 	rsble	r3, r3, #2
 80086f6:	2301      	movgt	r3, #1
 80086f8:	4413      	add	r3, r2
 80086fa:	e7de      	b.n	80086ba <_printf_float+0x192>
 80086fc:	6823      	ldr	r3, [r4, #0]
 80086fe:	055a      	lsls	r2, r3, #21
 8008700:	d407      	bmi.n	8008712 <_printf_float+0x1ea>
 8008702:	6923      	ldr	r3, [r4, #16]
 8008704:	4642      	mov	r2, r8
 8008706:	4631      	mov	r1, r6
 8008708:	4628      	mov	r0, r5
 800870a:	47b8      	blx	r7
 800870c:	3001      	adds	r0, #1
 800870e:	d12b      	bne.n	8008768 <_printf_float+0x240>
 8008710:	e767      	b.n	80085e2 <_printf_float+0xba>
 8008712:	f1ba 0f65 	cmp.w	sl, #101	; 0x65
 8008716:	f240 80dc 	bls.w	80088d2 <_printf_float+0x3aa>
 800871a:	2200      	movs	r2, #0
 800871c:	2300      	movs	r3, #0
 800871e:	e9d4 0112 	ldrd	r0, r1, [r4, #72]	; 0x48
 8008722:	f7f8 f9f1 	bl	8000b08 <__aeabi_dcmpeq>
 8008726:	2800      	cmp	r0, #0
 8008728:	d033      	beq.n	8008792 <_printf_float+0x26a>
 800872a:	2301      	movs	r3, #1
 800872c:	4a41      	ldr	r2, [pc, #260]	; (8008834 <_printf_float+0x30c>)
 800872e:	4631      	mov	r1, r6
 8008730:	4628      	mov	r0, r5
 8008732:	47b8      	blx	r7
 8008734:	3001      	adds	r0, #1
 8008736:	f43f af54 	beq.w	80085e2 <_printf_float+0xba>
 800873a:	e9dd 2309 	ldrd	r2, r3, [sp, #36]	; 0x24
 800873e:	429a      	cmp	r2, r3
 8008740:	db02      	blt.n	8008748 <_printf_float+0x220>
 8008742:	6823      	ldr	r3, [r4, #0]
 8008744:	07d8      	lsls	r0, r3, #31
 8008746:	d50f      	bpl.n	8008768 <_printf_float+0x240>
 8008748:	e9dd 2304 	ldrd	r2, r3, [sp, #16]
 800874c:	4631      	mov	r1, r6
 800874e:	4628      	mov	r0, r5
 8008750:	47b8      	blx	r7
 8008752:	3001      	adds	r0, #1
 8008754:	f43f af45 	beq.w	80085e2 <_printf_float+0xba>
 8008758:	f04f 0800 	mov.w	r8, #0
 800875c:	f104 091a 	add.w	r9, r4, #26
 8008760:	9b0a      	ldr	r3, [sp, #40]	; 0x28
 8008762:	3b01      	subs	r3, #1
 8008764:	4543      	cmp	r3, r8
 8008766:	dc09      	bgt.n	800877c <_printf_float+0x254>
 8008768:	6823      	ldr	r3, [r4, #0]
 800876a:	079b      	lsls	r3, r3, #30
 800876c:	f100 8103 	bmi.w	8008976 <_printf_float+0x44e>
 8008770:	68e0      	ldr	r0, [r4, #12]
 8008772:	9b0b      	ldr	r3, [sp, #44]	; 0x2c
 8008774:	4298      	cmp	r0, r3
 8008776:	bfb8      	it	lt
 8008778:	4618      	movlt	r0, r3
 800877a:	e734      	b.n	80085e6 <_printf_float+0xbe>
 800877c:	2301      	movs	r3, #1
 800877e:	464a      	mov	r2, r9
 8008780:	4631      	mov	r1, r6
 8008782:	4628      	mov	r0, r5
 8008784:	47b8      	blx	r7
 8008786:	3001      	adds	r0, #1
 8008788:	f43f af2b 	beq.w	80085e2 <_printf_float+0xba>
 800878c:	f108 0801 	add.w	r8, r8, #1
 8008790:	e7e6      	b.n	8008760 <_printf_float+0x238>
 8008792:	9b09      	ldr	r3, [sp, #36]	; 0x24
 8008794:	2b00      	cmp	r3, #0
 8008796:	dc2b      	bgt.n	80087f0 <_printf_float+0x2c8>
 8008798:	2301      	movs	r3, #1
 800879a:	4a26      	ldr	r2, [pc, #152]	; (8008834 <_printf_float+0x30c>)
 800879c:	4631      	mov	r1, r6
 800879e:	4628      	mov	r0, r5
 80087a0:	47b8      	blx	r7
 80087a2:	3001      	adds	r0, #1
 80087a4:	f43f af1d 	beq.w	80085e2 <_printf_float+0xba>
 80087a8:	9b09      	ldr	r3, [sp, #36]	; 0x24
 80087aa:	b923      	cbnz	r3, 80087b6 <_printf_float+0x28e>
 80087ac:	9b0a      	ldr	r3, [sp, #40]	; 0x28
 80087ae:	b913      	cbnz	r3, 80087b6 <_printf_float+0x28e>
 80087b0:	6823      	ldr	r3, [r4, #0]
 80087b2:	07d9      	lsls	r1, r3, #31
 80087b4:	d5d8      	bpl.n	8008768 <_printf_float+0x240>
 80087b6:	e9dd 2304 	ldrd	r2, r3, [sp, #16]
 80087ba:	4631      	mov	r1, r6
 80087bc:	4628      	mov	r0, r5
 80087be:	47b8      	blx	r7
 80087c0:	3001      	adds	r0, #1
 80087c2:	f43f af0e 	beq.w	80085e2 <_printf_float+0xba>
 80087c6:	f04f 0900 	mov.w	r9, #0
 80087ca:	f104 0a1a 	add.w	sl, r4, #26
 80087ce:	9b09      	ldr	r3, [sp, #36]	; 0x24
 80087d0:	425b      	negs	r3, r3
 80087d2:	454b      	cmp	r3, r9
 80087d4:	dc01      	bgt.n	80087da <_printf_float+0x2b2>
 80087d6:	9b0a      	ldr	r3, [sp, #40]	; 0x28
 80087d8:	e794      	b.n	8008704 <_printf_float+0x1dc>
 80087da:	2301      	movs	r3, #1
 80087dc:	4652      	mov	r2, sl
 80087de:	4631      	mov	r1, r6
 80087e0:	4628      	mov	r0, r5
 80087e2:	47b8      	blx	r7
 80087e4:	3001      	adds	r0, #1
 80087e6:	f43f aefc 	beq.w	80085e2 <_printf_float+0xba>
 80087ea:	f109 0901 	add.w	r9, r9, #1
 80087ee:	e7ee      	b.n	80087ce <_printf_float+0x2a6>
 80087f0:	9a0a      	ldr	r2, [sp, #40]	; 0x28
 80087f2:	6da3      	ldr	r3, [r4, #88]	; 0x58
 80087f4:	429a      	cmp	r2, r3
 80087f6:	bfa8      	it	ge
 80087f8:	461a      	movge	r2, r3
 80087fa:	2a00      	cmp	r2, #0
 80087fc:	4691      	mov	r9, r2
 80087fe:	dd07      	ble.n	8008810 <_printf_float+0x2e8>
 8008800:	4613      	mov	r3, r2
 8008802:	4631      	mov	r1, r6
 8008804:	4642      	mov	r2, r8
 8008806:	4628      	mov	r0, r5
 8008808:	47b8      	blx	r7
 800880a:	3001      	adds	r0, #1
 800880c:	f43f aee9 	beq.w	80085e2 <_printf_float+0xba>
 8008810:	f104 031a 	add.w	r3, r4, #26
 8008814:	f04f 0b00 	mov.w	fp, #0
 8008818:	ea29 79e9 	bic.w	r9, r9, r9, asr #31
 800881c:	9306      	str	r3, [sp, #24]
 800881e:	e015      	b.n	800884c <_printf_float+0x324>
 8008820:	7fefffff 	.word	0x7fefffff
 8008824:	0800a73c 	.word	0x0800a73c
 8008828:	0800a738 	.word	0x0800a738
 800882c:	0800a744 	.word	0x0800a744
 8008830:	0800a740 	.word	0x0800a740
 8008834:	0800a748 	.word	0x0800a748
 8008838:	2301      	movs	r3, #1
 800883a:	9a06      	ldr	r2, [sp, #24]
 800883c:	4631      	mov	r1, r6
 800883e:	4628      	mov	r0, r5
 8008840:	47b8      	blx	r7
 8008842:	3001      	adds	r0, #1
 8008844:	f43f aecd 	beq.w	80085e2 <_printf_float+0xba>
 8008848:	f10b 0b01 	add.w	fp, fp, #1
 800884c:	f8d4 a058 	ldr.w	sl, [r4, #88]	; 0x58
 8008850:	ebaa 0309 	sub.w	r3, sl, r9
 8008854:	455b      	cmp	r3, fp
 8008856:	dcef      	bgt.n	8008838 <_printf_float+0x310>
 8008858:	e9dd 2309 	ldrd	r2, r3, [sp, #36]	; 0x24
 800885c:	429a      	cmp	r2, r3
 800885e:	44d0      	add	r8, sl
 8008860:	db15      	blt.n	800888e <_printf_float+0x366>
 8008862:	6823      	ldr	r3, [r4, #0]
 8008864:	07da      	lsls	r2, r3, #31
 8008866:	d412      	bmi.n	800888e <_printf_float+0x366>
 8008868:	9b0a      	ldr	r3, [sp, #40]	; 0x28
 800886a:	9909      	ldr	r1, [sp, #36]	; 0x24
 800886c:	eba3 020a 	sub.w	r2, r3, sl
 8008870:	eba3 0a01 	sub.w	sl, r3, r1
 8008874:	4592      	cmp	sl, r2
 8008876:	bfa8      	it	ge
 8008878:	4692      	movge	sl, r2
 800887a:	f1ba 0f00 	cmp.w	sl, #0
 800887e:	dc0e      	bgt.n	800889e <_printf_float+0x376>
 8008880:	f04f 0800 	mov.w	r8, #0
 8008884:	ea2a 7aea 	bic.w	sl, sl, sl, asr #31
 8008888:	f104 091a 	add.w	r9, r4, #26
 800888c:	e019      	b.n	80088c2 <_printf_float+0x39a>
 800888e:	e9dd 2304 	ldrd	r2, r3, [sp, #16]
 8008892:	4631      	mov	r1, r6
 8008894:	4628      	mov	r0, r5
 8008896:	47b8      	blx	r7
 8008898:	3001      	adds	r0, #1
 800889a:	d1e5      	bne.n	8008868 <_printf_float+0x340>
 800889c:	e6a1      	b.n	80085e2 <_printf_float+0xba>
 800889e:	4653      	mov	r3, sl
 80088a0:	4642      	mov	r2, r8
 80088a2:	4631      	mov	r1, r6
 80088a4:	4628      	mov	r0, r5
 80088a6:	47b8      	blx	r7
 80088a8:	3001      	adds	r0, #1
 80088aa:	d1e9      	bne.n	8008880 <_printf_float+0x358>
 80088ac:	e699      	b.n	80085e2 <_printf_float+0xba>
 80088ae:	2301      	movs	r3, #1
 80088b0:	464a      	mov	r2, r9
 80088b2:	4631      	mov	r1, r6
 80088b4:	4628      	mov	r0, r5
 80088b6:	47b8      	blx	r7
 80088b8:	3001      	adds	r0, #1
 80088ba:	f43f ae92 	beq.w	80085e2 <_printf_float+0xba>
 80088be:	f108 0801 	add.w	r8, r8, #1
 80088c2:	e9dd 2309 	ldrd	r2, r3, [sp, #36]	; 0x24
 80088c6:	1a9b      	subs	r3, r3, r2
 80088c8:	eba3 030a 	sub.w	r3, r3, sl
 80088cc:	4543      	cmp	r3, r8
 80088ce:	dcee      	bgt.n	80088ae <_printf_float+0x386>
 80088d0:	e74a      	b.n	8008768 <_printf_float+0x240>
 80088d2:	9a0a      	ldr	r2, [sp, #40]	; 0x28
 80088d4:	2a01      	cmp	r2, #1
 80088d6:	dc01      	bgt.n	80088dc <_printf_float+0x3b4>
 80088d8:	07db      	lsls	r3, r3, #31
 80088da:	d53a      	bpl.n	8008952 <_printf_float+0x42a>
 80088dc:	2301      	movs	r3, #1
 80088de:	4642      	mov	r2, r8
 80088e0:	4631      	mov	r1, r6
 80088e2:	4628      	mov	r0, r5
 80088e4:	47b8      	blx	r7
 80088e6:	3001      	adds	r0, #1
 80088e8:	f43f ae7b 	beq.w	80085e2 <_printf_float+0xba>
 80088ec:	e9dd 2304 	ldrd	r2, r3, [sp, #16]
 80088f0:	4631      	mov	r1, r6
 80088f2:	4628      	mov	r0, r5
 80088f4:	47b8      	blx	r7
 80088f6:	3001      	adds	r0, #1
 80088f8:	f108 0801 	add.w	r8, r8, #1
 80088fc:	f43f ae71 	beq.w	80085e2 <_printf_float+0xba>
 8008900:	9b0a      	ldr	r3, [sp, #40]	; 0x28
 8008902:	2200      	movs	r2, #0
 8008904:	f103 3aff 	add.w	sl, r3, #4294967295
 8008908:	e9d4 0112 	ldrd	r0, r1, [r4, #72]	; 0x48
 800890c:	2300      	movs	r3, #0
 800890e:	f7f8 f8fb 	bl	8000b08 <__aeabi_dcmpeq>
 8008912:	b9c8      	cbnz	r0, 8008948 <_printf_float+0x420>
 8008914:	4653      	mov	r3, sl
 8008916:	4642      	mov	r2, r8
 8008918:	4631      	mov	r1, r6
 800891a:	4628      	mov	r0, r5
 800891c:	47b8      	blx	r7
 800891e:	3001      	adds	r0, #1
 8008920:	d10e      	bne.n	8008940 <_printf_float+0x418>
 8008922:	e65e      	b.n	80085e2 <_printf_float+0xba>
 8008924:	2301      	movs	r3, #1
 8008926:	4652      	mov	r2, sl
 8008928:	4631      	mov	r1, r6
 800892a:	4628      	mov	r0, r5
 800892c:	47b8      	blx	r7
 800892e:	3001      	adds	r0, #1
 8008930:	f43f ae57 	beq.w	80085e2 <_printf_float+0xba>
 8008934:	f108 0801 	add.w	r8, r8, #1
 8008938:	9b0a      	ldr	r3, [sp, #40]	; 0x28
 800893a:	3b01      	subs	r3, #1
 800893c:	4543      	cmp	r3, r8
 800893e:	dcf1      	bgt.n	8008924 <_printf_float+0x3fc>
 8008940:	464b      	mov	r3, r9
 8008942:	f104 0250 	add.w	r2, r4, #80	; 0x50
 8008946:	e6de      	b.n	8008706 <_printf_float+0x1de>
 8008948:	f04f 0800 	mov.w	r8, #0
 800894c:	f104 0a1a 	add.w	sl, r4, #26
 8008950:	e7f2      	b.n	8008938 <_printf_float+0x410>
 8008952:	2301      	movs	r3, #1
 8008954:	e7df      	b.n	8008916 <_printf_float+0x3ee>
 8008956:	2301      	movs	r3, #1
 8008958:	464a      	mov	r2, r9
 800895a:	4631      	mov	r1, r6
 800895c:	4628      	mov	r0, r5
 800895e:	47b8      	blx	r7
 8008960:	3001      	adds	r0, #1
 8008962:	f43f ae3e 	beq.w	80085e2 <_printf_float+0xba>
 8008966:	f108 0801 	add.w	r8, r8, #1
 800896a:	68e3      	ldr	r3, [r4, #12]
 800896c:	9a0b      	ldr	r2, [sp, #44]	; 0x2c
 800896e:	1a9b      	subs	r3, r3, r2
 8008970:	4543      	cmp	r3, r8
 8008972:	dcf0      	bgt.n	8008956 <_printf_float+0x42e>
 8008974:	e6fc      	b.n	8008770 <_printf_float+0x248>
 8008976:	f04f 0800 	mov.w	r8, #0
 800897a:	f104 0919 	add.w	r9, r4, #25
 800897e:	e7f4      	b.n	800896a <_printf_float+0x442>
 8008980:	2900      	cmp	r1, #0
 8008982:	f43f ae8b 	beq.w	800869c <_printf_float+0x174>
 8008986:	2300      	movs	r3, #0
 8008988:	e9cd 0302 	strd	r0, r3, [sp, #8]
 800898c:	ab09      	add	r3, sp, #36	; 0x24
 800898e:	9300      	str	r3, [sp, #0]
 8008990:	ec49 8b10 	vmov	d0, r8, r9
 8008994:	6022      	str	r2, [r4, #0]
 8008996:	f8cd a004 	str.w	sl, [sp, #4]
 800899a:	f10d 0323 	add.w	r3, sp, #35	; 0x23
 800899e:	4628      	mov	r0, r5
 80089a0:	f7ff fd2e 	bl	8008400 <__cvt>
 80089a4:	4680      	mov	r8, r0
 80089a6:	e648      	b.n	800863a <_printf_float+0x112>

080089a8 <_printf_common>:
 80089a8:	e92d 47f0 	stmdb	sp!, {r4, r5, r6, r7, r8, r9, sl, lr}
 80089ac:	4691      	mov	r9, r2
 80089ae:	461f      	mov	r7, r3
 80089b0:	688a      	ldr	r2, [r1, #8]
 80089b2:	690b      	ldr	r3, [r1, #16]
 80089b4:	f8dd 8020 	ldr.w	r8, [sp, #32]
 80089b8:	4293      	cmp	r3, r2
 80089ba:	bfb8      	it	lt
 80089bc:	4613      	movlt	r3, r2
 80089be:	f8c9 3000 	str.w	r3, [r9]
 80089c2:	f891 2043 	ldrb.w	r2, [r1, #67]	; 0x43
 80089c6:	4606      	mov	r6, r0
 80089c8:	460c      	mov	r4, r1
 80089ca:	b112      	cbz	r2, 80089d2 <_printf_common+0x2a>
 80089cc:	3301      	adds	r3, #1
 80089ce:	f8c9 3000 	str.w	r3, [r9]
 80089d2:	6823      	ldr	r3, [r4, #0]
 80089d4:	0699      	lsls	r1, r3, #26
 80089d6:	bf42      	ittt	mi
 80089d8:	f8d9 3000 	ldrmi.w	r3, [r9]
 80089dc:	3302      	addmi	r3, #2
 80089de:	f8c9 3000 	strmi.w	r3, [r9]
 80089e2:	6825      	ldr	r5, [r4, #0]
 80089e4:	f015 0506 	ands.w	r5, r5, #6
 80089e8:	d107      	bne.n	80089fa <_printf_common+0x52>
 80089ea:	f104 0a19 	add.w	sl, r4, #25
 80089ee:	68e3      	ldr	r3, [r4, #12]
 80089f0:	f8d9 2000 	ldr.w	r2, [r9]
 80089f4:	1a9b      	subs	r3, r3, r2
 80089f6:	42ab      	cmp	r3, r5
 80089f8:	dc28      	bgt.n	8008a4c <_printf_common+0xa4>
 80089fa:	f894 3043 	ldrb.w	r3, [r4, #67]	; 0x43
 80089fe:	6822      	ldr	r2, [r4, #0]
 8008a00:	3300      	adds	r3, #0
 8008a02:	bf18      	it	ne
 8008a04:	2301      	movne	r3, #1
 8008a06:	0692      	lsls	r2, r2, #26
 8008a08:	d42d      	bmi.n	8008a66 <_printf_common+0xbe>
 8008a0a:	f104 0243 	add.w	r2, r4, #67	; 0x43
 8008a0e:	4639      	mov	r1, r7
 8008a10:	4630      	mov	r0, r6
 8008a12:	47c0      	blx	r8
 8008a14:	3001      	adds	r0, #1
 8008a16:	d020      	beq.n	8008a5a <_printf_common+0xb2>
 8008a18:	6823      	ldr	r3, [r4, #0]
 8008a1a:	68e5      	ldr	r5, [r4, #12]
 8008a1c:	f8d9 2000 	ldr.w	r2, [r9]
 8008a20:	f003 0306 	and.w	r3, r3, #6
 8008a24:	2b04      	cmp	r3, #4
 8008a26:	bf08      	it	eq
 8008a28:	1aad      	subeq	r5, r5, r2
 8008a2a:	68a3      	ldr	r3, [r4, #8]
 8008a2c:	6922      	ldr	r2, [r4, #16]
 8008a2e:	bf0c      	ite	eq
 8008a30:	ea25 75e5 	biceq.w	r5, r5, r5, asr #31
 8008a34:	2500      	movne	r5, #0
 8008a36:	4293      	cmp	r3, r2
 8008a38:	bfc4      	itt	gt
 8008a3a:	1a9b      	subgt	r3, r3, r2
 8008a3c:	18ed      	addgt	r5, r5, r3
 8008a3e:	f04f 0900 	mov.w	r9, #0
 8008a42:	341a      	adds	r4, #26
 8008a44:	454d      	cmp	r5, r9
 8008a46:	d11a      	bne.n	8008a7e <_printf_common+0xd6>
 8008a48:	2000      	movs	r0, #0
 8008a4a:	e008      	b.n	8008a5e <_printf_common+0xb6>
 8008a4c:	2301      	movs	r3, #1
 8008a4e:	4652      	mov	r2, sl
 8008a50:	4639      	mov	r1, r7
 8008a52:	4630      	mov	r0, r6
 8008a54:	47c0      	blx	r8
 8008a56:	3001      	adds	r0, #1
 8008a58:	d103      	bne.n	8008a62 <_printf_common+0xba>
 8008a5a:	f04f 30ff 	mov.w	r0, #4294967295
 8008a5e:	e8bd 87f0 	ldmia.w	sp!, {r4, r5, r6, r7, r8, r9, sl, pc}
 8008a62:	3501      	adds	r5, #1
 8008a64:	e7c3      	b.n	80089ee <_printf_common+0x46>
 8008a66:	18e1      	adds	r1, r4, r3
 8008a68:	1c5a      	adds	r2, r3, #1
 8008a6a:	2030      	movs	r0, #48	; 0x30
 8008a6c:	f881 0043 	strb.w	r0, [r1, #67]	; 0x43
 8008a70:	4422      	add	r2, r4
 8008a72:	f894 1045 	ldrb.w	r1, [r4, #69]	; 0x45
 8008a76:	f882 1043 	strb.w	r1, [r2, #67]	; 0x43
 8008a7a:	3302      	adds	r3, #2
 8008a7c:	e7c5      	b.n	8008a0a <_printf_common+0x62>
 8008a7e:	2301      	movs	r3, #1
 8008a80:	4622      	mov	r2, r4
 8008a82:	4639      	mov	r1, r7
 8008a84:	4630      	mov	r0, r6
 8008a86:	47c0      	blx	r8
 8008a88:	3001      	adds	r0, #1
 8008a8a:	d0e6      	beq.n	8008a5a <_printf_common+0xb2>
 8008a8c:	f109 0901 	add.w	r9, r9, #1
 8008a90:	e7d8      	b.n	8008a44 <_printf_common+0x9c>
	...

08008a94 <_printf_i>:
 8008a94:	e92d 43f0 	stmdb	sp!, {r4, r5, r6, r7, r8, r9, lr}
 8008a98:	f101 0c43 	add.w	ip, r1, #67	; 0x43
 8008a9c:	460c      	mov	r4, r1
 8008a9e:	7e09      	ldrb	r1, [r1, #24]
 8008aa0:	b085      	sub	sp, #20
 8008aa2:	296e      	cmp	r1, #110	; 0x6e
 8008aa4:	4617      	mov	r7, r2
 8008aa6:	4606      	mov	r6, r0
 8008aa8:	4698      	mov	r8, r3
 8008aaa:	9a0c      	ldr	r2, [sp, #48]	; 0x30
 8008aac:	f000 80b3 	beq.w	8008c16 <_printf_i+0x182>
 8008ab0:	d822      	bhi.n	8008af8 <_printf_i+0x64>
 8008ab2:	2963      	cmp	r1, #99	; 0x63
 8008ab4:	d036      	beq.n	8008b24 <_printf_i+0x90>
 8008ab6:	d80a      	bhi.n	8008ace <_printf_i+0x3a>
 8008ab8:	2900      	cmp	r1, #0
 8008aba:	f000 80b9 	beq.w	8008c30 <_printf_i+0x19c>
 8008abe:	2958      	cmp	r1, #88	; 0x58
 8008ac0:	f000 8083 	beq.w	8008bca <_printf_i+0x136>
 8008ac4:	f104 0542 	add.w	r5, r4, #66	; 0x42
 8008ac8:	f884 1042 	strb.w	r1, [r4, #66]	; 0x42
 8008acc:	e032      	b.n	8008b34 <_printf_i+0xa0>
 8008ace:	2964      	cmp	r1, #100	; 0x64
 8008ad0:	d001      	beq.n	8008ad6 <_printf_i+0x42>
 8008ad2:	2969      	cmp	r1, #105	; 0x69
 8008ad4:	d1f6      	bne.n	8008ac4 <_printf_i+0x30>
 8008ad6:	6820      	ldr	r0, [r4, #0]
 8008ad8:	6813      	ldr	r3, [r2, #0]
 8008ada:	0605      	lsls	r5, r0, #24
 8008adc:	f103 0104 	add.w	r1, r3, #4
 8008ae0:	d52a      	bpl.n	8008b38 <_printf_i+0xa4>
 8008ae2:	681b      	ldr	r3, [r3, #0]
 8008ae4:	6011      	str	r1, [r2, #0]
 8008ae6:	2b00      	cmp	r3, #0
 8008ae8:	da03      	bge.n	8008af2 <_printf_i+0x5e>
 8008aea:	222d      	movs	r2, #45	; 0x2d
 8008aec:	425b      	negs	r3, r3
 8008aee:	f884 2043 	strb.w	r2, [r4, #67]	; 0x43
 8008af2:	486f      	ldr	r0, [pc, #444]	; (8008cb0 <_printf_i+0x21c>)
 8008af4:	220a      	movs	r2, #10
 8008af6:	e039      	b.n	8008b6c <_printf_i+0xd8>
 8008af8:	2973      	cmp	r1, #115	; 0x73
 8008afa:	f000 809d 	beq.w	8008c38 <_printf_i+0x1a4>
 8008afe:	d808      	bhi.n	8008b12 <_printf_i+0x7e>
 8008b00:	296f      	cmp	r1, #111	; 0x6f
 8008b02:	d020      	beq.n	8008b46 <_printf_i+0xb2>
 8008b04:	2970      	cmp	r1, #112	; 0x70
 8008b06:	d1dd      	bne.n	8008ac4 <_printf_i+0x30>
 8008b08:	6823      	ldr	r3, [r4, #0]
 8008b0a:	f043 0320 	orr.w	r3, r3, #32
 8008b0e:	6023      	str	r3, [r4, #0]
 8008b10:	e003      	b.n	8008b1a <_printf_i+0x86>
 8008b12:	2975      	cmp	r1, #117	; 0x75
 8008b14:	d017      	beq.n	8008b46 <_printf_i+0xb2>
 8008b16:	2978      	cmp	r1, #120	; 0x78
 8008b18:	d1d4      	bne.n	8008ac4 <_printf_i+0x30>
 8008b1a:	2378      	movs	r3, #120	; 0x78
 8008b1c:	f884 3045 	strb.w	r3, [r4, #69]	; 0x45
 8008b20:	4864      	ldr	r0, [pc, #400]	; (8008cb4 <_printf_i+0x220>)
 8008b22:	e055      	b.n	8008bd0 <_printf_i+0x13c>
 8008b24:	6813      	ldr	r3, [r2, #0]
 8008b26:	1d19      	adds	r1, r3, #4
 8008b28:	681b      	ldr	r3, [r3, #0]
 8008b2a:	6011      	str	r1, [r2, #0]
 8008b2c:	f104 0542 	add.w	r5, r4, #66	; 0x42
 8008b30:	f884 3042 	strb.w	r3, [r4, #66]	; 0x42
 8008b34:	2301      	movs	r3, #1
 8008b36:	e08c      	b.n	8008c52 <_printf_i+0x1be>
 8008b38:	681b      	ldr	r3, [r3, #0]
 8008b3a:	6011      	str	r1, [r2, #0]
 8008b3c:	f010 0f40 	tst.w	r0, #64	; 0x40
 8008b40:	bf18      	it	ne
 8008b42:	b21b      	sxthne	r3, r3
 8008b44:	e7cf      	b.n	8008ae6 <_printf_i+0x52>
 8008b46:	6813      	ldr	r3, [r2, #0]
 8008b48:	6825      	ldr	r5, [r4, #0]
 8008b4a:	1d18      	adds	r0, r3, #4
 8008b4c:	6010      	str	r0, [r2, #0]
 8008b4e:	0628      	lsls	r0, r5, #24
 8008b50:	d501      	bpl.n	8008b56 <_printf_i+0xc2>
 8008b52:	681b      	ldr	r3, [r3, #0]
 8008b54:	e002      	b.n	8008b5c <_printf_i+0xc8>
 8008b56:	0668      	lsls	r0, r5, #25
 8008b58:	d5fb      	bpl.n	8008b52 <_printf_i+0xbe>
 8008b5a:	881b      	ldrh	r3, [r3, #0]
 8008b5c:	4854      	ldr	r0, [pc, #336]	; (8008cb0 <_printf_i+0x21c>)
 8008b5e:	296f      	cmp	r1, #111	; 0x6f
 8008b60:	bf14      	ite	ne
 8008b62:	220a      	movne	r2, #10
 8008b64:	2208      	moveq	r2, #8
 8008b66:	2100      	movs	r1, #0
 8008b68:	f884 1043 	strb.w	r1, [r4, #67]	; 0x43
 8008b6c:	6865      	ldr	r5, [r4, #4]
 8008b6e:	60a5      	str	r5, [r4, #8]
 8008b70:	2d00      	cmp	r5, #0
 8008b72:	f2c0 8095 	blt.w	8008ca0 <_printf_i+0x20c>
 8008b76:	6821      	ldr	r1, [r4, #0]
 8008b78:	f021 0104 	bic.w	r1, r1, #4
 8008b7c:	6021      	str	r1, [r4, #0]
 8008b7e:	2b00      	cmp	r3, #0
 8008b80:	d13d      	bne.n	8008bfe <_printf_i+0x16a>
 8008b82:	2d00      	cmp	r5, #0
 8008b84:	f040 808e 	bne.w	8008ca4 <_printf_i+0x210>
 8008b88:	4665      	mov	r5, ip
 8008b8a:	2a08      	cmp	r2, #8
 8008b8c:	d10b      	bne.n	8008ba6 <_printf_i+0x112>
 8008b8e:	6823      	ldr	r3, [r4, #0]
 8008b90:	07db      	lsls	r3, r3, #31
 8008b92:	d508      	bpl.n	8008ba6 <_printf_i+0x112>
 8008b94:	6923      	ldr	r3, [r4, #16]
 8008b96:	6862      	ldr	r2, [r4, #4]
 8008b98:	429a      	cmp	r2, r3
 8008b9a:	bfde      	ittt	le
 8008b9c:	2330      	movle	r3, #48	; 0x30
 8008b9e:	f805 3c01 	strble.w	r3, [r5, #-1]
 8008ba2:	f105 35ff 	addle.w	r5, r5, #4294967295
 8008ba6:	ebac 0305 	sub.w	r3, ip, r5
 8008baa:	6123      	str	r3, [r4, #16]
 8008bac:	f8cd 8000 	str.w	r8, [sp]
 8008bb0:	463b      	mov	r3, r7
 8008bb2:	aa03      	add	r2, sp, #12
 8008bb4:	4621      	mov	r1, r4
 8008bb6:	4630      	mov	r0, r6
 8008bb8:	f7ff fef6 	bl	80089a8 <_printf_common>
 8008bbc:	3001      	adds	r0, #1
 8008bbe:	d14d      	bne.n	8008c5c <_printf_i+0x1c8>
 8008bc0:	f04f 30ff 	mov.w	r0, #4294967295
 8008bc4:	b005      	add	sp, #20
 8008bc6:	e8bd 83f0 	ldmia.w	sp!, {r4, r5, r6, r7, r8, r9, pc}
 8008bca:	4839      	ldr	r0, [pc, #228]	; (8008cb0 <_printf_i+0x21c>)
 8008bcc:	f884 1045 	strb.w	r1, [r4, #69]	; 0x45
 8008bd0:	6813      	ldr	r3, [r2, #0]
 8008bd2:	6821      	ldr	r1, [r4, #0]
 8008bd4:	1d1d      	adds	r5, r3, #4
 8008bd6:	681b      	ldr	r3, [r3, #0]
 8008bd8:	6015      	str	r5, [r2, #0]
 8008bda:	060a      	lsls	r2, r1, #24
 8008bdc:	d50b      	bpl.n	8008bf6 <_printf_i+0x162>
 8008bde:	07ca      	lsls	r2, r1, #31
 8008be0:	bf44      	itt	mi
 8008be2:	f041 0120 	orrmi.w	r1, r1, #32
 8008be6:	6021      	strmi	r1, [r4, #0]
 8008be8:	b91b      	cbnz	r3, 8008bf2 <_printf_i+0x15e>
 8008bea:	6822      	ldr	r2, [r4, #0]
 8008bec:	f022 0220 	bic.w	r2, r2, #32
 8008bf0:	6022      	str	r2, [r4, #0]
 8008bf2:	2210      	movs	r2, #16
 8008bf4:	e7b7      	b.n	8008b66 <_printf_i+0xd2>
 8008bf6:	064d      	lsls	r5, r1, #25
 8008bf8:	bf48      	it	mi
 8008bfa:	b29b      	uxthmi	r3, r3
 8008bfc:	e7ef      	b.n	8008bde <_printf_i+0x14a>
 8008bfe:	4665      	mov	r5, ip
 8008c00:	fbb3 f1f2 	udiv	r1, r3, r2
 8008c04:	fb02 3311 	mls	r3, r2, r1, r3
 8008c08:	5cc3      	ldrb	r3, [r0, r3]
 8008c0a:	f805 3d01 	strb.w	r3, [r5, #-1]!
 8008c0e:	460b      	mov	r3, r1
 8008c10:	2900      	cmp	r1, #0
 8008c12:	d1f5      	bne.n	8008c00 <_printf_i+0x16c>
 8008c14:	e7b9      	b.n	8008b8a <_printf_i+0xf6>
 8008c16:	6813      	ldr	r3, [r2, #0]
 8008c18:	6825      	ldr	r5, [r4, #0]
 8008c1a:	6961      	ldr	r1, [r4, #20]
 8008c1c:	1d18      	adds	r0, r3, #4
 8008c1e:	6010      	str	r0, [r2, #0]
 8008c20:	0628      	lsls	r0, r5, #24
 8008c22:	681b      	ldr	r3, [r3, #0]
 8008c24:	d501      	bpl.n	8008c2a <_printf_i+0x196>
 8008c26:	6019      	str	r1, [r3, #0]
 8008c28:	e002      	b.n	8008c30 <_printf_i+0x19c>
 8008c2a:	066a      	lsls	r2, r5, #25
 8008c2c:	d5fb      	bpl.n	8008c26 <_printf_i+0x192>
 8008c2e:	8019      	strh	r1, [r3, #0]
 8008c30:	2300      	movs	r3, #0
 8008c32:	6123      	str	r3, [r4, #16]
 8008c34:	4665      	mov	r5, ip
 8008c36:	e7b9      	b.n	8008bac <_printf_i+0x118>
 8008c38:	6813      	ldr	r3, [r2, #0]
 8008c3a:	1d19      	adds	r1, r3, #4
 8008c3c:	6011      	str	r1, [r2, #0]
 8008c3e:	681d      	ldr	r5, [r3, #0]
 8008c40:	6862      	ldr	r2, [r4, #4]
 8008c42:	2100      	movs	r1, #0
 8008c44:	4628      	mov	r0, r5
 8008c46:	f7f7 faeb 	bl	8000220 <memchr>
 8008c4a:	b108      	cbz	r0, 8008c50 <_printf_i+0x1bc>
 8008c4c:	1b40      	subs	r0, r0, r5
 8008c4e:	6060      	str	r0, [r4, #4]
 8008c50:	6863      	ldr	r3, [r4, #4]
 8008c52:	6123      	str	r3, [r4, #16]
 8008c54:	2300      	movs	r3, #0
 8008c56:	f884 3043 	strb.w	r3, [r4, #67]	; 0x43
 8008c5a:	e7a7      	b.n	8008bac <_printf_i+0x118>
 8008c5c:	6923      	ldr	r3, [r4, #16]
 8008c5e:	462a      	mov	r2, r5
 8008c60:	4639      	mov	r1, r7
 8008c62:	4630      	mov	r0, r6
 8008c64:	47c0      	blx	r8
 8008c66:	3001      	adds	r0, #1
 8008c68:	d0aa      	beq.n	8008bc0 <_printf_i+0x12c>
 8008c6a:	6823      	ldr	r3, [r4, #0]
 8008c6c:	079b      	lsls	r3, r3, #30
 8008c6e:	d413      	bmi.n	8008c98 <_printf_i+0x204>
 8008c70:	68e0      	ldr	r0, [r4, #12]
 8008c72:	9b03      	ldr	r3, [sp, #12]
 8008c74:	4298      	cmp	r0, r3
 8008c76:	bfb8      	it	lt
 8008c78:	4618      	movlt	r0, r3
 8008c7a:	e7a3      	b.n	8008bc4 <_printf_i+0x130>
 8008c7c:	2301      	movs	r3, #1
 8008c7e:	464a      	mov	r2, r9
 8008c80:	4639      	mov	r1, r7
 8008c82:	4630      	mov	r0, r6
 8008c84:	47c0      	blx	r8
 8008c86:	3001      	adds	r0, #1
 8008c88:	d09a      	beq.n	8008bc0 <_printf_i+0x12c>
 8008c8a:	3501      	adds	r5, #1
 8008c8c:	68e3      	ldr	r3, [r4, #12]
 8008c8e:	9a03      	ldr	r2, [sp, #12]
 8008c90:	1a9b      	subs	r3, r3, r2
 8008c92:	42ab      	cmp	r3, r5
 8008c94:	dcf2      	bgt.n	8008c7c <_printf_i+0x1e8>
 8008c96:	e7eb      	b.n	8008c70 <_printf_i+0x1dc>
 8008c98:	2500      	movs	r5, #0
 8008c9a:	f104 0919 	add.w	r9, r4, #25
 8008c9e:	e7f5      	b.n	8008c8c <_printf_i+0x1f8>
 8008ca0:	2b00      	cmp	r3, #0
 8008ca2:	d1ac      	bne.n	8008bfe <_printf_i+0x16a>
 8008ca4:	7803      	ldrb	r3, [r0, #0]
 8008ca6:	f884 3042 	strb.w	r3, [r4, #66]	; 0x42
 8008caa:	f104 0542 	add.w	r5, r4, #66	; 0x42
 8008cae:	e76c      	b.n	8008b8a <_printf_i+0xf6>
 8008cb0:	0800a74a 	.word	0x0800a74a
 8008cb4:	0800a75b 	.word	0x0800a75b

08008cb8 <siprintf>:
 8008cb8:	b40e      	push	{r1, r2, r3}
 8008cba:	b500      	push	{lr}
 8008cbc:	b09c      	sub	sp, #112	; 0x70
 8008cbe:	ab1d      	add	r3, sp, #116	; 0x74
 8008cc0:	9002      	str	r0, [sp, #8]
 8008cc2:	9006      	str	r0, [sp, #24]
 8008cc4:	f06f 4100 	mvn.w	r1, #2147483648	; 0x80000000
 8008cc8:	4809      	ldr	r0, [pc, #36]	; (8008cf0 <siprintf+0x38>)
 8008cca:	9107      	str	r1, [sp, #28]
 8008ccc:	9104      	str	r1, [sp, #16]
 8008cce:	4909      	ldr	r1, [pc, #36]	; (8008cf4 <siprintf+0x3c>)
 8008cd0:	f853 2b04 	ldr.w	r2, [r3], #4
 8008cd4:	9105      	str	r1, [sp, #20]
 8008cd6:	6800      	ldr	r0, [r0, #0]
 8008cd8:	9301      	str	r3, [sp, #4]
 8008cda:	a902      	add	r1, sp, #8
 8008cdc:	f001 fa98 	bl	800a210 <_svfiprintf_r>
 8008ce0:	9b02      	ldr	r3, [sp, #8]
 8008ce2:	2200      	movs	r2, #0
 8008ce4:	701a      	strb	r2, [r3, #0]
 8008ce6:	b01c      	add	sp, #112	; 0x70
 8008ce8:	f85d eb04 	ldr.w	lr, [sp], #4
 8008cec:	b003      	add	sp, #12
 8008cee:	4770      	bx	lr
 8008cf0:	20000024 	.word	0x20000024
 8008cf4:	ffff0208 	.word	0xffff0208

08008cf8 <_vsniprintf_r>:
 8008cf8:	b530      	push	{r4, r5, lr}
 8008cfa:	1e14      	subs	r4, r2, #0
 8008cfc:	4605      	mov	r5, r0
 8008cfe:	b09b      	sub	sp, #108	; 0x6c
 8008d00:	4618      	mov	r0, r3
 8008d02:	da05      	bge.n	8008d10 <_vsniprintf_r+0x18>
 8008d04:	238b      	movs	r3, #139	; 0x8b
 8008d06:	602b      	str	r3, [r5, #0]
 8008d08:	f04f 30ff 	mov.w	r0, #4294967295
 8008d0c:	b01b      	add	sp, #108	; 0x6c
 8008d0e:	bd30      	pop	{r4, r5, pc}
 8008d10:	f44f 7302 	mov.w	r3, #520	; 0x208
 8008d14:	f8ad 300c 	strh.w	r3, [sp, #12]
 8008d18:	bf14      	ite	ne
 8008d1a:	f104 33ff 	addne.w	r3, r4, #4294967295
 8008d1e:	4623      	moveq	r3, r4
 8008d20:	9302      	str	r3, [sp, #8]
 8008d22:	9305      	str	r3, [sp, #20]
 8008d24:	f64f 73ff 	movw	r3, #65535	; 0xffff
 8008d28:	9100      	str	r1, [sp, #0]
 8008d2a:	9104      	str	r1, [sp, #16]
 8008d2c:	f8ad 300e 	strh.w	r3, [sp, #14]
 8008d30:	4602      	mov	r2, r0
 8008d32:	9b1e      	ldr	r3, [sp, #120]	; 0x78
 8008d34:	4669      	mov	r1, sp
 8008d36:	4628      	mov	r0, r5
 8008d38:	f001 fa6a 	bl	800a210 <_svfiprintf_r>
 8008d3c:	1c43      	adds	r3, r0, #1
 8008d3e:	bfbc      	itt	lt
 8008d40:	238b      	movlt	r3, #139	; 0x8b
 8008d42:	602b      	strlt	r3, [r5, #0]
 8008d44:	2c00      	cmp	r4, #0
 8008d46:	d0e1      	beq.n	8008d0c <_vsniprintf_r+0x14>
 8008d48:	9b00      	ldr	r3, [sp, #0]
 8008d4a:	2200      	movs	r2, #0
 8008d4c:	701a      	strb	r2, [r3, #0]
 8008d4e:	e7dd      	b.n	8008d0c <_vsniprintf_r+0x14>

08008d50 <vsniprintf>:
 8008d50:	b507      	push	{r0, r1, r2, lr}
 8008d52:	9300      	str	r3, [sp, #0]
 8008d54:	4613      	mov	r3, r2
 8008d56:	460a      	mov	r2, r1
 8008d58:	4601      	mov	r1, r0
 8008d5a:	4803      	ldr	r0, [pc, #12]	; (8008d68 <vsniprintf+0x18>)
 8008d5c:	6800      	ldr	r0, [r0, #0]
 8008d5e:	f7ff ffcb 	bl	8008cf8 <_vsniprintf_r>
 8008d62:	b003      	add	sp, #12
 8008d64:	f85d fb04 	ldr.w	pc, [sp], #4
 8008d68:	20000024 	.word	0x20000024

08008d6c <quorem>:
 8008d6c:	e92d 4ff7 	stmdb	sp!, {r0, r1, r2, r4, r5, r6, r7, r8, r9, sl, fp, lr}
 8008d70:	6903      	ldr	r3, [r0, #16]
 8008d72:	690c      	ldr	r4, [r1, #16]
 8008d74:	42a3      	cmp	r3, r4
 8008d76:	4680      	mov	r8, r0
 8008d78:	f2c0 8082 	blt.w	8008e80 <quorem+0x114>
 8008d7c:	3c01      	subs	r4, #1
 8008d7e:	f101 0714 	add.w	r7, r1, #20
 8008d82:	ea4f 0c84 	mov.w	ip, r4, lsl #2
 8008d86:	f100 0614 	add.w	r6, r0, #20
 8008d8a:	f857 5024 	ldr.w	r5, [r7, r4, lsl #2]
 8008d8e:	f856 0024 	ldr.w	r0, [r6, r4, lsl #2]
 8008d92:	eb06 030c 	add.w	r3, r6, ip
 8008d96:	3501      	adds	r5, #1
 8008d98:	eb07 090c 	add.w	r9, r7, ip
 8008d9c:	9301      	str	r3, [sp, #4]
 8008d9e:	fbb0 f5f5 	udiv	r5, r0, r5
 8008da2:	b395      	cbz	r5, 8008e0a <quorem+0x9e>
 8008da4:	f04f 0a00 	mov.w	sl, #0
 8008da8:	4638      	mov	r0, r7
 8008daa:	46b6      	mov	lr, r6
 8008dac:	46d3      	mov	fp, sl
 8008dae:	f850 2b04 	ldr.w	r2, [r0], #4
 8008db2:	b293      	uxth	r3, r2
 8008db4:	fb05 a303 	mla	r3, r5, r3, sl
 8008db8:	ea4f 4a13 	mov.w	sl, r3, lsr #16
 8008dbc:	b29b      	uxth	r3, r3
 8008dbe:	ebab 0303 	sub.w	r3, fp, r3
 8008dc2:	0c12      	lsrs	r2, r2, #16
 8008dc4:	f8de b000 	ldr.w	fp, [lr]
 8008dc8:	fb05 a202 	mla	r2, r5, r2, sl
 8008dcc:	fa13 f38b 	uxtah	r3, r3, fp
 8008dd0:	ea4f 4a12 	mov.w	sl, r2, lsr #16
 8008dd4:	fa1f fb82 	uxth.w	fp, r2
 8008dd8:	f8de 2000 	ldr.w	r2, [lr]
 8008ddc:	ebcb 4212 	rsb	r2, fp, r2, lsr #16
 8008de0:	eb02 4223 	add.w	r2, r2, r3, asr #16
 8008de4:	b29b      	uxth	r3, r3
 8008de6:	ea43 4302 	orr.w	r3, r3, r2, lsl #16
 8008dea:	4581      	cmp	r9, r0
 8008dec:	ea4f 4b22 	mov.w	fp, r2, asr #16
 8008df0:	f84e 3b04 	str.w	r3, [lr], #4
 8008df4:	d2db      	bcs.n	8008dae <quorem+0x42>
 8008df6:	f856 300c 	ldr.w	r3, [r6, ip]
 8008dfa:	b933      	cbnz	r3, 8008e0a <quorem+0x9e>
 8008dfc:	9b01      	ldr	r3, [sp, #4]
 8008dfe:	3b04      	subs	r3, #4
 8008e00:	429e      	cmp	r6, r3
 8008e02:	461a      	mov	r2, r3
 8008e04:	d330      	bcc.n	8008e68 <quorem+0xfc>
 8008e06:	f8c8 4010 	str.w	r4, [r8, #16]
 8008e0a:	4640      	mov	r0, r8
 8008e0c:	f001 f82a 	bl	8009e64 <__mcmp>
 8008e10:	2800      	cmp	r0, #0
 8008e12:	db25      	blt.n	8008e60 <quorem+0xf4>
 8008e14:	3501      	adds	r5, #1
 8008e16:	4630      	mov	r0, r6
 8008e18:	f04f 0c00 	mov.w	ip, #0
 8008e1c:	f857 2b04 	ldr.w	r2, [r7], #4
 8008e20:	f8d0 e000 	ldr.w	lr, [r0]
 8008e24:	b293      	uxth	r3, r2
 8008e26:	ebac 0303 	sub.w	r3, ip, r3
 8008e2a:	0c12      	lsrs	r2, r2, #16
 8008e2c:	fa13 f38e 	uxtah	r3, r3, lr
 8008e30:	ebc2 421e 	rsb	r2, r2, lr, lsr #16
 8008e34:	eb02 4223 	add.w	r2, r2, r3, asr #16
 8008e38:	b29b      	uxth	r3, r3
 8008e3a:	ea43 4302 	orr.w	r3, r3, r2, lsl #16
 8008e3e:	45b9      	cmp	r9, r7
 8008e40:	ea4f 4c22 	mov.w	ip, r2, asr #16
 8008e44:	f840 3b04 	str.w	r3, [r0], #4
 8008e48:	d2e8      	bcs.n	8008e1c <quorem+0xb0>
 8008e4a:	f856 2024 	ldr.w	r2, [r6, r4, lsl #2]
 8008e4e:	eb06 0384 	add.w	r3, r6, r4, lsl #2
 8008e52:	b92a      	cbnz	r2, 8008e60 <quorem+0xf4>
 8008e54:	3b04      	subs	r3, #4
 8008e56:	429e      	cmp	r6, r3
 8008e58:	461a      	mov	r2, r3
 8008e5a:	d30b      	bcc.n	8008e74 <quorem+0x108>
 8008e5c:	f8c8 4010 	str.w	r4, [r8, #16]
 8008e60:	4628      	mov	r0, r5
 8008e62:	b003      	add	sp, #12
 8008e64:	e8bd 8ff0 	ldmia.w	sp!, {r4, r5, r6, r7, r8, r9, sl, fp, pc}
 8008e68:	6812      	ldr	r2, [r2, #0]
 8008e6a:	3b04      	subs	r3, #4
 8008e6c:	2a00      	cmp	r2, #0
 8008e6e:	d1ca      	bne.n	8008e06 <quorem+0x9a>
 8008e70:	3c01      	subs	r4, #1
 8008e72:	e7c5      	b.n	8008e00 <quorem+0x94>
 8008e74:	6812      	ldr	r2, [r2, #0]
 8008e76:	3b04      	subs	r3, #4
 8008e78:	2a00      	cmp	r2, #0
 8008e7a:	d1ef      	bne.n	8008e5c <quorem+0xf0>
 8008e7c:	3c01      	subs	r4, #1
 8008e7e:	e7ea      	b.n	8008e56 <quorem+0xea>
 8008e80:	2000      	movs	r0, #0
 8008e82:	e7ee      	b.n	8008e62 <quorem+0xf6>
 8008e84:	0000      	movs	r0, r0
	...

08008e88 <_dtoa_r>:
 8008e88:	e92d 4ff0 	stmdb	sp!, {r4, r5, r6, r7, r8, r9, sl, fp, lr}
 8008e8c:	ec57 6b10 	vmov	r6, r7, d0
 8008e90:	b097      	sub	sp, #92	; 0x5c
 8008e92:	6a45      	ldr	r5, [r0, #36]	; 0x24
 8008e94:	9106      	str	r1, [sp, #24]
 8008e96:	4604      	mov	r4, r0
 8008e98:	920b      	str	r2, [sp, #44]	; 0x2c
 8008e9a:	9312      	str	r3, [sp, #72]	; 0x48
 8008e9c:	f8dd 8080 	ldr.w	r8, [sp, #128]	; 0x80
 8008ea0:	e9cd 6700 	strd	r6, r7, [sp]
 8008ea4:	b93d      	cbnz	r5, 8008eb6 <_dtoa_r+0x2e>
 8008ea6:	2010      	movs	r0, #16
 8008ea8:	f000 fdb4 	bl	8009a14 <malloc>
 8008eac:	6260      	str	r0, [r4, #36]	; 0x24
 8008eae:	e9c0 5501 	strd	r5, r5, [r0, #4]
 8008eb2:	6005      	str	r5, [r0, #0]
 8008eb4:	60c5      	str	r5, [r0, #12]
 8008eb6:	6a63      	ldr	r3, [r4, #36]	; 0x24
 8008eb8:	6819      	ldr	r1, [r3, #0]
 8008eba:	b151      	cbz	r1, 8008ed2 <_dtoa_r+0x4a>
 8008ebc:	685a      	ldr	r2, [r3, #4]
 8008ebe:	604a      	str	r2, [r1, #4]
 8008ec0:	2301      	movs	r3, #1
 8008ec2:	4093      	lsls	r3, r2
 8008ec4:	608b      	str	r3, [r1, #8]
 8008ec6:	4620      	mov	r0, r4
 8008ec8:	f000 fdeb 	bl	8009aa2 <_Bfree>
 8008ecc:	6a63      	ldr	r3, [r4, #36]	; 0x24
 8008ece:	2200      	movs	r2, #0
 8008ed0:	601a      	str	r2, [r3, #0]
 8008ed2:	1e3b      	subs	r3, r7, #0
 8008ed4:	bfbb      	ittet	lt
 8008ed6:	f023 4300 	biclt.w	r3, r3, #2147483648	; 0x80000000
 8008eda:	9301      	strlt	r3, [sp, #4]
 8008edc:	2300      	movge	r3, #0
 8008ede:	2201      	movlt	r2, #1
 8008ee0:	bfac      	ite	ge
 8008ee2:	f8c8 3000 	strge.w	r3, [r8]
 8008ee6:	f8c8 2000 	strlt.w	r2, [r8]
 8008eea:	4baf      	ldr	r3, [pc, #700]	; (80091a8 <_dtoa_r+0x320>)
 8008eec:	f8dd 8004 	ldr.w	r8, [sp, #4]
 8008ef0:	ea33 0308 	bics.w	r3, r3, r8
 8008ef4:	d114      	bne.n	8008f20 <_dtoa_r+0x98>
 8008ef6:	9a12      	ldr	r2, [sp, #72]	; 0x48
 8008ef8:	f242 730f 	movw	r3, #9999	; 0x270f
 8008efc:	6013      	str	r3, [r2, #0]
 8008efe:	9b00      	ldr	r3, [sp, #0]
 8008f00:	b923      	cbnz	r3, 8008f0c <_dtoa_r+0x84>
 8008f02:	f3c8 0013 	ubfx	r0, r8, #0, #20
 8008f06:	2800      	cmp	r0, #0
 8008f08:	f000 8542 	beq.w	8009990 <_dtoa_r+0xb08>
 8008f0c:	9b21      	ldr	r3, [sp, #132]	; 0x84
 8008f0e:	f8df b2ac 	ldr.w	fp, [pc, #684]	; 80091bc <_dtoa_r+0x334>
 8008f12:	2b00      	cmp	r3, #0
 8008f14:	f000 8544 	beq.w	80099a0 <_dtoa_r+0xb18>
 8008f18:	f10b 0303 	add.w	r3, fp, #3
 8008f1c:	f000 bd3e 	b.w	800999c <_dtoa_r+0xb14>
 8008f20:	e9dd 6700 	ldrd	r6, r7, [sp]
 8008f24:	2200      	movs	r2, #0
 8008f26:	2300      	movs	r3, #0
 8008f28:	4630      	mov	r0, r6
 8008f2a:	4639      	mov	r1, r7
 8008f2c:	f7f7 fdec 	bl	8000b08 <__aeabi_dcmpeq>
 8008f30:	4681      	mov	r9, r0
 8008f32:	b168      	cbz	r0, 8008f50 <_dtoa_r+0xc8>
 8008f34:	9a12      	ldr	r2, [sp, #72]	; 0x48
 8008f36:	2301      	movs	r3, #1
 8008f38:	6013      	str	r3, [r2, #0]
 8008f3a:	9b21      	ldr	r3, [sp, #132]	; 0x84
 8008f3c:	2b00      	cmp	r3, #0
 8008f3e:	f000 8524 	beq.w	800998a <_dtoa_r+0xb02>
 8008f42:	4b9a      	ldr	r3, [pc, #616]	; (80091ac <_dtoa_r+0x324>)
 8008f44:	9a21      	ldr	r2, [sp, #132]	; 0x84
 8008f46:	f103 3bff 	add.w	fp, r3, #4294967295
 8008f4a:	6013      	str	r3, [r2, #0]
 8008f4c:	f000 bd28 	b.w	80099a0 <_dtoa_r+0xb18>
 8008f50:	aa14      	add	r2, sp, #80	; 0x50
 8008f52:	a915      	add	r1, sp, #84	; 0x54
 8008f54:	ec47 6b10 	vmov	d0, r6, r7
 8008f58:	4620      	mov	r0, r4
 8008f5a:	f000 fffa 	bl	8009f52 <__d2b>
 8008f5e:	f3c8 550a 	ubfx	r5, r8, #20, #11
 8008f62:	9004      	str	r0, [sp, #16]
 8008f64:	2d00      	cmp	r5, #0
 8008f66:	d07c      	beq.n	8009062 <_dtoa_r+0x1da>
 8008f68:	f3c7 0313 	ubfx	r3, r7, #0, #20
 8008f6c:	f043 5b7f 	orr.w	fp, r3, #1069547520	; 0x3fc00000
 8008f70:	46b2      	mov	sl, r6
 8008f72:	f44b 1b40 	orr.w	fp, fp, #3145728	; 0x300000
 8008f76:	f2a5 35ff 	subw	r5, r5, #1023	; 0x3ff
 8008f7a:	f8cd 904c 	str.w	r9, [sp, #76]	; 0x4c
 8008f7e:	2200      	movs	r2, #0
 8008f80:	4b8b      	ldr	r3, [pc, #556]	; (80091b0 <_dtoa_r+0x328>)
 8008f82:	4650      	mov	r0, sl
 8008f84:	4659      	mov	r1, fp
 8008f86:	f7f7 f99f 	bl	80002c8 <__aeabi_dsub>
 8008f8a:	a381      	add	r3, pc, #516	; (adr r3, 8009190 <_dtoa_r+0x308>)
 8008f8c:	e9d3 2300 	ldrd	r2, r3, [r3]
 8008f90:	f7f7 fb52 	bl	8000638 <__aeabi_dmul>
 8008f94:	a380      	add	r3, pc, #512	; (adr r3, 8009198 <_dtoa_r+0x310>)
 8008f96:	e9d3 2300 	ldrd	r2, r3, [r3]
 8008f9a:	f7f7 f997 	bl	80002cc <__adddf3>
 8008f9e:	4606      	mov	r6, r0
 8008fa0:	4628      	mov	r0, r5
 8008fa2:	460f      	mov	r7, r1
 8008fa4:	f7f7 fade 	bl	8000564 <__aeabi_i2d>
 8008fa8:	a37d      	add	r3, pc, #500	; (adr r3, 80091a0 <_dtoa_r+0x318>)
 8008faa:	e9d3 2300 	ldrd	r2, r3, [r3]
 8008fae:	f7f7 fb43 	bl	8000638 <__aeabi_dmul>
 8008fb2:	4602      	mov	r2, r0
 8008fb4:	460b      	mov	r3, r1
 8008fb6:	4630      	mov	r0, r6
 8008fb8:	4639      	mov	r1, r7
 8008fba:	f7f7 f987 	bl	80002cc <__adddf3>
 8008fbe:	4606      	mov	r6, r0
 8008fc0:	460f      	mov	r7, r1
 8008fc2:	f7f7 fde9 	bl	8000b98 <__aeabi_d2iz>
 8008fc6:	2200      	movs	r2, #0
 8008fc8:	4682      	mov	sl, r0
 8008fca:	2300      	movs	r3, #0
 8008fcc:	4630      	mov	r0, r6
 8008fce:	4639      	mov	r1, r7
 8008fd0:	f7f7 fda4 	bl	8000b1c <__aeabi_dcmplt>
 8008fd4:	b148      	cbz	r0, 8008fea <_dtoa_r+0x162>
 8008fd6:	4650      	mov	r0, sl
 8008fd8:	f7f7 fac4 	bl	8000564 <__aeabi_i2d>
 8008fdc:	4632      	mov	r2, r6
 8008fde:	463b      	mov	r3, r7
 8008fe0:	f7f7 fd92 	bl	8000b08 <__aeabi_dcmpeq>
 8008fe4:	b908      	cbnz	r0, 8008fea <_dtoa_r+0x162>
 8008fe6:	f10a 3aff 	add.w	sl, sl, #4294967295
 8008fea:	f1ba 0f16 	cmp.w	sl, #22
 8008fee:	d859      	bhi.n	80090a4 <_dtoa_r+0x21c>
 8008ff0:	4970      	ldr	r1, [pc, #448]	; (80091b4 <_dtoa_r+0x32c>)
 8008ff2:	eb01 01ca 	add.w	r1, r1, sl, lsl #3
 8008ff6:	e9dd 2300 	ldrd	r2, r3, [sp]
 8008ffa:	e9d1 0100 	ldrd	r0, r1, [r1]
 8008ffe:	f7f7 fdab 	bl	8000b58 <__aeabi_dcmpgt>
 8009002:	2800      	cmp	r0, #0
 8009004:	d050      	beq.n	80090a8 <_dtoa_r+0x220>
 8009006:	f10a 3aff 	add.w	sl, sl, #4294967295
 800900a:	2300      	movs	r3, #0
 800900c:	930f      	str	r3, [sp, #60]	; 0x3c
 800900e:	9b14      	ldr	r3, [sp, #80]	; 0x50
 8009010:	1b5d      	subs	r5, r3, r5
 8009012:	f1b5 0801 	subs.w	r8, r5, #1
 8009016:	bf49      	itett	mi
 8009018:	f1c5 0301 	rsbmi	r3, r5, #1
 800901c:	2300      	movpl	r3, #0
 800901e:	9305      	strmi	r3, [sp, #20]
 8009020:	f04f 0800 	movmi.w	r8, #0
 8009024:	bf58      	it	pl
 8009026:	9305      	strpl	r3, [sp, #20]
 8009028:	f1ba 0f00 	cmp.w	sl, #0
 800902c:	db3e      	blt.n	80090ac <_dtoa_r+0x224>
 800902e:	2300      	movs	r3, #0
 8009030:	44d0      	add	r8, sl
 8009032:	f8cd a038 	str.w	sl, [sp, #56]	; 0x38
 8009036:	9307      	str	r3, [sp, #28]
 8009038:	9b06      	ldr	r3, [sp, #24]
 800903a:	2b09      	cmp	r3, #9
 800903c:	f200 8090 	bhi.w	8009160 <_dtoa_r+0x2d8>
 8009040:	2b05      	cmp	r3, #5
 8009042:	bfc4      	itt	gt
 8009044:	3b04      	subgt	r3, #4
 8009046:	9306      	strgt	r3, [sp, #24]
 8009048:	9b06      	ldr	r3, [sp, #24]
 800904a:	f1a3 0302 	sub.w	r3, r3, #2
 800904e:	bfcc      	ite	gt
 8009050:	2500      	movgt	r5, #0
 8009052:	2501      	movle	r5, #1
 8009054:	2b03      	cmp	r3, #3
 8009056:	f200 808f 	bhi.w	8009178 <_dtoa_r+0x2f0>
 800905a:	e8df f003 	tbb	[pc, r3]
 800905e:	7f7d      	.short	0x7f7d
 8009060:	7131      	.short	0x7131
 8009062:	e9dd 5314 	ldrd	r5, r3, [sp, #80]	; 0x50
 8009066:	441d      	add	r5, r3
 8009068:	f205 4032 	addw	r0, r5, #1074	; 0x432
 800906c:	2820      	cmp	r0, #32
 800906e:	dd13      	ble.n	8009098 <_dtoa_r+0x210>
 8009070:	f1c0 0040 	rsb	r0, r0, #64	; 0x40
 8009074:	9b00      	ldr	r3, [sp, #0]
 8009076:	fa08 f800 	lsl.w	r8, r8, r0
 800907a:	f205 4012 	addw	r0, r5, #1042	; 0x412
 800907e:	fa23 f000 	lsr.w	r0, r3, r0
 8009082:	ea48 0000 	orr.w	r0, r8, r0
 8009086:	f7f7 fa5d 	bl	8000544 <__aeabi_ui2d>
 800908a:	2301      	movs	r3, #1
 800908c:	4682      	mov	sl, r0
 800908e:	f1a1 7bf8 	sub.w	fp, r1, #32505856	; 0x1f00000
 8009092:	3d01      	subs	r5, #1
 8009094:	9313      	str	r3, [sp, #76]	; 0x4c
 8009096:	e772      	b.n	8008f7e <_dtoa_r+0xf6>
 8009098:	9b00      	ldr	r3, [sp, #0]
 800909a:	f1c0 0020 	rsb	r0, r0, #32
 800909e:	fa03 f000 	lsl.w	r0, r3, r0
 80090a2:	e7f0      	b.n	8009086 <_dtoa_r+0x1fe>
 80090a4:	2301      	movs	r3, #1
 80090a6:	e7b1      	b.n	800900c <_dtoa_r+0x184>
 80090a8:	900f      	str	r0, [sp, #60]	; 0x3c
 80090aa:	e7b0      	b.n	800900e <_dtoa_r+0x186>
 80090ac:	9b05      	ldr	r3, [sp, #20]
 80090ae:	eba3 030a 	sub.w	r3, r3, sl
 80090b2:	9305      	str	r3, [sp, #20]
 80090b4:	f1ca 0300 	rsb	r3, sl, #0
 80090b8:	9307      	str	r3, [sp, #28]
 80090ba:	2300      	movs	r3, #0
 80090bc:	930e      	str	r3, [sp, #56]	; 0x38
 80090be:	e7bb      	b.n	8009038 <_dtoa_r+0x1b0>
 80090c0:	2301      	movs	r3, #1
 80090c2:	930a      	str	r3, [sp, #40]	; 0x28
 80090c4:	9b0b      	ldr	r3, [sp, #44]	; 0x2c
 80090c6:	2b00      	cmp	r3, #0
 80090c8:	dd59      	ble.n	800917e <_dtoa_r+0x2f6>
 80090ca:	9302      	str	r3, [sp, #8]
 80090cc:	4699      	mov	r9, r3
 80090ce:	6a66      	ldr	r6, [r4, #36]	; 0x24
 80090d0:	2200      	movs	r2, #0
 80090d2:	6072      	str	r2, [r6, #4]
 80090d4:	2204      	movs	r2, #4
 80090d6:	f102 0014 	add.w	r0, r2, #20
 80090da:	4298      	cmp	r0, r3
 80090dc:	6871      	ldr	r1, [r6, #4]
 80090de:	d953      	bls.n	8009188 <_dtoa_r+0x300>
 80090e0:	4620      	mov	r0, r4
 80090e2:	f000 fcaa 	bl	8009a3a <_Balloc>
 80090e6:	6a63      	ldr	r3, [r4, #36]	; 0x24
 80090e8:	6030      	str	r0, [r6, #0]
 80090ea:	f1b9 0f0e 	cmp.w	r9, #14
 80090ee:	f8d3 b000 	ldr.w	fp, [r3]
 80090f2:	f200 80e6 	bhi.w	80092c2 <_dtoa_r+0x43a>
 80090f6:	2d00      	cmp	r5, #0
 80090f8:	f000 80e3 	beq.w	80092c2 <_dtoa_r+0x43a>
 80090fc:	ed9d 7b00 	vldr	d7, [sp]
 8009100:	f1ba 0f00 	cmp.w	sl, #0
 8009104:	ed8d 7b10 	vstr	d7, [sp, #64]	; 0x40
 8009108:	dd74      	ble.n	80091f4 <_dtoa_r+0x36c>
 800910a:	4a2a      	ldr	r2, [pc, #168]	; (80091b4 <_dtoa_r+0x32c>)
 800910c:	f00a 030f 	and.w	r3, sl, #15
 8009110:	eb02 03c3 	add.w	r3, r2, r3, lsl #3
 8009114:	ed93 7b00 	vldr	d7, [r3]
 8009118:	ea4f 162a 	mov.w	r6, sl, asr #4
 800911c:	06f0      	lsls	r0, r6, #27
 800911e:	ed8d 7b08 	vstr	d7, [sp, #32]
 8009122:	d565      	bpl.n	80091f0 <_dtoa_r+0x368>
 8009124:	4b24      	ldr	r3, [pc, #144]	; (80091b8 <_dtoa_r+0x330>)
 8009126:	e9dd 0110 	ldrd	r0, r1, [sp, #64]	; 0x40
 800912a:	e9d3 2308 	ldrd	r2, r3, [r3, #32]
 800912e:	f7f7 fbad 	bl	800088c <__aeabi_ddiv>
 8009132:	e9cd 0100 	strd	r0, r1, [sp]
 8009136:	f006 060f 	and.w	r6, r6, #15
 800913a:	2503      	movs	r5, #3
 800913c:	4f1e      	ldr	r7, [pc, #120]	; (80091b8 <_dtoa_r+0x330>)
 800913e:	e04c      	b.n	80091da <_dtoa_r+0x352>
 8009140:	2301      	movs	r3, #1
 8009142:	930a      	str	r3, [sp, #40]	; 0x28
 8009144:	9b0b      	ldr	r3, [sp, #44]	; 0x2c
 8009146:	4453      	add	r3, sl
 8009148:	f103 0901 	add.w	r9, r3, #1
 800914c:	9302      	str	r3, [sp, #8]
 800914e:	464b      	mov	r3, r9
 8009150:	2b01      	cmp	r3, #1
 8009152:	bfb8      	it	lt
 8009154:	2301      	movlt	r3, #1
 8009156:	e7ba      	b.n	80090ce <_dtoa_r+0x246>
 8009158:	2300      	movs	r3, #0
 800915a:	e7b2      	b.n	80090c2 <_dtoa_r+0x23a>
 800915c:	2300      	movs	r3, #0
 800915e:	e7f0      	b.n	8009142 <_dtoa_r+0x2ba>
 8009160:	2501      	movs	r5, #1
 8009162:	2300      	movs	r3, #0
 8009164:	9306      	str	r3, [sp, #24]
 8009166:	950a      	str	r5, [sp, #40]	; 0x28
 8009168:	f04f 33ff 	mov.w	r3, #4294967295
 800916c:	9302      	str	r3, [sp, #8]
 800916e:	4699      	mov	r9, r3
 8009170:	2200      	movs	r2, #0
 8009172:	2312      	movs	r3, #18
 8009174:	920b      	str	r2, [sp, #44]	; 0x2c
 8009176:	e7aa      	b.n	80090ce <_dtoa_r+0x246>
 8009178:	2301      	movs	r3, #1
 800917a:	930a      	str	r3, [sp, #40]	; 0x28
 800917c:	e7f4      	b.n	8009168 <_dtoa_r+0x2e0>
 800917e:	2301      	movs	r3, #1
 8009180:	9302      	str	r3, [sp, #8]
 8009182:	4699      	mov	r9, r3
 8009184:	461a      	mov	r2, r3
 8009186:	e7f5      	b.n	8009174 <_dtoa_r+0x2ec>
 8009188:	3101      	adds	r1, #1
 800918a:	6071      	str	r1, [r6, #4]
 800918c:	0052      	lsls	r2, r2, #1
 800918e:	e7a2      	b.n	80090d6 <_dtoa_r+0x24e>
 8009190:	636f4361 	.word	0x636f4361
 8009194:	3fd287a7 	.word	0x3fd287a7
 8009198:	8b60c8b3 	.word	0x8b60c8b3
 800919c:	3fc68a28 	.word	0x3fc68a28
 80091a0:	509f79fb 	.word	0x509f79fb
 80091a4:	3fd34413 	.word	0x3fd34413
 80091a8:	7ff00000 	.word	0x7ff00000
 80091ac:	0800a749 	.word	0x0800a749
 80091b0:	3ff80000 	.word	0x3ff80000
 80091b4:	0800a7a8 	.word	0x0800a7a8
 80091b8:	0800a780 	.word	0x0800a780
 80091bc:	0800a775 	.word	0x0800a775
 80091c0:	07f1      	lsls	r1, r6, #31
 80091c2:	d508      	bpl.n	80091d6 <_dtoa_r+0x34e>
 80091c4:	e9dd 0108 	ldrd	r0, r1, [sp, #32]
 80091c8:	e9d7 2300 	ldrd	r2, r3, [r7]
 80091cc:	f7f7 fa34 	bl	8000638 <__aeabi_dmul>
 80091d0:	e9cd 0108 	strd	r0, r1, [sp, #32]
 80091d4:	3501      	adds	r5, #1
 80091d6:	1076      	asrs	r6, r6, #1
 80091d8:	3708      	adds	r7, #8
 80091da:	2e00      	cmp	r6, #0
 80091dc:	d1f0      	bne.n	80091c0 <_dtoa_r+0x338>
 80091de:	e9dd 2308 	ldrd	r2, r3, [sp, #32]
 80091e2:	e9dd 0100 	ldrd	r0, r1, [sp]
 80091e6:	f7f7 fb51 	bl	800088c <__aeabi_ddiv>
 80091ea:	e9cd 0100 	strd	r0, r1, [sp]
 80091ee:	e01a      	b.n	8009226 <_dtoa_r+0x39e>
 80091f0:	2502      	movs	r5, #2
 80091f2:	e7a3      	b.n	800913c <_dtoa_r+0x2b4>
 80091f4:	f000 80a0 	beq.w	8009338 <_dtoa_r+0x4b0>
 80091f8:	f1ca 0600 	rsb	r6, sl, #0
 80091fc:	4b9f      	ldr	r3, [pc, #636]	; (800947c <_dtoa_r+0x5f4>)
 80091fe:	4fa0      	ldr	r7, [pc, #640]	; (8009480 <_dtoa_r+0x5f8>)
 8009200:	f006 020f 	and.w	r2, r6, #15
 8009204:	eb03 03c2 	add.w	r3, r3, r2, lsl #3
 8009208:	e9d3 2300 	ldrd	r2, r3, [r3]
 800920c:	e9dd 0110 	ldrd	r0, r1, [sp, #64]	; 0x40
 8009210:	f7f7 fa12 	bl	8000638 <__aeabi_dmul>
 8009214:	e9cd 0100 	strd	r0, r1, [sp]
 8009218:	1136      	asrs	r6, r6, #4
 800921a:	2300      	movs	r3, #0
 800921c:	2502      	movs	r5, #2
 800921e:	2e00      	cmp	r6, #0
 8009220:	d17f      	bne.n	8009322 <_dtoa_r+0x49a>
 8009222:	2b00      	cmp	r3, #0
 8009224:	d1e1      	bne.n	80091ea <_dtoa_r+0x362>
 8009226:	9b0f      	ldr	r3, [sp, #60]	; 0x3c
 8009228:	2b00      	cmp	r3, #0
 800922a:	f000 8087 	beq.w	800933c <_dtoa_r+0x4b4>
 800922e:	e9dd 6700 	ldrd	r6, r7, [sp]
 8009232:	2200      	movs	r2, #0
 8009234:	4b93      	ldr	r3, [pc, #588]	; (8009484 <_dtoa_r+0x5fc>)
 8009236:	4630      	mov	r0, r6
 8009238:	4639      	mov	r1, r7
 800923a:	f7f7 fc6f 	bl	8000b1c <__aeabi_dcmplt>
 800923e:	2800      	cmp	r0, #0
 8009240:	d07c      	beq.n	800933c <_dtoa_r+0x4b4>
 8009242:	f1b9 0f00 	cmp.w	r9, #0
 8009246:	d079      	beq.n	800933c <_dtoa_r+0x4b4>
 8009248:	9b02      	ldr	r3, [sp, #8]
 800924a:	2b00      	cmp	r3, #0
 800924c:	dd35      	ble.n	80092ba <_dtoa_r+0x432>
 800924e:	f10a 33ff 	add.w	r3, sl, #4294967295
 8009252:	9308      	str	r3, [sp, #32]
 8009254:	4639      	mov	r1, r7
 8009256:	2200      	movs	r2, #0
 8009258:	4b8b      	ldr	r3, [pc, #556]	; (8009488 <_dtoa_r+0x600>)
 800925a:	4630      	mov	r0, r6
 800925c:	f7f7 f9ec 	bl	8000638 <__aeabi_dmul>
 8009260:	e9cd 0100 	strd	r0, r1, [sp]
 8009264:	9f02      	ldr	r7, [sp, #8]
 8009266:	3501      	adds	r5, #1
 8009268:	4628      	mov	r0, r5
 800926a:	f7f7 f97b 	bl	8000564 <__aeabi_i2d>
 800926e:	e9dd 2300 	ldrd	r2, r3, [sp]
 8009272:	f7f7 f9e1 	bl	8000638 <__aeabi_dmul>
 8009276:	2200      	movs	r2, #0
 8009278:	4b84      	ldr	r3, [pc, #528]	; (800948c <_dtoa_r+0x604>)
 800927a:	f7f7 f827 	bl	80002cc <__adddf3>
 800927e:	4605      	mov	r5, r0
 8009280:	f1a1 7650 	sub.w	r6, r1, #54525952	; 0x3400000
 8009284:	2f00      	cmp	r7, #0
 8009286:	d15d      	bne.n	8009344 <_dtoa_r+0x4bc>
 8009288:	2200      	movs	r2, #0
 800928a:	4b81      	ldr	r3, [pc, #516]	; (8009490 <_dtoa_r+0x608>)
 800928c:	e9dd 0100 	ldrd	r0, r1, [sp]
 8009290:	f7f7 f81a 	bl	80002c8 <__aeabi_dsub>
 8009294:	462a      	mov	r2, r5
 8009296:	4633      	mov	r3, r6
 8009298:	e9cd 0100 	strd	r0, r1, [sp]
 800929c:	f7f7 fc5c 	bl	8000b58 <__aeabi_dcmpgt>
 80092a0:	2800      	cmp	r0, #0
 80092a2:	f040 8288 	bne.w	80097b6 <_dtoa_r+0x92e>
 80092a6:	462a      	mov	r2, r5
 80092a8:	f106 4300 	add.w	r3, r6, #2147483648	; 0x80000000
 80092ac:	e9dd 0100 	ldrd	r0, r1, [sp]
 80092b0:	f7f7 fc34 	bl	8000b1c <__aeabi_dcmplt>
 80092b4:	2800      	cmp	r0, #0
 80092b6:	f040 827c 	bne.w	80097b2 <_dtoa_r+0x92a>
 80092ba:	e9dd 2310 	ldrd	r2, r3, [sp, #64]	; 0x40
 80092be:	e9cd 2300 	strd	r2, r3, [sp]
 80092c2:	9b15      	ldr	r3, [sp, #84]	; 0x54
 80092c4:	2b00      	cmp	r3, #0
 80092c6:	f2c0 8150 	blt.w	800956a <_dtoa_r+0x6e2>
 80092ca:	f1ba 0f0e 	cmp.w	sl, #14
 80092ce:	f300 814c 	bgt.w	800956a <_dtoa_r+0x6e2>
 80092d2:	4b6a      	ldr	r3, [pc, #424]	; (800947c <_dtoa_r+0x5f4>)
 80092d4:	eb03 03ca 	add.w	r3, r3, sl, lsl #3
 80092d8:	ed93 7b00 	vldr	d7, [r3]
 80092dc:	9b0b      	ldr	r3, [sp, #44]	; 0x2c
 80092de:	2b00      	cmp	r3, #0
 80092e0:	ed8d 7b02 	vstr	d7, [sp, #8]
 80092e4:	f280 80d8 	bge.w	8009498 <_dtoa_r+0x610>
 80092e8:	f1b9 0f00 	cmp.w	r9, #0
 80092ec:	f300 80d4 	bgt.w	8009498 <_dtoa_r+0x610>
 80092f0:	f040 825e 	bne.w	80097b0 <_dtoa_r+0x928>
 80092f4:	2200      	movs	r2, #0
 80092f6:	4b66      	ldr	r3, [pc, #408]	; (8009490 <_dtoa_r+0x608>)
 80092f8:	ec51 0b17 	vmov	r0, r1, d7
 80092fc:	f7f7 f99c 	bl	8000638 <__aeabi_dmul>
 8009300:	e9dd 2300 	ldrd	r2, r3, [sp]
 8009304:	f7f7 fc1e 	bl	8000b44 <__aeabi_dcmpge>
 8009308:	464f      	mov	r7, r9
 800930a:	464e      	mov	r6, r9
 800930c:	2800      	cmp	r0, #0
 800930e:	f040 8234 	bne.w	800977a <_dtoa_r+0x8f2>
 8009312:	2331      	movs	r3, #49	; 0x31
 8009314:	f10b 0501 	add.w	r5, fp, #1
 8009318:	f88b 3000 	strb.w	r3, [fp]
 800931c:	f10a 0a01 	add.w	sl, sl, #1
 8009320:	e22f      	b.n	8009782 <_dtoa_r+0x8fa>
 8009322:	07f2      	lsls	r2, r6, #31
 8009324:	d505      	bpl.n	8009332 <_dtoa_r+0x4aa>
 8009326:	e9d7 2300 	ldrd	r2, r3, [r7]
 800932a:	f7f7 f985 	bl	8000638 <__aeabi_dmul>
 800932e:	3501      	adds	r5, #1
 8009330:	2301      	movs	r3, #1
 8009332:	1076      	asrs	r6, r6, #1
 8009334:	3708      	adds	r7, #8
 8009336:	e772      	b.n	800921e <_dtoa_r+0x396>
 8009338:	2502      	movs	r5, #2
 800933a:	e774      	b.n	8009226 <_dtoa_r+0x39e>
 800933c:	f8cd a020 	str.w	sl, [sp, #32]
 8009340:	464f      	mov	r7, r9
 8009342:	e791      	b.n	8009268 <_dtoa_r+0x3e0>
 8009344:	4b4d      	ldr	r3, [pc, #308]	; (800947c <_dtoa_r+0x5f4>)
 8009346:	eb03 03c7 	add.w	r3, r3, r7, lsl #3
 800934a:	e953 0102 	ldrd	r0, r1, [r3, #-8]
 800934e:	9b0a      	ldr	r3, [sp, #40]	; 0x28
 8009350:	2b00      	cmp	r3, #0
 8009352:	d047      	beq.n	80093e4 <_dtoa_r+0x55c>
 8009354:	4602      	mov	r2, r0
 8009356:	460b      	mov	r3, r1
 8009358:	2000      	movs	r0, #0
 800935a:	494e      	ldr	r1, [pc, #312]	; (8009494 <_dtoa_r+0x60c>)
 800935c:	f7f7 fa96 	bl	800088c <__aeabi_ddiv>
 8009360:	462a      	mov	r2, r5
 8009362:	4633      	mov	r3, r6
 8009364:	f7f6 ffb0 	bl	80002c8 <__aeabi_dsub>
 8009368:	e9cd 010c 	strd	r0, r1, [sp, #48]	; 0x30
 800936c:	465d      	mov	r5, fp
 800936e:	e9dd 0100 	ldrd	r0, r1, [sp]
 8009372:	f7f7 fc11 	bl	8000b98 <__aeabi_d2iz>
 8009376:	4606      	mov	r6, r0
 8009378:	f7f7 f8f4 	bl	8000564 <__aeabi_i2d>
 800937c:	4602      	mov	r2, r0
 800937e:	460b      	mov	r3, r1
 8009380:	e9dd 0100 	ldrd	r0, r1, [sp]
 8009384:	f7f6 ffa0 	bl	80002c8 <__aeabi_dsub>
 8009388:	3630      	adds	r6, #48	; 0x30
 800938a:	f805 6b01 	strb.w	r6, [r5], #1
 800938e:	e9dd 230c 	ldrd	r2, r3, [sp, #48]	; 0x30
 8009392:	e9cd 0100 	strd	r0, r1, [sp]
 8009396:	f7f7 fbc1 	bl	8000b1c <__aeabi_dcmplt>
 800939a:	2800      	cmp	r0, #0
 800939c:	d163      	bne.n	8009466 <_dtoa_r+0x5de>
 800939e:	e9dd 2300 	ldrd	r2, r3, [sp]
 80093a2:	2000      	movs	r0, #0
 80093a4:	4937      	ldr	r1, [pc, #220]	; (8009484 <_dtoa_r+0x5fc>)
 80093a6:	f7f6 ff8f 	bl	80002c8 <__aeabi_dsub>
 80093aa:	e9dd 230c 	ldrd	r2, r3, [sp, #48]	; 0x30
 80093ae:	f7f7 fbb5 	bl	8000b1c <__aeabi_dcmplt>
 80093b2:	2800      	cmp	r0, #0
 80093b4:	f040 80b7 	bne.w	8009526 <_dtoa_r+0x69e>
 80093b8:	eba5 030b 	sub.w	r3, r5, fp
 80093bc:	429f      	cmp	r7, r3
 80093be:	f77f af7c 	ble.w	80092ba <_dtoa_r+0x432>
 80093c2:	2200      	movs	r2, #0
 80093c4:	4b30      	ldr	r3, [pc, #192]	; (8009488 <_dtoa_r+0x600>)
 80093c6:	e9dd 010c 	ldrd	r0, r1, [sp, #48]	; 0x30
 80093ca:	f7f7 f935 	bl	8000638 <__aeabi_dmul>
 80093ce:	2200      	movs	r2, #0
 80093d0:	e9cd 010c 	strd	r0, r1, [sp, #48]	; 0x30
 80093d4:	4b2c      	ldr	r3, [pc, #176]	; (8009488 <_dtoa_r+0x600>)
 80093d6:	e9dd 0100 	ldrd	r0, r1, [sp]
 80093da:	f7f7 f92d 	bl	8000638 <__aeabi_dmul>
 80093de:	e9cd 0100 	strd	r0, r1, [sp]
 80093e2:	e7c4      	b.n	800936e <_dtoa_r+0x4e6>
 80093e4:	462a      	mov	r2, r5
 80093e6:	4633      	mov	r3, r6
 80093e8:	f7f7 f926 	bl	8000638 <__aeabi_dmul>
 80093ec:	e9cd 010c 	strd	r0, r1, [sp, #48]	; 0x30
 80093f0:	eb0b 0507 	add.w	r5, fp, r7
 80093f4:	465e      	mov	r6, fp
 80093f6:	e9dd 0100 	ldrd	r0, r1, [sp]
 80093fa:	f7f7 fbcd 	bl	8000b98 <__aeabi_d2iz>
 80093fe:	4607      	mov	r7, r0
 8009400:	f7f7 f8b0 	bl	8000564 <__aeabi_i2d>
 8009404:	3730      	adds	r7, #48	; 0x30
 8009406:	4602      	mov	r2, r0
 8009408:	460b      	mov	r3, r1
 800940a:	e9dd 0100 	ldrd	r0, r1, [sp]
 800940e:	f7f6 ff5b 	bl	80002c8 <__aeabi_dsub>
 8009412:	f806 7b01 	strb.w	r7, [r6], #1
 8009416:	42ae      	cmp	r6, r5
 8009418:	e9cd 0100 	strd	r0, r1, [sp]
 800941c:	f04f 0200 	mov.w	r2, #0
 8009420:	d126      	bne.n	8009470 <_dtoa_r+0x5e8>
 8009422:	4b1c      	ldr	r3, [pc, #112]	; (8009494 <_dtoa_r+0x60c>)
 8009424:	e9dd 010c 	ldrd	r0, r1, [sp, #48]	; 0x30
 8009428:	f7f6 ff50 	bl	80002cc <__adddf3>
 800942c:	4602      	mov	r2, r0
 800942e:	460b      	mov	r3, r1
 8009430:	e9dd 0100 	ldrd	r0, r1, [sp]
 8009434:	f7f7 fb90 	bl	8000b58 <__aeabi_dcmpgt>
 8009438:	2800      	cmp	r0, #0
 800943a:	d174      	bne.n	8009526 <_dtoa_r+0x69e>
 800943c:	e9dd 230c 	ldrd	r2, r3, [sp, #48]	; 0x30
 8009440:	2000      	movs	r0, #0
 8009442:	4914      	ldr	r1, [pc, #80]	; (8009494 <_dtoa_r+0x60c>)
 8009444:	f7f6 ff40 	bl	80002c8 <__aeabi_dsub>
 8009448:	4602      	mov	r2, r0
 800944a:	460b      	mov	r3, r1
 800944c:	e9dd 0100 	ldrd	r0, r1, [sp]
 8009450:	f7f7 fb64 	bl	8000b1c <__aeabi_dcmplt>
 8009454:	2800      	cmp	r0, #0
 8009456:	f43f af30 	beq.w	80092ba <_dtoa_r+0x432>
 800945a:	f815 3c01 	ldrb.w	r3, [r5, #-1]
 800945e:	2b30      	cmp	r3, #48	; 0x30
 8009460:	f105 32ff 	add.w	r2, r5, #4294967295
 8009464:	d002      	beq.n	800946c <_dtoa_r+0x5e4>
 8009466:	f8dd a020 	ldr.w	sl, [sp, #32]
 800946a:	e04a      	b.n	8009502 <_dtoa_r+0x67a>
 800946c:	4615      	mov	r5, r2
 800946e:	e7f4      	b.n	800945a <_dtoa_r+0x5d2>
 8009470:	4b05      	ldr	r3, [pc, #20]	; (8009488 <_dtoa_r+0x600>)
 8009472:	f7f7 f8e1 	bl	8000638 <__aeabi_dmul>
 8009476:	e9cd 0100 	strd	r0, r1, [sp]
 800947a:	e7bc      	b.n	80093f6 <_dtoa_r+0x56e>
 800947c:	0800a7a8 	.word	0x0800a7a8
 8009480:	0800a780 	.word	0x0800a780
 8009484:	3ff00000 	.word	0x3ff00000
 8009488:	40240000 	.word	0x40240000
 800948c:	401c0000 	.word	0x401c0000
 8009490:	40140000 	.word	0x40140000
 8009494:	3fe00000 	.word	0x3fe00000
 8009498:	e9dd 6700 	ldrd	r6, r7, [sp]
 800949c:	465d      	mov	r5, fp
 800949e:	e9dd 2302 	ldrd	r2, r3, [sp, #8]
 80094a2:	4630      	mov	r0, r6
 80094a4:	4639      	mov	r1, r7
 80094a6:	f7f7 f9f1 	bl	800088c <__aeabi_ddiv>
 80094aa:	f7f7 fb75 	bl	8000b98 <__aeabi_d2iz>
 80094ae:	4680      	mov	r8, r0
 80094b0:	f7f7 f858 	bl	8000564 <__aeabi_i2d>
 80094b4:	e9dd 2302 	ldrd	r2, r3, [sp, #8]
 80094b8:	f7f7 f8be 	bl	8000638 <__aeabi_dmul>
 80094bc:	4602      	mov	r2, r0
 80094be:	460b      	mov	r3, r1
 80094c0:	4630      	mov	r0, r6
 80094c2:	4639      	mov	r1, r7
 80094c4:	f108 0630 	add.w	r6, r8, #48	; 0x30
 80094c8:	f7f6 fefe 	bl	80002c8 <__aeabi_dsub>
 80094cc:	f805 6b01 	strb.w	r6, [r5], #1
 80094d0:	eba5 060b 	sub.w	r6, r5, fp
 80094d4:	45b1      	cmp	r9, r6
 80094d6:	4602      	mov	r2, r0
 80094d8:	460b      	mov	r3, r1
 80094da:	d139      	bne.n	8009550 <_dtoa_r+0x6c8>
 80094dc:	f7f6 fef6 	bl	80002cc <__adddf3>
 80094e0:	e9dd 2302 	ldrd	r2, r3, [sp, #8]
 80094e4:	4606      	mov	r6, r0
 80094e6:	460f      	mov	r7, r1
 80094e8:	f7f7 fb36 	bl	8000b58 <__aeabi_dcmpgt>
 80094ec:	b9c8      	cbnz	r0, 8009522 <_dtoa_r+0x69a>
 80094ee:	e9dd 2302 	ldrd	r2, r3, [sp, #8]
 80094f2:	4630      	mov	r0, r6
 80094f4:	4639      	mov	r1, r7
 80094f6:	f7f7 fb07 	bl	8000b08 <__aeabi_dcmpeq>
 80094fa:	b110      	cbz	r0, 8009502 <_dtoa_r+0x67a>
 80094fc:	f018 0f01 	tst.w	r8, #1
 8009500:	d10f      	bne.n	8009522 <_dtoa_r+0x69a>
 8009502:	9904      	ldr	r1, [sp, #16]
 8009504:	4620      	mov	r0, r4
 8009506:	f000 facc 	bl	8009aa2 <_Bfree>
 800950a:	2300      	movs	r3, #0
 800950c:	9a12      	ldr	r2, [sp, #72]	; 0x48
 800950e:	702b      	strb	r3, [r5, #0]
 8009510:	f10a 0301 	add.w	r3, sl, #1
 8009514:	6013      	str	r3, [r2, #0]
 8009516:	9b21      	ldr	r3, [sp, #132]	; 0x84
 8009518:	2b00      	cmp	r3, #0
 800951a:	f000 8241 	beq.w	80099a0 <_dtoa_r+0xb18>
 800951e:	601d      	str	r5, [r3, #0]
 8009520:	e23e      	b.n	80099a0 <_dtoa_r+0xb18>
 8009522:	f8cd a020 	str.w	sl, [sp, #32]
 8009526:	f815 2c01 	ldrb.w	r2, [r5, #-1]
 800952a:	2a39      	cmp	r2, #57	; 0x39
 800952c:	f105 33ff 	add.w	r3, r5, #4294967295
 8009530:	d108      	bne.n	8009544 <_dtoa_r+0x6bc>
 8009532:	459b      	cmp	fp, r3
 8009534:	d10a      	bne.n	800954c <_dtoa_r+0x6c4>
 8009536:	9b08      	ldr	r3, [sp, #32]
 8009538:	3301      	adds	r3, #1
 800953a:	9308      	str	r3, [sp, #32]
 800953c:	2330      	movs	r3, #48	; 0x30
 800953e:	f88b 3000 	strb.w	r3, [fp]
 8009542:	465b      	mov	r3, fp
 8009544:	781a      	ldrb	r2, [r3, #0]
 8009546:	3201      	adds	r2, #1
 8009548:	701a      	strb	r2, [r3, #0]
 800954a:	e78c      	b.n	8009466 <_dtoa_r+0x5de>
 800954c:	461d      	mov	r5, r3
 800954e:	e7ea      	b.n	8009526 <_dtoa_r+0x69e>
 8009550:	2200      	movs	r2, #0
 8009552:	4b9b      	ldr	r3, [pc, #620]	; (80097c0 <_dtoa_r+0x938>)
 8009554:	f7f7 f870 	bl	8000638 <__aeabi_dmul>
 8009558:	2200      	movs	r2, #0
 800955a:	2300      	movs	r3, #0
 800955c:	4606      	mov	r6, r0
 800955e:	460f      	mov	r7, r1
 8009560:	f7f7 fad2 	bl	8000b08 <__aeabi_dcmpeq>
 8009564:	2800      	cmp	r0, #0
 8009566:	d09a      	beq.n	800949e <_dtoa_r+0x616>
 8009568:	e7cb      	b.n	8009502 <_dtoa_r+0x67a>
 800956a:	9a0a      	ldr	r2, [sp, #40]	; 0x28
 800956c:	2a00      	cmp	r2, #0
 800956e:	f000 808b 	beq.w	8009688 <_dtoa_r+0x800>
 8009572:	9a06      	ldr	r2, [sp, #24]
 8009574:	2a01      	cmp	r2, #1
 8009576:	dc6e      	bgt.n	8009656 <_dtoa_r+0x7ce>
 8009578:	9a13      	ldr	r2, [sp, #76]	; 0x4c
 800957a:	2a00      	cmp	r2, #0
 800957c:	d067      	beq.n	800964e <_dtoa_r+0x7c6>
 800957e:	f203 4333 	addw	r3, r3, #1075	; 0x433
 8009582:	9f07      	ldr	r7, [sp, #28]
 8009584:	9d05      	ldr	r5, [sp, #20]
 8009586:	9a05      	ldr	r2, [sp, #20]
 8009588:	2101      	movs	r1, #1
 800958a:	441a      	add	r2, r3
 800958c:	4620      	mov	r0, r4
 800958e:	9205      	str	r2, [sp, #20]
 8009590:	4498      	add	r8, r3
 8009592:	f000 fb26 	bl	8009be2 <__i2b>
 8009596:	4606      	mov	r6, r0
 8009598:	2d00      	cmp	r5, #0
 800959a:	dd0c      	ble.n	80095b6 <_dtoa_r+0x72e>
 800959c:	f1b8 0f00 	cmp.w	r8, #0
 80095a0:	dd09      	ble.n	80095b6 <_dtoa_r+0x72e>
 80095a2:	4545      	cmp	r5, r8
 80095a4:	9a05      	ldr	r2, [sp, #20]
 80095a6:	462b      	mov	r3, r5
 80095a8:	bfa8      	it	ge
 80095aa:	4643      	movge	r3, r8
 80095ac:	1ad2      	subs	r2, r2, r3
 80095ae:	9205      	str	r2, [sp, #20]
 80095b0:	1aed      	subs	r5, r5, r3
 80095b2:	eba8 0803 	sub.w	r8, r8, r3
 80095b6:	9b07      	ldr	r3, [sp, #28]
 80095b8:	b1eb      	cbz	r3, 80095f6 <_dtoa_r+0x76e>
 80095ba:	9b0a      	ldr	r3, [sp, #40]	; 0x28
 80095bc:	2b00      	cmp	r3, #0
 80095be:	d067      	beq.n	8009690 <_dtoa_r+0x808>
 80095c0:	b18f      	cbz	r7, 80095e6 <_dtoa_r+0x75e>
 80095c2:	4631      	mov	r1, r6
 80095c4:	463a      	mov	r2, r7
 80095c6:	4620      	mov	r0, r4
 80095c8:	f000 fbaa 	bl	8009d20 <__pow5mult>
 80095cc:	9a04      	ldr	r2, [sp, #16]
 80095ce:	4601      	mov	r1, r0
 80095d0:	4606      	mov	r6, r0
 80095d2:	4620      	mov	r0, r4
 80095d4:	f000 fb0e 	bl	8009bf4 <__multiply>
 80095d8:	9904      	ldr	r1, [sp, #16]
 80095da:	9008      	str	r0, [sp, #32]
 80095dc:	4620      	mov	r0, r4
 80095de:	f000 fa60 	bl	8009aa2 <_Bfree>
 80095e2:	9b08      	ldr	r3, [sp, #32]
 80095e4:	9304      	str	r3, [sp, #16]
 80095e6:	9b07      	ldr	r3, [sp, #28]
 80095e8:	1bda      	subs	r2, r3, r7
 80095ea:	d004      	beq.n	80095f6 <_dtoa_r+0x76e>
 80095ec:	9904      	ldr	r1, [sp, #16]
 80095ee:	4620      	mov	r0, r4
 80095f0:	f000 fb96 	bl	8009d20 <__pow5mult>
 80095f4:	9004      	str	r0, [sp, #16]
 80095f6:	2101      	movs	r1, #1
 80095f8:	4620      	mov	r0, r4
 80095fa:	f000 faf2 	bl	8009be2 <__i2b>
 80095fe:	9b0e      	ldr	r3, [sp, #56]	; 0x38
 8009600:	4607      	mov	r7, r0
 8009602:	2b00      	cmp	r3, #0
 8009604:	f000 81d0 	beq.w	80099a8 <_dtoa_r+0xb20>
 8009608:	461a      	mov	r2, r3
 800960a:	4601      	mov	r1, r0
 800960c:	4620      	mov	r0, r4
 800960e:	f000 fb87 	bl	8009d20 <__pow5mult>
 8009612:	9b06      	ldr	r3, [sp, #24]
 8009614:	2b01      	cmp	r3, #1
 8009616:	4607      	mov	r7, r0
 8009618:	dc40      	bgt.n	800969c <_dtoa_r+0x814>
 800961a:	9b00      	ldr	r3, [sp, #0]
 800961c:	2b00      	cmp	r3, #0
 800961e:	d139      	bne.n	8009694 <_dtoa_r+0x80c>
 8009620:	9b01      	ldr	r3, [sp, #4]
 8009622:	f3c3 0313 	ubfx	r3, r3, #0, #20
 8009626:	2b00      	cmp	r3, #0
 8009628:	d136      	bne.n	8009698 <_dtoa_r+0x810>
 800962a:	9b01      	ldr	r3, [sp, #4]
 800962c:	f023 4300 	bic.w	r3, r3, #2147483648	; 0x80000000
 8009630:	0d1b      	lsrs	r3, r3, #20
 8009632:	051b      	lsls	r3, r3, #20
 8009634:	b12b      	cbz	r3, 8009642 <_dtoa_r+0x7ba>
 8009636:	9b05      	ldr	r3, [sp, #20]
 8009638:	3301      	adds	r3, #1
 800963a:	9305      	str	r3, [sp, #20]
 800963c:	f108 0801 	add.w	r8, r8, #1
 8009640:	2301      	movs	r3, #1
 8009642:	9307      	str	r3, [sp, #28]
 8009644:	9b0e      	ldr	r3, [sp, #56]	; 0x38
 8009646:	2b00      	cmp	r3, #0
 8009648:	d12a      	bne.n	80096a0 <_dtoa_r+0x818>
 800964a:	2001      	movs	r0, #1
 800964c:	e030      	b.n	80096b0 <_dtoa_r+0x828>
 800964e:	9b14      	ldr	r3, [sp, #80]	; 0x50
 8009650:	f1c3 0336 	rsb	r3, r3, #54	; 0x36
 8009654:	e795      	b.n	8009582 <_dtoa_r+0x6fa>
 8009656:	9b07      	ldr	r3, [sp, #28]
 8009658:	f109 37ff 	add.w	r7, r9, #4294967295
 800965c:	42bb      	cmp	r3, r7
 800965e:	bfbf      	itttt	lt
 8009660:	9b07      	ldrlt	r3, [sp, #28]
 8009662:	9707      	strlt	r7, [sp, #28]
 8009664:	1afa      	sublt	r2, r7, r3
 8009666:	9b0e      	ldrlt	r3, [sp, #56]	; 0x38
 8009668:	bfbb      	ittet	lt
 800966a:	189b      	addlt	r3, r3, r2
 800966c:	930e      	strlt	r3, [sp, #56]	; 0x38
 800966e:	1bdf      	subge	r7, r3, r7
 8009670:	2700      	movlt	r7, #0
 8009672:	f1b9 0f00 	cmp.w	r9, #0
 8009676:	bfb5      	itete	lt
 8009678:	9b05      	ldrlt	r3, [sp, #20]
 800967a:	9d05      	ldrge	r5, [sp, #20]
 800967c:	eba3 0509 	sublt.w	r5, r3, r9
 8009680:	464b      	movge	r3, r9
 8009682:	bfb8      	it	lt
 8009684:	2300      	movlt	r3, #0
 8009686:	e77e      	b.n	8009586 <_dtoa_r+0x6fe>
 8009688:	9f07      	ldr	r7, [sp, #28]
 800968a:	9d05      	ldr	r5, [sp, #20]
 800968c:	9e0a      	ldr	r6, [sp, #40]	; 0x28
 800968e:	e783      	b.n	8009598 <_dtoa_r+0x710>
 8009690:	9a07      	ldr	r2, [sp, #28]
 8009692:	e7ab      	b.n	80095ec <_dtoa_r+0x764>
 8009694:	2300      	movs	r3, #0
 8009696:	e7d4      	b.n	8009642 <_dtoa_r+0x7ba>
 8009698:	9b00      	ldr	r3, [sp, #0]
 800969a:	e7d2      	b.n	8009642 <_dtoa_r+0x7ba>
 800969c:	2300      	movs	r3, #0
 800969e:	9307      	str	r3, [sp, #28]
 80096a0:	693b      	ldr	r3, [r7, #16]
 80096a2:	eb07 0383 	add.w	r3, r7, r3, lsl #2
 80096a6:	6918      	ldr	r0, [r3, #16]
 80096a8:	f000 fa4d 	bl	8009b46 <__hi0bits>
 80096ac:	f1c0 0020 	rsb	r0, r0, #32
 80096b0:	4440      	add	r0, r8
 80096b2:	f010 001f 	ands.w	r0, r0, #31
 80096b6:	d047      	beq.n	8009748 <_dtoa_r+0x8c0>
 80096b8:	f1c0 0320 	rsb	r3, r0, #32
 80096bc:	2b04      	cmp	r3, #4
 80096be:	dd3b      	ble.n	8009738 <_dtoa_r+0x8b0>
 80096c0:	9b05      	ldr	r3, [sp, #20]
 80096c2:	f1c0 001c 	rsb	r0, r0, #28
 80096c6:	4403      	add	r3, r0
 80096c8:	9305      	str	r3, [sp, #20]
 80096ca:	4405      	add	r5, r0
 80096cc:	4480      	add	r8, r0
 80096ce:	9b05      	ldr	r3, [sp, #20]
 80096d0:	2b00      	cmp	r3, #0
 80096d2:	dd05      	ble.n	80096e0 <_dtoa_r+0x858>
 80096d4:	461a      	mov	r2, r3
 80096d6:	9904      	ldr	r1, [sp, #16]
 80096d8:	4620      	mov	r0, r4
 80096da:	f000 fb6f 	bl	8009dbc <__lshift>
 80096de:	9004      	str	r0, [sp, #16]
 80096e0:	f1b8 0f00 	cmp.w	r8, #0
 80096e4:	dd05      	ble.n	80096f2 <_dtoa_r+0x86a>
 80096e6:	4639      	mov	r1, r7
 80096e8:	4642      	mov	r2, r8
 80096ea:	4620      	mov	r0, r4
 80096ec:	f000 fb66 	bl	8009dbc <__lshift>
 80096f0:	4607      	mov	r7, r0
 80096f2:	9b0f      	ldr	r3, [sp, #60]	; 0x3c
 80096f4:	b353      	cbz	r3, 800974c <_dtoa_r+0x8c4>
 80096f6:	4639      	mov	r1, r7
 80096f8:	9804      	ldr	r0, [sp, #16]
 80096fa:	f000 fbb3 	bl	8009e64 <__mcmp>
 80096fe:	2800      	cmp	r0, #0
 8009700:	da24      	bge.n	800974c <_dtoa_r+0x8c4>
 8009702:	2300      	movs	r3, #0
 8009704:	220a      	movs	r2, #10
 8009706:	9904      	ldr	r1, [sp, #16]
 8009708:	4620      	mov	r0, r4
 800970a:	f000 f9e1 	bl	8009ad0 <__multadd>
 800970e:	9b0a      	ldr	r3, [sp, #40]	; 0x28
 8009710:	9004      	str	r0, [sp, #16]
 8009712:	f10a 3aff 	add.w	sl, sl, #4294967295
 8009716:	2b00      	cmp	r3, #0
 8009718:	f000 814d 	beq.w	80099b6 <_dtoa_r+0xb2e>
 800971c:	2300      	movs	r3, #0
 800971e:	4631      	mov	r1, r6
 8009720:	220a      	movs	r2, #10
 8009722:	4620      	mov	r0, r4
 8009724:	f000 f9d4 	bl	8009ad0 <__multadd>
 8009728:	9b02      	ldr	r3, [sp, #8]
 800972a:	2b00      	cmp	r3, #0
 800972c:	4606      	mov	r6, r0
 800972e:	dc4f      	bgt.n	80097d0 <_dtoa_r+0x948>
 8009730:	9b06      	ldr	r3, [sp, #24]
 8009732:	2b02      	cmp	r3, #2
 8009734:	dd4c      	ble.n	80097d0 <_dtoa_r+0x948>
 8009736:	e011      	b.n	800975c <_dtoa_r+0x8d4>
 8009738:	d0c9      	beq.n	80096ce <_dtoa_r+0x846>
 800973a:	9a05      	ldr	r2, [sp, #20]
 800973c:	331c      	adds	r3, #28
 800973e:	441a      	add	r2, r3
 8009740:	9205      	str	r2, [sp, #20]
 8009742:	441d      	add	r5, r3
 8009744:	4498      	add	r8, r3
 8009746:	e7c2      	b.n	80096ce <_dtoa_r+0x846>
 8009748:	4603      	mov	r3, r0
 800974a:	e7f6      	b.n	800973a <_dtoa_r+0x8b2>
 800974c:	f1b9 0f00 	cmp.w	r9, #0
 8009750:	dc38      	bgt.n	80097c4 <_dtoa_r+0x93c>
 8009752:	9b06      	ldr	r3, [sp, #24]
 8009754:	2b02      	cmp	r3, #2
 8009756:	dd35      	ble.n	80097c4 <_dtoa_r+0x93c>
 8009758:	f8cd 9008 	str.w	r9, [sp, #8]
 800975c:	9b02      	ldr	r3, [sp, #8]
 800975e:	b963      	cbnz	r3, 800977a <_dtoa_r+0x8f2>
 8009760:	4639      	mov	r1, r7
 8009762:	2205      	movs	r2, #5
 8009764:	4620      	mov	r0, r4
 8009766:	f000 f9b3 	bl	8009ad0 <__multadd>
 800976a:	4601      	mov	r1, r0
 800976c:	4607      	mov	r7, r0
 800976e:	9804      	ldr	r0, [sp, #16]
 8009770:	f000 fb78 	bl	8009e64 <__mcmp>
 8009774:	2800      	cmp	r0, #0
 8009776:	f73f adcc 	bgt.w	8009312 <_dtoa_r+0x48a>
 800977a:	9b0b      	ldr	r3, [sp, #44]	; 0x2c
 800977c:	465d      	mov	r5, fp
 800977e:	ea6f 0a03 	mvn.w	sl, r3
 8009782:	f04f 0900 	mov.w	r9, #0
 8009786:	4639      	mov	r1, r7
 8009788:	4620      	mov	r0, r4
 800978a:	f000 f98a 	bl	8009aa2 <_Bfree>
 800978e:	2e00      	cmp	r6, #0
 8009790:	f43f aeb7 	beq.w	8009502 <_dtoa_r+0x67a>
 8009794:	f1b9 0f00 	cmp.w	r9, #0
 8009798:	d005      	beq.n	80097a6 <_dtoa_r+0x91e>
 800979a:	45b1      	cmp	r9, r6
 800979c:	d003      	beq.n	80097a6 <_dtoa_r+0x91e>
 800979e:	4649      	mov	r1, r9
 80097a0:	4620      	mov	r0, r4
 80097a2:	f000 f97e 	bl	8009aa2 <_Bfree>
 80097a6:	4631      	mov	r1, r6
 80097a8:	4620      	mov	r0, r4
 80097aa:	f000 f97a 	bl	8009aa2 <_Bfree>
 80097ae:	e6a8      	b.n	8009502 <_dtoa_r+0x67a>
 80097b0:	2700      	movs	r7, #0
 80097b2:	463e      	mov	r6, r7
 80097b4:	e7e1      	b.n	800977a <_dtoa_r+0x8f2>
 80097b6:	f8dd a020 	ldr.w	sl, [sp, #32]
 80097ba:	463e      	mov	r6, r7
 80097bc:	e5a9      	b.n	8009312 <_dtoa_r+0x48a>
 80097be:	bf00      	nop
 80097c0:	40240000 	.word	0x40240000
 80097c4:	9b0a      	ldr	r3, [sp, #40]	; 0x28
 80097c6:	f8cd 9008 	str.w	r9, [sp, #8]
 80097ca:	2b00      	cmp	r3, #0
 80097cc:	f000 80fa 	beq.w	80099c4 <_dtoa_r+0xb3c>
 80097d0:	2d00      	cmp	r5, #0
 80097d2:	dd05      	ble.n	80097e0 <_dtoa_r+0x958>
 80097d4:	4631      	mov	r1, r6
 80097d6:	462a      	mov	r2, r5
 80097d8:	4620      	mov	r0, r4
 80097da:	f000 faef 	bl	8009dbc <__lshift>
 80097de:	4606      	mov	r6, r0
 80097e0:	9b07      	ldr	r3, [sp, #28]
 80097e2:	2b00      	cmp	r3, #0
 80097e4:	d04c      	beq.n	8009880 <_dtoa_r+0x9f8>
 80097e6:	6871      	ldr	r1, [r6, #4]
 80097e8:	4620      	mov	r0, r4
 80097ea:	f000 f926 	bl	8009a3a <_Balloc>
 80097ee:	6932      	ldr	r2, [r6, #16]
 80097f0:	3202      	adds	r2, #2
 80097f2:	4605      	mov	r5, r0
 80097f4:	0092      	lsls	r2, r2, #2
 80097f6:	f106 010c 	add.w	r1, r6, #12
 80097fa:	300c      	adds	r0, #12
 80097fc:	f000 f912 	bl	8009a24 <memcpy>
 8009800:	2201      	movs	r2, #1
 8009802:	4629      	mov	r1, r5
 8009804:	4620      	mov	r0, r4
 8009806:	f000 fad9 	bl	8009dbc <__lshift>
 800980a:	9b00      	ldr	r3, [sp, #0]
 800980c:	f8cd b014 	str.w	fp, [sp, #20]
 8009810:	f003 0301 	and.w	r3, r3, #1
 8009814:	46b1      	mov	r9, r6
 8009816:	9307      	str	r3, [sp, #28]
 8009818:	4606      	mov	r6, r0
 800981a:	4639      	mov	r1, r7
 800981c:	9804      	ldr	r0, [sp, #16]
 800981e:	f7ff faa5 	bl	8008d6c <quorem>
 8009822:	4649      	mov	r1, r9
 8009824:	4605      	mov	r5, r0
 8009826:	f100 0830 	add.w	r8, r0, #48	; 0x30
 800982a:	9804      	ldr	r0, [sp, #16]
 800982c:	f000 fb1a 	bl	8009e64 <__mcmp>
 8009830:	4632      	mov	r2, r6
 8009832:	9000      	str	r0, [sp, #0]
 8009834:	4639      	mov	r1, r7
 8009836:	4620      	mov	r0, r4
 8009838:	f000 fb2e 	bl	8009e98 <__mdiff>
 800983c:	68c3      	ldr	r3, [r0, #12]
 800983e:	4602      	mov	r2, r0
 8009840:	bb03      	cbnz	r3, 8009884 <_dtoa_r+0x9fc>
 8009842:	4601      	mov	r1, r0
 8009844:	9008      	str	r0, [sp, #32]
 8009846:	9804      	ldr	r0, [sp, #16]
 8009848:	f000 fb0c 	bl	8009e64 <__mcmp>
 800984c:	9a08      	ldr	r2, [sp, #32]
 800984e:	4603      	mov	r3, r0
 8009850:	4611      	mov	r1, r2
 8009852:	4620      	mov	r0, r4
 8009854:	9308      	str	r3, [sp, #32]
 8009856:	f000 f924 	bl	8009aa2 <_Bfree>
 800985a:	9b08      	ldr	r3, [sp, #32]
 800985c:	b9a3      	cbnz	r3, 8009888 <_dtoa_r+0xa00>
 800985e:	9a06      	ldr	r2, [sp, #24]
 8009860:	b992      	cbnz	r2, 8009888 <_dtoa_r+0xa00>
 8009862:	9a07      	ldr	r2, [sp, #28]
 8009864:	b982      	cbnz	r2, 8009888 <_dtoa_r+0xa00>
 8009866:	f1b8 0f39 	cmp.w	r8, #57	; 0x39
 800986a:	d029      	beq.n	80098c0 <_dtoa_r+0xa38>
 800986c:	9b00      	ldr	r3, [sp, #0]
 800986e:	2b00      	cmp	r3, #0
 8009870:	dd01      	ble.n	8009876 <_dtoa_r+0x9ee>
 8009872:	f105 0831 	add.w	r8, r5, #49	; 0x31
 8009876:	9b05      	ldr	r3, [sp, #20]
 8009878:	1c5d      	adds	r5, r3, #1
 800987a:	f883 8000 	strb.w	r8, [r3]
 800987e:	e782      	b.n	8009786 <_dtoa_r+0x8fe>
 8009880:	4630      	mov	r0, r6
 8009882:	e7c2      	b.n	800980a <_dtoa_r+0x982>
 8009884:	2301      	movs	r3, #1
 8009886:	e7e3      	b.n	8009850 <_dtoa_r+0x9c8>
 8009888:	9a00      	ldr	r2, [sp, #0]
 800988a:	2a00      	cmp	r2, #0
 800988c:	db04      	blt.n	8009898 <_dtoa_r+0xa10>
 800988e:	d125      	bne.n	80098dc <_dtoa_r+0xa54>
 8009890:	9a06      	ldr	r2, [sp, #24]
 8009892:	bb1a      	cbnz	r2, 80098dc <_dtoa_r+0xa54>
 8009894:	9a07      	ldr	r2, [sp, #28]
 8009896:	bb0a      	cbnz	r2, 80098dc <_dtoa_r+0xa54>
 8009898:	2b00      	cmp	r3, #0
 800989a:	ddec      	ble.n	8009876 <_dtoa_r+0x9ee>
 800989c:	2201      	movs	r2, #1
 800989e:	9904      	ldr	r1, [sp, #16]
 80098a0:	4620      	mov	r0, r4
 80098a2:	f000 fa8b 	bl	8009dbc <__lshift>
 80098a6:	4639      	mov	r1, r7
 80098a8:	9004      	str	r0, [sp, #16]
 80098aa:	f000 fadb 	bl	8009e64 <__mcmp>
 80098ae:	2800      	cmp	r0, #0
 80098b0:	dc03      	bgt.n	80098ba <_dtoa_r+0xa32>
 80098b2:	d1e0      	bne.n	8009876 <_dtoa_r+0x9ee>
 80098b4:	f018 0f01 	tst.w	r8, #1
 80098b8:	d0dd      	beq.n	8009876 <_dtoa_r+0x9ee>
 80098ba:	f1b8 0f39 	cmp.w	r8, #57	; 0x39
 80098be:	d1d8      	bne.n	8009872 <_dtoa_r+0x9ea>
 80098c0:	9b05      	ldr	r3, [sp, #20]
 80098c2:	9a05      	ldr	r2, [sp, #20]
 80098c4:	1c5d      	adds	r5, r3, #1
 80098c6:	2339      	movs	r3, #57	; 0x39
 80098c8:	7013      	strb	r3, [r2, #0]
 80098ca:	f815 3c01 	ldrb.w	r3, [r5, #-1]
 80098ce:	2b39      	cmp	r3, #57	; 0x39
 80098d0:	f105 32ff 	add.w	r2, r5, #4294967295
 80098d4:	d04f      	beq.n	8009976 <_dtoa_r+0xaee>
 80098d6:	3301      	adds	r3, #1
 80098d8:	7013      	strb	r3, [r2, #0]
 80098da:	e754      	b.n	8009786 <_dtoa_r+0x8fe>
 80098dc:	9a05      	ldr	r2, [sp, #20]
 80098de:	2b00      	cmp	r3, #0
 80098e0:	f102 0501 	add.w	r5, r2, #1
 80098e4:	dd06      	ble.n	80098f4 <_dtoa_r+0xa6c>
 80098e6:	f1b8 0f39 	cmp.w	r8, #57	; 0x39
 80098ea:	d0e9      	beq.n	80098c0 <_dtoa_r+0xa38>
 80098ec:	f108 0801 	add.w	r8, r8, #1
 80098f0:	9b05      	ldr	r3, [sp, #20]
 80098f2:	e7c2      	b.n	800987a <_dtoa_r+0x9f2>
 80098f4:	9a02      	ldr	r2, [sp, #8]
 80098f6:	f805 8c01 	strb.w	r8, [r5, #-1]
 80098fa:	eba5 030b 	sub.w	r3, r5, fp
 80098fe:	4293      	cmp	r3, r2
 8009900:	d021      	beq.n	8009946 <_dtoa_r+0xabe>
 8009902:	2300      	movs	r3, #0
 8009904:	220a      	movs	r2, #10
 8009906:	9904      	ldr	r1, [sp, #16]
 8009908:	4620      	mov	r0, r4
 800990a:	f000 f8e1 	bl	8009ad0 <__multadd>
 800990e:	45b1      	cmp	r9, r6
 8009910:	9004      	str	r0, [sp, #16]
 8009912:	f04f 0300 	mov.w	r3, #0
 8009916:	f04f 020a 	mov.w	r2, #10
 800991a:	4649      	mov	r1, r9
 800991c:	4620      	mov	r0, r4
 800991e:	d105      	bne.n	800992c <_dtoa_r+0xaa4>
 8009920:	f000 f8d6 	bl	8009ad0 <__multadd>
 8009924:	4681      	mov	r9, r0
 8009926:	4606      	mov	r6, r0
 8009928:	9505      	str	r5, [sp, #20]
 800992a:	e776      	b.n	800981a <_dtoa_r+0x992>
 800992c:	f000 f8d0 	bl	8009ad0 <__multadd>
 8009930:	4631      	mov	r1, r6
 8009932:	4681      	mov	r9, r0
 8009934:	2300      	movs	r3, #0
 8009936:	220a      	movs	r2, #10
 8009938:	4620      	mov	r0, r4
 800993a:	f000 f8c9 	bl	8009ad0 <__multadd>
 800993e:	4606      	mov	r6, r0
 8009940:	e7f2      	b.n	8009928 <_dtoa_r+0xaa0>
 8009942:	f04f 0900 	mov.w	r9, #0
 8009946:	2201      	movs	r2, #1
 8009948:	9904      	ldr	r1, [sp, #16]
 800994a:	4620      	mov	r0, r4
 800994c:	f000 fa36 	bl	8009dbc <__lshift>
 8009950:	4639      	mov	r1, r7
 8009952:	9004      	str	r0, [sp, #16]
 8009954:	f000 fa86 	bl	8009e64 <__mcmp>
 8009958:	2800      	cmp	r0, #0
 800995a:	dcb6      	bgt.n	80098ca <_dtoa_r+0xa42>
 800995c:	d102      	bne.n	8009964 <_dtoa_r+0xadc>
 800995e:	f018 0f01 	tst.w	r8, #1
 8009962:	d1b2      	bne.n	80098ca <_dtoa_r+0xa42>
 8009964:	f815 3c01 	ldrb.w	r3, [r5, #-1]
 8009968:	2b30      	cmp	r3, #48	; 0x30
 800996a:	f105 32ff 	add.w	r2, r5, #4294967295
 800996e:	f47f af0a 	bne.w	8009786 <_dtoa_r+0x8fe>
 8009972:	4615      	mov	r5, r2
 8009974:	e7f6      	b.n	8009964 <_dtoa_r+0xadc>
 8009976:	4593      	cmp	fp, r2
 8009978:	d105      	bne.n	8009986 <_dtoa_r+0xafe>
 800997a:	2331      	movs	r3, #49	; 0x31
 800997c:	f10a 0a01 	add.w	sl, sl, #1
 8009980:	f88b 3000 	strb.w	r3, [fp]
 8009984:	e6ff      	b.n	8009786 <_dtoa_r+0x8fe>
 8009986:	4615      	mov	r5, r2
 8009988:	e79f      	b.n	80098ca <_dtoa_r+0xa42>
 800998a:	f8df b064 	ldr.w	fp, [pc, #100]	; 80099f0 <_dtoa_r+0xb68>
 800998e:	e007      	b.n	80099a0 <_dtoa_r+0xb18>
 8009990:	9b21      	ldr	r3, [sp, #132]	; 0x84
 8009992:	f8df b060 	ldr.w	fp, [pc, #96]	; 80099f4 <_dtoa_r+0xb6c>
 8009996:	b11b      	cbz	r3, 80099a0 <_dtoa_r+0xb18>
 8009998:	f10b 0308 	add.w	r3, fp, #8
 800999c:	9a21      	ldr	r2, [sp, #132]	; 0x84
 800999e:	6013      	str	r3, [r2, #0]
 80099a0:	4658      	mov	r0, fp
 80099a2:	b017      	add	sp, #92	; 0x5c
 80099a4:	e8bd 8ff0 	ldmia.w	sp!, {r4, r5, r6, r7, r8, r9, sl, fp, pc}
 80099a8:	9b06      	ldr	r3, [sp, #24]
 80099aa:	2b01      	cmp	r3, #1
 80099ac:	f77f ae35 	ble.w	800961a <_dtoa_r+0x792>
 80099b0:	9b0e      	ldr	r3, [sp, #56]	; 0x38
 80099b2:	9307      	str	r3, [sp, #28]
 80099b4:	e649      	b.n	800964a <_dtoa_r+0x7c2>
 80099b6:	9b02      	ldr	r3, [sp, #8]
 80099b8:	2b00      	cmp	r3, #0
 80099ba:	dc03      	bgt.n	80099c4 <_dtoa_r+0xb3c>
 80099bc:	9b06      	ldr	r3, [sp, #24]
 80099be:	2b02      	cmp	r3, #2
 80099c0:	f73f aecc 	bgt.w	800975c <_dtoa_r+0x8d4>
 80099c4:	465d      	mov	r5, fp
 80099c6:	4639      	mov	r1, r7
 80099c8:	9804      	ldr	r0, [sp, #16]
 80099ca:	f7ff f9cf 	bl	8008d6c <quorem>
 80099ce:	f100 0830 	add.w	r8, r0, #48	; 0x30
 80099d2:	f805 8b01 	strb.w	r8, [r5], #1
 80099d6:	9a02      	ldr	r2, [sp, #8]
 80099d8:	eba5 030b 	sub.w	r3, r5, fp
 80099dc:	429a      	cmp	r2, r3
 80099de:	ddb0      	ble.n	8009942 <_dtoa_r+0xaba>
 80099e0:	2300      	movs	r3, #0
 80099e2:	220a      	movs	r2, #10
 80099e4:	9904      	ldr	r1, [sp, #16]
 80099e6:	4620      	mov	r0, r4
 80099e8:	f000 f872 	bl	8009ad0 <__multadd>
 80099ec:	9004      	str	r0, [sp, #16]
 80099ee:	e7ea      	b.n	80099c6 <_dtoa_r+0xb3e>
 80099f0:	0800a748 	.word	0x0800a748
 80099f4:	0800a76c 	.word	0x0800a76c

080099f8 <_localeconv_r>:
 80099f8:	4b04      	ldr	r3, [pc, #16]	; (8009a0c <_localeconv_r+0x14>)
 80099fa:	681b      	ldr	r3, [r3, #0]
 80099fc:	6a18      	ldr	r0, [r3, #32]
 80099fe:	4b04      	ldr	r3, [pc, #16]	; (8009a10 <_localeconv_r+0x18>)
 8009a00:	2800      	cmp	r0, #0
 8009a02:	bf08      	it	eq
 8009a04:	4618      	moveq	r0, r3
 8009a06:	30f0      	adds	r0, #240	; 0xf0
 8009a08:	4770      	bx	lr
 8009a0a:	bf00      	nop
 8009a0c:	20000024 	.word	0x20000024
 8009a10:	20000088 	.word	0x20000088

08009a14 <malloc>:
 8009a14:	4b02      	ldr	r3, [pc, #8]	; (8009a20 <malloc+0xc>)
 8009a16:	4601      	mov	r1, r0
 8009a18:	6818      	ldr	r0, [r3, #0]
 8009a1a:	f000 bb45 	b.w	800a0a8 <_malloc_r>
 8009a1e:	bf00      	nop
 8009a20:	20000024 	.word	0x20000024

08009a24 <memcpy>:
 8009a24:	b510      	push	{r4, lr}
 8009a26:	1e43      	subs	r3, r0, #1
 8009a28:	440a      	add	r2, r1
 8009a2a:	4291      	cmp	r1, r2
 8009a2c:	d100      	bne.n	8009a30 <memcpy+0xc>
 8009a2e:	bd10      	pop	{r4, pc}
 8009a30:	f811 4b01 	ldrb.w	r4, [r1], #1
 8009a34:	f803 4f01 	strb.w	r4, [r3, #1]!
 8009a38:	e7f7      	b.n	8009a2a <memcpy+0x6>

08009a3a <_Balloc>:
 8009a3a:	b570      	push	{r4, r5, r6, lr}
 8009a3c:	6a45      	ldr	r5, [r0, #36]	; 0x24
 8009a3e:	4604      	mov	r4, r0
 8009a40:	460e      	mov	r6, r1
 8009a42:	b93d      	cbnz	r5, 8009a54 <_Balloc+0x1a>
 8009a44:	2010      	movs	r0, #16
 8009a46:	f7ff ffe5 	bl	8009a14 <malloc>
 8009a4a:	6260      	str	r0, [r4, #36]	; 0x24
 8009a4c:	e9c0 5501 	strd	r5, r5, [r0, #4]
 8009a50:	6005      	str	r5, [r0, #0]
 8009a52:	60c5      	str	r5, [r0, #12]
 8009a54:	6a65      	ldr	r5, [r4, #36]	; 0x24
 8009a56:	68eb      	ldr	r3, [r5, #12]
 8009a58:	b183      	cbz	r3, 8009a7c <_Balloc+0x42>
 8009a5a:	6a63      	ldr	r3, [r4, #36]	; 0x24
 8009a5c:	68db      	ldr	r3, [r3, #12]
 8009a5e:	f853 0026 	ldr.w	r0, [r3, r6, lsl #2]
 8009a62:	b9b8      	cbnz	r0, 8009a94 <_Balloc+0x5a>
 8009a64:	2101      	movs	r1, #1
 8009a66:	fa01 f506 	lsl.w	r5, r1, r6
 8009a6a:	1d6a      	adds	r2, r5, #5
 8009a6c:	0092      	lsls	r2, r2, #2
 8009a6e:	4620      	mov	r0, r4
 8009a70:	f000 fabe 	bl	8009ff0 <_calloc_r>
 8009a74:	b160      	cbz	r0, 8009a90 <_Balloc+0x56>
 8009a76:	e9c0 6501 	strd	r6, r5, [r0, #4]
 8009a7a:	e00e      	b.n	8009a9a <_Balloc+0x60>
 8009a7c:	2221      	movs	r2, #33	; 0x21
 8009a7e:	2104      	movs	r1, #4
 8009a80:	4620      	mov	r0, r4
 8009a82:	f000 fab5 	bl	8009ff0 <_calloc_r>
 8009a86:	6a63      	ldr	r3, [r4, #36]	; 0x24
 8009a88:	60e8      	str	r0, [r5, #12]
 8009a8a:	68db      	ldr	r3, [r3, #12]
 8009a8c:	2b00      	cmp	r3, #0
 8009a8e:	d1e4      	bne.n	8009a5a <_Balloc+0x20>
 8009a90:	2000      	movs	r0, #0
 8009a92:	bd70      	pop	{r4, r5, r6, pc}
 8009a94:	6802      	ldr	r2, [r0, #0]
 8009a96:	f843 2026 	str.w	r2, [r3, r6, lsl #2]
 8009a9a:	2300      	movs	r3, #0
 8009a9c:	e9c0 3303 	strd	r3, r3, [r0, #12]
 8009aa0:	e7f7      	b.n	8009a92 <_Balloc+0x58>

08009aa2 <_Bfree>:
 8009aa2:	b570      	push	{r4, r5, r6, lr}
 8009aa4:	6a44      	ldr	r4, [r0, #36]	; 0x24
 8009aa6:	4606      	mov	r6, r0
 8009aa8:	460d      	mov	r5, r1
 8009aaa:	b93c      	cbnz	r4, 8009abc <_Bfree+0x1a>
 8009aac:	2010      	movs	r0, #16
 8009aae:	f7ff ffb1 	bl	8009a14 <malloc>
 8009ab2:	6270      	str	r0, [r6, #36]	; 0x24
 8009ab4:	e9c0 4401 	strd	r4, r4, [r0, #4]
 8009ab8:	6004      	str	r4, [r0, #0]
 8009aba:	60c4      	str	r4, [r0, #12]
 8009abc:	b13d      	cbz	r5, 8009ace <_Bfree+0x2c>
 8009abe:	6a73      	ldr	r3, [r6, #36]	; 0x24
 8009ac0:	686a      	ldr	r2, [r5, #4]
 8009ac2:	68db      	ldr	r3, [r3, #12]
 8009ac4:	f853 1022 	ldr.w	r1, [r3, r2, lsl #2]
 8009ac8:	6029      	str	r1, [r5, #0]
 8009aca:	f843 5022 	str.w	r5, [r3, r2, lsl #2]
 8009ace:	bd70      	pop	{r4, r5, r6, pc}

08009ad0 <__multadd>:
 8009ad0:	e92d 41f0 	stmdb	sp!, {r4, r5, r6, r7, r8, lr}
 8009ad4:	690d      	ldr	r5, [r1, #16]
 8009ad6:	461f      	mov	r7, r3
 8009ad8:	4606      	mov	r6, r0
 8009ada:	460c      	mov	r4, r1
 8009adc:	f101 0c14 	add.w	ip, r1, #20
 8009ae0:	2300      	movs	r3, #0
 8009ae2:	f8dc 0000 	ldr.w	r0, [ip]
 8009ae6:	b281      	uxth	r1, r0
 8009ae8:	fb02 7101 	mla	r1, r2, r1, r7
 8009aec:	0c0f      	lsrs	r7, r1, #16
 8009aee:	0c00      	lsrs	r0, r0, #16
 8009af0:	fb02 7000 	mla	r0, r2, r0, r7
 8009af4:	b289      	uxth	r1, r1
 8009af6:	3301      	adds	r3, #1
 8009af8:	eb01 4100 	add.w	r1, r1, r0, lsl #16
 8009afc:	429d      	cmp	r5, r3
 8009afe:	ea4f 4710 	mov.w	r7, r0, lsr #16
 8009b02:	f84c 1b04 	str.w	r1, [ip], #4
 8009b06:	dcec      	bgt.n	8009ae2 <__multadd+0x12>
 8009b08:	b1d7      	cbz	r7, 8009b40 <__multadd+0x70>
 8009b0a:	68a3      	ldr	r3, [r4, #8]
 8009b0c:	42ab      	cmp	r3, r5
 8009b0e:	dc12      	bgt.n	8009b36 <__multadd+0x66>
 8009b10:	6861      	ldr	r1, [r4, #4]
 8009b12:	4630      	mov	r0, r6
 8009b14:	3101      	adds	r1, #1
 8009b16:	f7ff ff90 	bl	8009a3a <_Balloc>
 8009b1a:	6922      	ldr	r2, [r4, #16]
 8009b1c:	3202      	adds	r2, #2
 8009b1e:	f104 010c 	add.w	r1, r4, #12
 8009b22:	4680      	mov	r8, r0
 8009b24:	0092      	lsls	r2, r2, #2
 8009b26:	300c      	adds	r0, #12
 8009b28:	f7ff ff7c 	bl	8009a24 <memcpy>
 8009b2c:	4621      	mov	r1, r4
 8009b2e:	4630      	mov	r0, r6
 8009b30:	f7ff ffb7 	bl	8009aa2 <_Bfree>
 8009b34:	4644      	mov	r4, r8
 8009b36:	eb04 0385 	add.w	r3, r4, r5, lsl #2
 8009b3a:	3501      	adds	r5, #1
 8009b3c:	615f      	str	r7, [r3, #20]
 8009b3e:	6125      	str	r5, [r4, #16]
 8009b40:	4620      	mov	r0, r4
 8009b42:	e8bd 81f0 	ldmia.w	sp!, {r4, r5, r6, r7, r8, pc}

08009b46 <__hi0bits>:
 8009b46:	0c02      	lsrs	r2, r0, #16
 8009b48:	0412      	lsls	r2, r2, #16
 8009b4a:	4603      	mov	r3, r0
 8009b4c:	b9b2      	cbnz	r2, 8009b7c <__hi0bits+0x36>
 8009b4e:	0403      	lsls	r3, r0, #16
 8009b50:	2010      	movs	r0, #16
 8009b52:	f013 4f7f 	tst.w	r3, #4278190080	; 0xff000000
 8009b56:	bf04      	itt	eq
 8009b58:	021b      	lsleq	r3, r3, #8
 8009b5a:	3008      	addeq	r0, #8
 8009b5c:	f013 4f70 	tst.w	r3, #4026531840	; 0xf0000000
 8009b60:	bf04      	itt	eq
 8009b62:	011b      	lsleq	r3, r3, #4
 8009b64:	3004      	addeq	r0, #4
 8009b66:	f013 4f40 	tst.w	r3, #3221225472	; 0xc0000000
 8009b6a:	bf04      	itt	eq
 8009b6c:	009b      	lsleq	r3, r3, #2
 8009b6e:	3002      	addeq	r0, #2
 8009b70:	2b00      	cmp	r3, #0
 8009b72:	db06      	blt.n	8009b82 <__hi0bits+0x3c>
 8009b74:	005b      	lsls	r3, r3, #1
 8009b76:	d503      	bpl.n	8009b80 <__hi0bits+0x3a>
 8009b78:	3001      	adds	r0, #1
 8009b7a:	4770      	bx	lr
 8009b7c:	2000      	movs	r0, #0
 8009b7e:	e7e8      	b.n	8009b52 <__hi0bits+0xc>
 8009b80:	2020      	movs	r0, #32
 8009b82:	4770      	bx	lr

08009b84 <__lo0bits>:
 8009b84:	6803      	ldr	r3, [r0, #0]
 8009b86:	f013 0207 	ands.w	r2, r3, #7
 8009b8a:	4601      	mov	r1, r0
 8009b8c:	d00b      	beq.n	8009ba6 <__lo0bits+0x22>
 8009b8e:	07da      	lsls	r2, r3, #31
 8009b90:	d423      	bmi.n	8009bda <__lo0bits+0x56>
 8009b92:	0798      	lsls	r0, r3, #30
 8009b94:	bf49      	itett	mi
 8009b96:	085b      	lsrmi	r3, r3, #1
 8009b98:	089b      	lsrpl	r3, r3, #2
 8009b9a:	2001      	movmi	r0, #1
 8009b9c:	600b      	strmi	r3, [r1, #0]
 8009b9e:	bf5c      	itt	pl
 8009ba0:	600b      	strpl	r3, [r1, #0]
 8009ba2:	2002      	movpl	r0, #2
 8009ba4:	4770      	bx	lr
 8009ba6:	b298      	uxth	r0, r3
 8009ba8:	b9a8      	cbnz	r0, 8009bd6 <__lo0bits+0x52>
 8009baa:	0c1b      	lsrs	r3, r3, #16
 8009bac:	2010      	movs	r0, #16
 8009bae:	f013 0fff 	tst.w	r3, #255	; 0xff
 8009bb2:	bf04      	itt	eq
 8009bb4:	0a1b      	lsreq	r3, r3, #8
 8009bb6:	3008      	addeq	r0, #8
 8009bb8:	071a      	lsls	r2, r3, #28
 8009bba:	bf04      	itt	eq
 8009bbc:	091b      	lsreq	r3, r3, #4
 8009bbe:	3004      	addeq	r0, #4
 8009bc0:	079a      	lsls	r2, r3, #30
 8009bc2:	bf04      	itt	eq
 8009bc4:	089b      	lsreq	r3, r3, #2
 8009bc6:	3002      	addeq	r0, #2
 8009bc8:	07da      	lsls	r2, r3, #31
 8009bca:	d402      	bmi.n	8009bd2 <__lo0bits+0x4e>
 8009bcc:	085b      	lsrs	r3, r3, #1
 8009bce:	d006      	beq.n	8009bde <__lo0bits+0x5a>
 8009bd0:	3001      	adds	r0, #1
 8009bd2:	600b      	str	r3, [r1, #0]
 8009bd4:	4770      	bx	lr
 8009bd6:	4610      	mov	r0, r2
 8009bd8:	e7e9      	b.n	8009bae <__lo0bits+0x2a>
 8009bda:	2000      	movs	r0, #0
 8009bdc:	4770      	bx	lr
 8009bde:	2020      	movs	r0, #32
 8009be0:	4770      	bx	lr

08009be2 <__i2b>:
 8009be2:	b510      	push	{r4, lr}
 8009be4:	460c      	mov	r4, r1
 8009be6:	2101      	movs	r1, #1
 8009be8:	f7ff ff27 	bl	8009a3a <_Balloc>
 8009bec:	2201      	movs	r2, #1
 8009bee:	6144      	str	r4, [r0, #20]
 8009bf0:	6102      	str	r2, [r0, #16]
 8009bf2:	bd10      	pop	{r4, pc}

08009bf4 <__multiply>:
 8009bf4:	e92d 4ff7 	stmdb	sp!, {r0, r1, r2, r4, r5, r6, r7, r8, r9, sl, fp, lr}
 8009bf8:	4614      	mov	r4, r2
 8009bfa:	690a      	ldr	r2, [r1, #16]
 8009bfc:	6923      	ldr	r3, [r4, #16]
 8009bfe:	429a      	cmp	r2, r3
 8009c00:	bfb8      	it	lt
 8009c02:	460b      	movlt	r3, r1
 8009c04:	4688      	mov	r8, r1
 8009c06:	bfbc      	itt	lt
 8009c08:	46a0      	movlt	r8, r4
 8009c0a:	461c      	movlt	r4, r3
 8009c0c:	f8d8 7010 	ldr.w	r7, [r8, #16]
 8009c10:	f8d4 9010 	ldr.w	r9, [r4, #16]
 8009c14:	f8d8 3008 	ldr.w	r3, [r8, #8]
 8009c18:	f8d8 1004 	ldr.w	r1, [r8, #4]
 8009c1c:	eb07 0609 	add.w	r6, r7, r9
 8009c20:	42b3      	cmp	r3, r6
 8009c22:	bfb8      	it	lt
 8009c24:	3101      	addlt	r1, #1
 8009c26:	f7ff ff08 	bl	8009a3a <_Balloc>
 8009c2a:	f100 0514 	add.w	r5, r0, #20
 8009c2e:	eb05 0e86 	add.w	lr, r5, r6, lsl #2
 8009c32:	462b      	mov	r3, r5
 8009c34:	2200      	movs	r2, #0
 8009c36:	4573      	cmp	r3, lr
 8009c38:	d316      	bcc.n	8009c68 <__multiply+0x74>
 8009c3a:	f104 0214 	add.w	r2, r4, #20
 8009c3e:	f108 0114 	add.w	r1, r8, #20
 8009c42:	eb02 0389 	add.w	r3, r2, r9, lsl #2
 8009c46:	eb01 0787 	add.w	r7, r1, r7, lsl #2
 8009c4a:	9300      	str	r3, [sp, #0]
 8009c4c:	9b00      	ldr	r3, [sp, #0]
 8009c4e:	9201      	str	r2, [sp, #4]
 8009c50:	4293      	cmp	r3, r2
 8009c52:	d80c      	bhi.n	8009c6e <__multiply+0x7a>
 8009c54:	2e00      	cmp	r6, #0
 8009c56:	dd03      	ble.n	8009c60 <__multiply+0x6c>
 8009c58:	f85e 3d04 	ldr.w	r3, [lr, #-4]!
 8009c5c:	2b00      	cmp	r3, #0
 8009c5e:	d05d      	beq.n	8009d1c <__multiply+0x128>
 8009c60:	6106      	str	r6, [r0, #16]
 8009c62:	b003      	add	sp, #12
 8009c64:	e8bd 8ff0 	ldmia.w	sp!, {r4, r5, r6, r7, r8, r9, sl, fp, pc}
 8009c68:	f843 2b04 	str.w	r2, [r3], #4
 8009c6c:	e7e3      	b.n	8009c36 <__multiply+0x42>
 8009c6e:	f8b2 b000 	ldrh.w	fp, [r2]
 8009c72:	f1bb 0f00 	cmp.w	fp, #0
 8009c76:	d023      	beq.n	8009cc0 <__multiply+0xcc>
 8009c78:	4689      	mov	r9, r1
 8009c7a:	46ac      	mov	ip, r5
 8009c7c:	f04f 0800 	mov.w	r8, #0
 8009c80:	f859 4b04 	ldr.w	r4, [r9], #4
 8009c84:	f8dc a000 	ldr.w	sl, [ip]
 8009c88:	b2a3      	uxth	r3, r4
 8009c8a:	fa1f fa8a 	uxth.w	sl, sl
 8009c8e:	fb0b a303 	mla	r3, fp, r3, sl
 8009c92:	ea4f 4a14 	mov.w	sl, r4, lsr #16
 8009c96:	f8dc 4000 	ldr.w	r4, [ip]
 8009c9a:	4443      	add	r3, r8
 8009c9c:	ea4f 4814 	mov.w	r8, r4, lsr #16
 8009ca0:	fb0b 840a 	mla	r4, fp, sl, r8
 8009ca4:	eb04 4413 	add.w	r4, r4, r3, lsr #16
 8009ca8:	46e2      	mov	sl, ip
 8009caa:	b29b      	uxth	r3, r3
 8009cac:	ea43 4304 	orr.w	r3, r3, r4, lsl #16
 8009cb0:	454f      	cmp	r7, r9
 8009cb2:	ea4f 4814 	mov.w	r8, r4, lsr #16
 8009cb6:	f84a 3b04 	str.w	r3, [sl], #4
 8009cba:	d82b      	bhi.n	8009d14 <__multiply+0x120>
 8009cbc:	f8cc 8004 	str.w	r8, [ip, #4]
 8009cc0:	9b01      	ldr	r3, [sp, #4]
 8009cc2:	f8b3 a002 	ldrh.w	sl, [r3, #2]
 8009cc6:	3204      	adds	r2, #4
 8009cc8:	f1ba 0f00 	cmp.w	sl, #0
 8009ccc:	d020      	beq.n	8009d10 <__multiply+0x11c>
 8009cce:	682b      	ldr	r3, [r5, #0]
 8009cd0:	4689      	mov	r9, r1
 8009cd2:	46a8      	mov	r8, r5
 8009cd4:	f04f 0b00 	mov.w	fp, #0
 8009cd8:	f8b9 c000 	ldrh.w	ip, [r9]
 8009cdc:	f8b8 4002 	ldrh.w	r4, [r8, #2]
 8009ce0:	fb0a 440c 	mla	r4, sl, ip, r4
 8009ce4:	445c      	add	r4, fp
 8009ce6:	46c4      	mov	ip, r8
 8009ce8:	b29b      	uxth	r3, r3
 8009cea:	ea43 4304 	orr.w	r3, r3, r4, lsl #16
 8009cee:	f84c 3b04 	str.w	r3, [ip], #4
 8009cf2:	f859 3b04 	ldr.w	r3, [r9], #4
 8009cf6:	f8b8 b004 	ldrh.w	fp, [r8, #4]
 8009cfa:	0c1b      	lsrs	r3, r3, #16
 8009cfc:	fb0a b303 	mla	r3, sl, r3, fp
 8009d00:	eb03 4314 	add.w	r3, r3, r4, lsr #16
 8009d04:	454f      	cmp	r7, r9
 8009d06:	ea4f 4b13 	mov.w	fp, r3, lsr #16
 8009d0a:	d805      	bhi.n	8009d18 <__multiply+0x124>
 8009d0c:	f8c8 3004 	str.w	r3, [r8, #4]
 8009d10:	3504      	adds	r5, #4
 8009d12:	e79b      	b.n	8009c4c <__multiply+0x58>
 8009d14:	46d4      	mov	ip, sl
 8009d16:	e7b3      	b.n	8009c80 <__multiply+0x8c>
 8009d18:	46e0      	mov	r8, ip
 8009d1a:	e7dd      	b.n	8009cd8 <__multiply+0xe4>
 8009d1c:	3e01      	subs	r6, #1
 8009d1e:	e799      	b.n	8009c54 <__multiply+0x60>

08009d20 <__pow5mult>:
 8009d20:	e92d 43f8 	stmdb	sp!, {r3, r4, r5, r6, r7, r8, r9, lr}
 8009d24:	4615      	mov	r5, r2
 8009d26:	f012 0203 	ands.w	r2, r2, #3
 8009d2a:	4606      	mov	r6, r0
 8009d2c:	460f      	mov	r7, r1
 8009d2e:	d007      	beq.n	8009d40 <__pow5mult+0x20>
 8009d30:	3a01      	subs	r2, #1
 8009d32:	4c21      	ldr	r4, [pc, #132]	; (8009db8 <__pow5mult+0x98>)
 8009d34:	2300      	movs	r3, #0
 8009d36:	f854 2022 	ldr.w	r2, [r4, r2, lsl #2]
 8009d3a:	f7ff fec9 	bl	8009ad0 <__multadd>
 8009d3e:	4607      	mov	r7, r0
 8009d40:	10ad      	asrs	r5, r5, #2
 8009d42:	d035      	beq.n	8009db0 <__pow5mult+0x90>
 8009d44:	6a74      	ldr	r4, [r6, #36]	; 0x24
 8009d46:	b93c      	cbnz	r4, 8009d58 <__pow5mult+0x38>
 8009d48:	2010      	movs	r0, #16
 8009d4a:	f7ff fe63 	bl	8009a14 <malloc>
 8009d4e:	6270      	str	r0, [r6, #36]	; 0x24
 8009d50:	e9c0 4401 	strd	r4, r4, [r0, #4]
 8009d54:	6004      	str	r4, [r0, #0]
 8009d56:	60c4      	str	r4, [r0, #12]
 8009d58:	f8d6 8024 	ldr.w	r8, [r6, #36]	; 0x24
 8009d5c:	f8d8 4008 	ldr.w	r4, [r8, #8]
 8009d60:	b94c      	cbnz	r4, 8009d76 <__pow5mult+0x56>
 8009d62:	f240 2171 	movw	r1, #625	; 0x271
 8009d66:	4630      	mov	r0, r6
 8009d68:	f7ff ff3b 	bl	8009be2 <__i2b>
 8009d6c:	2300      	movs	r3, #0
 8009d6e:	f8c8 0008 	str.w	r0, [r8, #8]
 8009d72:	4604      	mov	r4, r0
 8009d74:	6003      	str	r3, [r0, #0]
 8009d76:	f04f 0800 	mov.w	r8, #0
 8009d7a:	07eb      	lsls	r3, r5, #31
 8009d7c:	d50a      	bpl.n	8009d94 <__pow5mult+0x74>
 8009d7e:	4639      	mov	r1, r7
 8009d80:	4622      	mov	r2, r4
 8009d82:	4630      	mov	r0, r6
 8009d84:	f7ff ff36 	bl	8009bf4 <__multiply>
 8009d88:	4639      	mov	r1, r7
 8009d8a:	4681      	mov	r9, r0
 8009d8c:	4630      	mov	r0, r6
 8009d8e:	f7ff fe88 	bl	8009aa2 <_Bfree>
 8009d92:	464f      	mov	r7, r9
 8009d94:	106d      	asrs	r5, r5, #1
 8009d96:	d00b      	beq.n	8009db0 <__pow5mult+0x90>
 8009d98:	6820      	ldr	r0, [r4, #0]
 8009d9a:	b938      	cbnz	r0, 8009dac <__pow5mult+0x8c>
 8009d9c:	4622      	mov	r2, r4
 8009d9e:	4621      	mov	r1, r4
 8009da0:	4630      	mov	r0, r6
 8009da2:	f7ff ff27 	bl	8009bf4 <__multiply>
 8009da6:	6020      	str	r0, [r4, #0]
 8009da8:	f8c0 8000 	str.w	r8, [r0]
 8009dac:	4604      	mov	r4, r0
 8009dae:	e7e4      	b.n	8009d7a <__pow5mult+0x5a>
 8009db0:	4638      	mov	r0, r7
 8009db2:	e8bd 83f8 	ldmia.w	sp!, {r3, r4, r5, r6, r7, r8, r9, pc}
 8009db6:	bf00      	nop
 8009db8:	0800a870 	.word	0x0800a870

08009dbc <__lshift>:
 8009dbc:	e92d 47f0 	stmdb	sp!, {r4, r5, r6, r7, r8, r9, sl, lr}
 8009dc0:	460c      	mov	r4, r1
 8009dc2:	ea4f 1a62 	mov.w	sl, r2, asr #5
 8009dc6:	6923      	ldr	r3, [r4, #16]
 8009dc8:	6849      	ldr	r1, [r1, #4]
 8009dca:	eb0a 0903 	add.w	r9, sl, r3
 8009dce:	68a3      	ldr	r3, [r4, #8]
 8009dd0:	4607      	mov	r7, r0
 8009dd2:	4616      	mov	r6, r2
 8009dd4:	f109 0501 	add.w	r5, r9, #1
 8009dd8:	42ab      	cmp	r3, r5
 8009dda:	db32      	blt.n	8009e42 <__lshift+0x86>
 8009ddc:	4638      	mov	r0, r7
 8009dde:	f7ff fe2c 	bl	8009a3a <_Balloc>
 8009de2:	2300      	movs	r3, #0
 8009de4:	4680      	mov	r8, r0
 8009de6:	f100 0114 	add.w	r1, r0, #20
 8009dea:	461a      	mov	r2, r3
 8009dec:	4553      	cmp	r3, sl
 8009dee:	db2b      	blt.n	8009e48 <__lshift+0x8c>
 8009df0:	6920      	ldr	r0, [r4, #16]
 8009df2:	ea2a 7aea 	bic.w	sl, sl, sl, asr #31
 8009df6:	f104 0314 	add.w	r3, r4, #20
 8009dfa:	f016 021f 	ands.w	r2, r6, #31
 8009dfe:	eb01 018a 	add.w	r1, r1, sl, lsl #2
 8009e02:	eb03 0c80 	add.w	ip, r3, r0, lsl #2
 8009e06:	d025      	beq.n	8009e54 <__lshift+0x98>
 8009e08:	f1c2 0e20 	rsb	lr, r2, #32
 8009e0c:	2000      	movs	r0, #0
 8009e0e:	681e      	ldr	r6, [r3, #0]
 8009e10:	468a      	mov	sl, r1
 8009e12:	4096      	lsls	r6, r2
 8009e14:	4330      	orrs	r0, r6
 8009e16:	f84a 0b04 	str.w	r0, [sl], #4
 8009e1a:	f853 0b04 	ldr.w	r0, [r3], #4
 8009e1e:	459c      	cmp	ip, r3
 8009e20:	fa20 f00e 	lsr.w	r0, r0, lr
 8009e24:	d814      	bhi.n	8009e50 <__lshift+0x94>
 8009e26:	6048      	str	r0, [r1, #4]
 8009e28:	b108      	cbz	r0, 8009e2e <__lshift+0x72>
 8009e2a:	f109 0502 	add.w	r5, r9, #2
 8009e2e:	3d01      	subs	r5, #1
 8009e30:	4638      	mov	r0, r7
 8009e32:	f8c8 5010 	str.w	r5, [r8, #16]
 8009e36:	4621      	mov	r1, r4
 8009e38:	f7ff fe33 	bl	8009aa2 <_Bfree>
 8009e3c:	4640      	mov	r0, r8
 8009e3e:	e8bd 87f0 	ldmia.w	sp!, {r4, r5, r6, r7, r8, r9, sl, pc}
 8009e42:	3101      	adds	r1, #1
 8009e44:	005b      	lsls	r3, r3, #1
 8009e46:	e7c7      	b.n	8009dd8 <__lshift+0x1c>
 8009e48:	f841 2023 	str.w	r2, [r1, r3, lsl #2]
 8009e4c:	3301      	adds	r3, #1
 8009e4e:	e7cd      	b.n	8009dec <__lshift+0x30>
 8009e50:	4651      	mov	r1, sl
 8009e52:	e7dc      	b.n	8009e0e <__lshift+0x52>
 8009e54:	3904      	subs	r1, #4
 8009e56:	f853 2b04 	ldr.w	r2, [r3], #4
 8009e5a:	f841 2f04 	str.w	r2, [r1, #4]!
 8009e5e:	459c      	cmp	ip, r3
 8009e60:	d8f9      	bhi.n	8009e56 <__lshift+0x9a>
 8009e62:	e7e4      	b.n	8009e2e <__lshift+0x72>

08009e64 <__mcmp>:
 8009e64:	6903      	ldr	r3, [r0, #16]
 8009e66:	690a      	ldr	r2, [r1, #16]
 8009e68:	1a9b      	subs	r3, r3, r2
 8009e6a:	b530      	push	{r4, r5, lr}
 8009e6c:	d10c      	bne.n	8009e88 <__mcmp+0x24>
 8009e6e:	0092      	lsls	r2, r2, #2
 8009e70:	3014      	adds	r0, #20
 8009e72:	3114      	adds	r1, #20
 8009e74:	1884      	adds	r4, r0, r2
 8009e76:	4411      	add	r1, r2
 8009e78:	f854 5d04 	ldr.w	r5, [r4, #-4]!
 8009e7c:	f851 2d04 	ldr.w	r2, [r1, #-4]!
 8009e80:	4295      	cmp	r5, r2
 8009e82:	d003      	beq.n	8009e8c <__mcmp+0x28>
 8009e84:	d305      	bcc.n	8009e92 <__mcmp+0x2e>
 8009e86:	2301      	movs	r3, #1
 8009e88:	4618      	mov	r0, r3
 8009e8a:	bd30      	pop	{r4, r5, pc}
 8009e8c:	42a0      	cmp	r0, r4
 8009e8e:	d3f3      	bcc.n	8009e78 <__mcmp+0x14>
 8009e90:	e7fa      	b.n	8009e88 <__mcmp+0x24>
 8009e92:	f04f 33ff 	mov.w	r3, #4294967295
 8009e96:	e7f7      	b.n	8009e88 <__mcmp+0x24>

08009e98 <__mdiff>:
 8009e98:	e92d 47f0 	stmdb	sp!, {r4, r5, r6, r7, r8, r9, sl, lr}
 8009e9c:	460d      	mov	r5, r1
 8009e9e:	4607      	mov	r7, r0
 8009ea0:	4611      	mov	r1, r2
 8009ea2:	4628      	mov	r0, r5
 8009ea4:	4614      	mov	r4, r2
 8009ea6:	f7ff ffdd 	bl	8009e64 <__mcmp>
 8009eaa:	1e06      	subs	r6, r0, #0
 8009eac:	d108      	bne.n	8009ec0 <__mdiff+0x28>
 8009eae:	4631      	mov	r1, r6
 8009eb0:	4638      	mov	r0, r7
 8009eb2:	f7ff fdc2 	bl	8009a3a <_Balloc>
 8009eb6:	2301      	movs	r3, #1
 8009eb8:	e9c0 3604 	strd	r3, r6, [r0, #16]
 8009ebc:	e8bd 87f0 	ldmia.w	sp!, {r4, r5, r6, r7, r8, r9, sl, pc}
 8009ec0:	bfa4      	itt	ge
 8009ec2:	4623      	movge	r3, r4
 8009ec4:	462c      	movge	r4, r5
 8009ec6:	4638      	mov	r0, r7
 8009ec8:	6861      	ldr	r1, [r4, #4]
 8009eca:	bfa6      	itte	ge
 8009ecc:	461d      	movge	r5, r3
 8009ece:	2600      	movge	r6, #0
 8009ed0:	2601      	movlt	r6, #1
 8009ed2:	f7ff fdb2 	bl	8009a3a <_Balloc>
 8009ed6:	692b      	ldr	r3, [r5, #16]
 8009ed8:	60c6      	str	r6, [r0, #12]
 8009eda:	6926      	ldr	r6, [r4, #16]
 8009edc:	f105 0914 	add.w	r9, r5, #20
 8009ee0:	f104 0214 	add.w	r2, r4, #20
 8009ee4:	eb02 0786 	add.w	r7, r2, r6, lsl #2
 8009ee8:	eb09 0883 	add.w	r8, r9, r3, lsl #2
 8009eec:	f100 0514 	add.w	r5, r0, #20
 8009ef0:	f04f 0e00 	mov.w	lr, #0
 8009ef4:	f852 ab04 	ldr.w	sl, [r2], #4
 8009ef8:	f859 4b04 	ldr.w	r4, [r9], #4
 8009efc:	fa1e f18a 	uxtah	r1, lr, sl
 8009f00:	b2a3      	uxth	r3, r4
 8009f02:	1ac9      	subs	r1, r1, r3
 8009f04:	0c23      	lsrs	r3, r4, #16
 8009f06:	ebc3 431a 	rsb	r3, r3, sl, lsr #16
 8009f0a:	eb03 4321 	add.w	r3, r3, r1, asr #16
 8009f0e:	b289      	uxth	r1, r1
 8009f10:	ea4f 4e23 	mov.w	lr, r3, asr #16
 8009f14:	45c8      	cmp	r8, r9
 8009f16:	ea41 4303 	orr.w	r3, r1, r3, lsl #16
 8009f1a:	4694      	mov	ip, r2
 8009f1c:	f845 3b04 	str.w	r3, [r5], #4
 8009f20:	d8e8      	bhi.n	8009ef4 <__mdiff+0x5c>
 8009f22:	45bc      	cmp	ip, r7
 8009f24:	d304      	bcc.n	8009f30 <__mdiff+0x98>
 8009f26:	f855 3d04 	ldr.w	r3, [r5, #-4]!
 8009f2a:	b183      	cbz	r3, 8009f4e <__mdiff+0xb6>
 8009f2c:	6106      	str	r6, [r0, #16]
 8009f2e:	e7c5      	b.n	8009ebc <__mdiff+0x24>
 8009f30:	f85c 1b04 	ldr.w	r1, [ip], #4
 8009f34:	fa1e f381 	uxtah	r3, lr, r1
 8009f38:	141a      	asrs	r2, r3, #16
 8009f3a:	eb02 4211 	add.w	r2, r2, r1, lsr #16
 8009f3e:	b29b      	uxth	r3, r3
 8009f40:	ea43 4302 	orr.w	r3, r3, r2, lsl #16
 8009f44:	ea4f 4e22 	mov.w	lr, r2, asr #16
 8009f48:	f845 3b04 	str.w	r3, [r5], #4
 8009f4c:	e7e9      	b.n	8009f22 <__mdiff+0x8a>
 8009f4e:	3e01      	subs	r6, #1
 8009f50:	e7e9      	b.n	8009f26 <__mdiff+0x8e>

08009f52 <__d2b>:
 8009f52:	e92d 43f7 	stmdb	sp!, {r0, r1, r2, r4, r5, r6, r7, r8, r9, lr}
 8009f56:	460e      	mov	r6, r1
 8009f58:	2101      	movs	r1, #1
 8009f5a:	ec59 8b10 	vmov	r8, r9, d0
 8009f5e:	4615      	mov	r5, r2
 8009f60:	f7ff fd6b 	bl	8009a3a <_Balloc>
 8009f64:	f3c9 540a 	ubfx	r4, r9, #20, #11
 8009f68:	4607      	mov	r7, r0
 8009f6a:	f3c9 0313 	ubfx	r3, r9, #0, #20
 8009f6e:	bb34      	cbnz	r4, 8009fbe <__d2b+0x6c>
 8009f70:	9301      	str	r3, [sp, #4]
 8009f72:	f1b8 0300 	subs.w	r3, r8, #0
 8009f76:	d027      	beq.n	8009fc8 <__d2b+0x76>
 8009f78:	a802      	add	r0, sp, #8
 8009f7a:	f840 3d08 	str.w	r3, [r0, #-8]!
 8009f7e:	f7ff fe01 	bl	8009b84 <__lo0bits>
 8009f82:	9900      	ldr	r1, [sp, #0]
 8009f84:	b1f0      	cbz	r0, 8009fc4 <__d2b+0x72>
 8009f86:	9a01      	ldr	r2, [sp, #4]
 8009f88:	f1c0 0320 	rsb	r3, r0, #32
 8009f8c:	fa02 f303 	lsl.w	r3, r2, r3
 8009f90:	430b      	orrs	r3, r1
 8009f92:	40c2      	lsrs	r2, r0
 8009f94:	617b      	str	r3, [r7, #20]
 8009f96:	9201      	str	r2, [sp, #4]
 8009f98:	9b01      	ldr	r3, [sp, #4]
 8009f9a:	61bb      	str	r3, [r7, #24]
 8009f9c:	2b00      	cmp	r3, #0
 8009f9e:	bf14      	ite	ne
 8009fa0:	2102      	movne	r1, #2
 8009fa2:	2101      	moveq	r1, #1
 8009fa4:	6139      	str	r1, [r7, #16]
 8009fa6:	b1c4      	cbz	r4, 8009fda <__d2b+0x88>
 8009fa8:	f2a4 4433 	subw	r4, r4, #1075	; 0x433
 8009fac:	4404      	add	r4, r0
 8009fae:	6034      	str	r4, [r6, #0]
 8009fb0:	f1c0 0035 	rsb	r0, r0, #53	; 0x35
 8009fb4:	6028      	str	r0, [r5, #0]
 8009fb6:	4638      	mov	r0, r7
 8009fb8:	b003      	add	sp, #12
 8009fba:	e8bd 83f0 	ldmia.w	sp!, {r4, r5, r6, r7, r8, r9, pc}
 8009fbe:	f443 1380 	orr.w	r3, r3, #1048576	; 0x100000
 8009fc2:	e7d5      	b.n	8009f70 <__d2b+0x1e>
 8009fc4:	6179      	str	r1, [r7, #20]
 8009fc6:	e7e7      	b.n	8009f98 <__d2b+0x46>
 8009fc8:	a801      	add	r0, sp, #4
 8009fca:	f7ff fddb 	bl	8009b84 <__lo0bits>
 8009fce:	9b01      	ldr	r3, [sp, #4]
 8009fd0:	617b      	str	r3, [r7, #20]
 8009fd2:	2101      	movs	r1, #1
 8009fd4:	6139      	str	r1, [r7, #16]
 8009fd6:	3020      	adds	r0, #32
 8009fd8:	e7e5      	b.n	8009fa6 <__d2b+0x54>
 8009fda:	eb07 0381 	add.w	r3, r7, r1, lsl #2
 8009fde:	f2a0 4032 	subw	r0, r0, #1074	; 0x432
 8009fe2:	6030      	str	r0, [r6, #0]
 8009fe4:	6918      	ldr	r0, [r3, #16]
 8009fe6:	f7ff fdae 	bl	8009b46 <__hi0bits>
 8009fea:	ebc0 1041 	rsb	r0, r0, r1, lsl #5
 8009fee:	e7e1      	b.n	8009fb4 <__d2b+0x62>

08009ff0 <_calloc_r>:
 8009ff0:	b538      	push	{r3, r4, r5, lr}
 8009ff2:	fb02 f401 	mul.w	r4, r2, r1
 8009ff6:	4621      	mov	r1, r4
 8009ff8:	f000 f856 	bl	800a0a8 <_malloc_r>
 8009ffc:	4605      	mov	r5, r0
 8009ffe:	b118      	cbz	r0, 800a008 <_calloc_r+0x18>
 800a000:	4622      	mov	r2, r4
 800a002:	2100      	movs	r1, #0
 800a004:	f7fe f9f4 	bl	80083f0 <memset>
 800a008:	4628      	mov	r0, r5
 800a00a:	bd38      	pop	{r3, r4, r5, pc}

0800a00c <_free_r>:
 800a00c:	b538      	push	{r3, r4, r5, lr}
 800a00e:	4605      	mov	r5, r0
 800a010:	2900      	cmp	r1, #0
 800a012:	d045      	beq.n	800a0a0 <_free_r+0x94>
 800a014:	f851 3c04 	ldr.w	r3, [r1, #-4]
 800a018:	1f0c      	subs	r4, r1, #4
 800a01a:	2b00      	cmp	r3, #0
 800a01c:	bfb8      	it	lt
 800a01e:	18e4      	addlt	r4, r4, r3
 800a020:	f000 fa29 	bl	800a476 <__malloc_lock>
 800a024:	4a1f      	ldr	r2, [pc, #124]	; (800a0a4 <_free_r+0x98>)
 800a026:	6813      	ldr	r3, [r2, #0]
 800a028:	4610      	mov	r0, r2
 800a02a:	b933      	cbnz	r3, 800a03a <_free_r+0x2e>
 800a02c:	6063      	str	r3, [r4, #4]
 800a02e:	6014      	str	r4, [r2, #0]
 800a030:	4628      	mov	r0, r5
 800a032:	e8bd 4038 	ldmia.w	sp!, {r3, r4, r5, lr}
 800a036:	f000 ba1f 	b.w	800a478 <__malloc_unlock>
 800a03a:	42a3      	cmp	r3, r4
 800a03c:	d90c      	bls.n	800a058 <_free_r+0x4c>
 800a03e:	6821      	ldr	r1, [r4, #0]
 800a040:	1862      	adds	r2, r4, r1
 800a042:	4293      	cmp	r3, r2
 800a044:	bf04      	itt	eq
 800a046:	681a      	ldreq	r2, [r3, #0]
 800a048:	685b      	ldreq	r3, [r3, #4]
 800a04a:	6063      	str	r3, [r4, #4]
 800a04c:	bf04      	itt	eq
 800a04e:	1852      	addeq	r2, r2, r1
 800a050:	6022      	streq	r2, [r4, #0]
 800a052:	6004      	str	r4, [r0, #0]
 800a054:	e7ec      	b.n	800a030 <_free_r+0x24>
 800a056:	4613      	mov	r3, r2
 800a058:	685a      	ldr	r2, [r3, #4]
 800a05a:	b10a      	cbz	r2, 800a060 <_free_r+0x54>
 800a05c:	42a2      	cmp	r2, r4
 800a05e:	d9fa      	bls.n	800a056 <_free_r+0x4a>
 800a060:	6819      	ldr	r1, [r3, #0]
 800a062:	1858      	adds	r0, r3, r1
 800a064:	42a0      	cmp	r0, r4
 800a066:	d10b      	bne.n	800a080 <_free_r+0x74>
 800a068:	6820      	ldr	r0, [r4, #0]
 800a06a:	4401      	add	r1, r0
 800a06c:	1858      	adds	r0, r3, r1
 800a06e:	4282      	cmp	r2, r0
 800a070:	6019      	str	r1, [r3, #0]
 800a072:	d1dd      	bne.n	800a030 <_free_r+0x24>
 800a074:	6810      	ldr	r0, [r2, #0]
 800a076:	6852      	ldr	r2, [r2, #4]
 800a078:	605a      	str	r2, [r3, #4]
 800a07a:	4401      	add	r1, r0
 800a07c:	6019      	str	r1, [r3, #0]
 800a07e:	e7d7      	b.n	800a030 <_free_r+0x24>
 800a080:	d902      	bls.n	800a088 <_free_r+0x7c>
 800a082:	230c      	movs	r3, #12
 800a084:	602b      	str	r3, [r5, #0]
 800a086:	e7d3      	b.n	800a030 <_free_r+0x24>
 800a088:	6820      	ldr	r0, [r4, #0]
 800a08a:	1821      	adds	r1, r4, r0
 800a08c:	428a      	cmp	r2, r1
 800a08e:	bf04      	itt	eq
 800a090:	6811      	ldreq	r1, [r2, #0]
 800a092:	6852      	ldreq	r2, [r2, #4]
 800a094:	6062      	str	r2, [r4, #4]
 800a096:	bf04      	itt	eq
 800a098:	1809      	addeq	r1, r1, r0
 800a09a:	6021      	streq	r1, [r4, #0]
 800a09c:	605c      	str	r4, [r3, #4]
 800a09e:	e7c7      	b.n	800a030 <_free_r+0x24>
 800a0a0:	bd38      	pop	{r3, r4, r5, pc}
 800a0a2:	bf00      	nop
 800a0a4:	2000074c 	.word	0x2000074c

0800a0a8 <_malloc_r>:
 800a0a8:	b570      	push	{r4, r5, r6, lr}
 800a0aa:	1ccd      	adds	r5, r1, #3
 800a0ac:	f025 0503 	bic.w	r5, r5, #3
 800a0b0:	3508      	adds	r5, #8
 800a0b2:	2d0c      	cmp	r5, #12
 800a0b4:	bf38      	it	cc
 800a0b6:	250c      	movcc	r5, #12
 800a0b8:	2d00      	cmp	r5, #0
 800a0ba:	4606      	mov	r6, r0
 800a0bc:	db01      	blt.n	800a0c2 <_malloc_r+0x1a>
 800a0be:	42a9      	cmp	r1, r5
 800a0c0:	d903      	bls.n	800a0ca <_malloc_r+0x22>
 800a0c2:	230c      	movs	r3, #12
 800a0c4:	6033      	str	r3, [r6, #0]
 800a0c6:	2000      	movs	r0, #0
 800a0c8:	bd70      	pop	{r4, r5, r6, pc}
 800a0ca:	f000 f9d4 	bl	800a476 <__malloc_lock>
 800a0ce:	4a21      	ldr	r2, [pc, #132]	; (800a154 <_malloc_r+0xac>)
 800a0d0:	6814      	ldr	r4, [r2, #0]
 800a0d2:	4621      	mov	r1, r4
 800a0d4:	b991      	cbnz	r1, 800a0fc <_malloc_r+0x54>
 800a0d6:	4c20      	ldr	r4, [pc, #128]	; (800a158 <_malloc_r+0xb0>)
 800a0d8:	6823      	ldr	r3, [r4, #0]
 800a0da:	b91b      	cbnz	r3, 800a0e4 <_malloc_r+0x3c>
 800a0dc:	4630      	mov	r0, r6
 800a0de:	f000 f98f 	bl	800a400 <_sbrk_r>
 800a0e2:	6020      	str	r0, [r4, #0]
 800a0e4:	4629      	mov	r1, r5
 800a0e6:	4630      	mov	r0, r6
 800a0e8:	f000 f98a 	bl	800a400 <_sbrk_r>
 800a0ec:	1c43      	adds	r3, r0, #1
 800a0ee:	d124      	bne.n	800a13a <_malloc_r+0x92>
 800a0f0:	230c      	movs	r3, #12
 800a0f2:	6033      	str	r3, [r6, #0]
 800a0f4:	4630      	mov	r0, r6
 800a0f6:	f000 f9bf 	bl	800a478 <__malloc_unlock>
 800a0fa:	e7e4      	b.n	800a0c6 <_malloc_r+0x1e>
 800a0fc:	680b      	ldr	r3, [r1, #0]
 800a0fe:	1b5b      	subs	r3, r3, r5
 800a100:	d418      	bmi.n	800a134 <_malloc_r+0x8c>
 800a102:	2b0b      	cmp	r3, #11
 800a104:	d90f      	bls.n	800a126 <_malloc_r+0x7e>
 800a106:	600b      	str	r3, [r1, #0]
 800a108:	50cd      	str	r5, [r1, r3]
 800a10a:	18cc      	adds	r4, r1, r3
 800a10c:	4630      	mov	r0, r6
 800a10e:	f000 f9b3 	bl	800a478 <__malloc_unlock>
 800a112:	f104 000b 	add.w	r0, r4, #11
 800a116:	1d23      	adds	r3, r4, #4
 800a118:	f020 0007 	bic.w	r0, r0, #7
 800a11c:	1ac3      	subs	r3, r0, r3
 800a11e:	d0d3      	beq.n	800a0c8 <_malloc_r+0x20>
 800a120:	425a      	negs	r2, r3
 800a122:	50e2      	str	r2, [r4, r3]
 800a124:	e7d0      	b.n	800a0c8 <_malloc_r+0x20>
 800a126:	428c      	cmp	r4, r1
 800a128:	684b      	ldr	r3, [r1, #4]
 800a12a:	bf16      	itet	ne
 800a12c:	6063      	strne	r3, [r4, #4]
 800a12e:	6013      	streq	r3, [r2, #0]
 800a130:	460c      	movne	r4, r1
 800a132:	e7eb      	b.n	800a10c <_malloc_r+0x64>
 800a134:	460c      	mov	r4, r1
 800a136:	6849      	ldr	r1, [r1, #4]
 800a138:	e7cc      	b.n	800a0d4 <_malloc_r+0x2c>
 800a13a:	1cc4      	adds	r4, r0, #3
 800a13c:	f024 0403 	bic.w	r4, r4, #3
 800a140:	42a0      	cmp	r0, r4
 800a142:	d005      	beq.n	800a150 <_malloc_r+0xa8>
 800a144:	1a21      	subs	r1, r4, r0
 800a146:	4630      	mov	r0, r6
 800a148:	f000 f95a 	bl	800a400 <_sbrk_r>
 800a14c:	3001      	adds	r0, #1
 800a14e:	d0cf      	beq.n	800a0f0 <_malloc_r+0x48>
 800a150:	6025      	str	r5, [r4, #0]
 800a152:	e7db      	b.n	800a10c <_malloc_r+0x64>
 800a154:	2000074c 	.word	0x2000074c
 800a158:	20000750 	.word	0x20000750

0800a15c <__ssputs_r>:
 800a15c:	e92d 47f0 	stmdb	sp!, {r4, r5, r6, r7, r8, r9, sl, lr}
 800a160:	688e      	ldr	r6, [r1, #8]
 800a162:	429e      	cmp	r6, r3
 800a164:	4682      	mov	sl, r0
 800a166:	460c      	mov	r4, r1
 800a168:	4690      	mov	r8, r2
 800a16a:	4699      	mov	r9, r3
 800a16c:	d837      	bhi.n	800a1de <__ssputs_r+0x82>
 800a16e:	898a      	ldrh	r2, [r1, #12]
 800a170:	f412 6f90 	tst.w	r2, #1152	; 0x480
 800a174:	d031      	beq.n	800a1da <__ssputs_r+0x7e>
 800a176:	6825      	ldr	r5, [r4, #0]
 800a178:	6909      	ldr	r1, [r1, #16]
 800a17a:	1a6f      	subs	r7, r5, r1
 800a17c:	6965      	ldr	r5, [r4, #20]
 800a17e:	2302      	movs	r3, #2
 800a180:	eb05 0545 	add.w	r5, r5, r5, lsl #1
 800a184:	fb95 f5f3 	sdiv	r5, r5, r3
 800a188:	f109 0301 	add.w	r3, r9, #1
 800a18c:	443b      	add	r3, r7
 800a18e:	429d      	cmp	r5, r3
 800a190:	bf38      	it	cc
 800a192:	461d      	movcc	r5, r3
 800a194:	0553      	lsls	r3, r2, #21
 800a196:	d530      	bpl.n	800a1fa <__ssputs_r+0x9e>
 800a198:	4629      	mov	r1, r5
 800a19a:	f7ff ff85 	bl	800a0a8 <_malloc_r>
 800a19e:	4606      	mov	r6, r0
 800a1a0:	b950      	cbnz	r0, 800a1b8 <__ssputs_r+0x5c>
 800a1a2:	230c      	movs	r3, #12
 800a1a4:	f8ca 3000 	str.w	r3, [sl]
 800a1a8:	89a3      	ldrh	r3, [r4, #12]
 800a1aa:	f043 0340 	orr.w	r3, r3, #64	; 0x40
 800a1ae:	81a3      	strh	r3, [r4, #12]
 800a1b0:	f04f 30ff 	mov.w	r0, #4294967295
 800a1b4:	e8bd 87f0 	ldmia.w	sp!, {r4, r5, r6, r7, r8, r9, sl, pc}
 800a1b8:	463a      	mov	r2, r7
 800a1ba:	6921      	ldr	r1, [r4, #16]
 800a1bc:	f7ff fc32 	bl	8009a24 <memcpy>
 800a1c0:	89a3      	ldrh	r3, [r4, #12]
 800a1c2:	f423 6390 	bic.w	r3, r3, #1152	; 0x480
 800a1c6:	f043 0380 	orr.w	r3, r3, #128	; 0x80
 800a1ca:	81a3      	strh	r3, [r4, #12]
 800a1cc:	6126      	str	r6, [r4, #16]
 800a1ce:	6165      	str	r5, [r4, #20]
 800a1d0:	443e      	add	r6, r7
 800a1d2:	1bed      	subs	r5, r5, r7
 800a1d4:	6026      	str	r6, [r4, #0]
 800a1d6:	60a5      	str	r5, [r4, #8]
 800a1d8:	464e      	mov	r6, r9
 800a1da:	454e      	cmp	r6, r9
 800a1dc:	d900      	bls.n	800a1e0 <__ssputs_r+0x84>
 800a1de:	464e      	mov	r6, r9
 800a1e0:	4632      	mov	r2, r6
 800a1e2:	4641      	mov	r1, r8
 800a1e4:	6820      	ldr	r0, [r4, #0]
 800a1e6:	f000 f92d 	bl	800a444 <memmove>
 800a1ea:	68a3      	ldr	r3, [r4, #8]
 800a1ec:	1b9b      	subs	r3, r3, r6
 800a1ee:	60a3      	str	r3, [r4, #8]
 800a1f0:	6823      	ldr	r3, [r4, #0]
 800a1f2:	441e      	add	r6, r3
 800a1f4:	6026      	str	r6, [r4, #0]
 800a1f6:	2000      	movs	r0, #0
 800a1f8:	e7dc      	b.n	800a1b4 <__ssputs_r+0x58>
 800a1fa:	462a      	mov	r2, r5
 800a1fc:	f000 f93d 	bl	800a47a <_realloc_r>
 800a200:	4606      	mov	r6, r0
 800a202:	2800      	cmp	r0, #0
 800a204:	d1e2      	bne.n	800a1cc <__ssputs_r+0x70>
 800a206:	6921      	ldr	r1, [r4, #16]
 800a208:	4650      	mov	r0, sl
 800a20a:	f7ff feff 	bl	800a00c <_free_r>
 800a20e:	e7c8      	b.n	800a1a2 <__ssputs_r+0x46>

0800a210 <_svfiprintf_r>:
 800a210:	e92d 4ff0 	stmdb	sp!, {r4, r5, r6, r7, r8, r9, sl, fp, lr}
 800a214:	461d      	mov	r5, r3
 800a216:	898b      	ldrh	r3, [r1, #12]
 800a218:	061f      	lsls	r7, r3, #24
 800a21a:	b09d      	sub	sp, #116	; 0x74
 800a21c:	4680      	mov	r8, r0
 800a21e:	460c      	mov	r4, r1
 800a220:	4616      	mov	r6, r2
 800a222:	d50f      	bpl.n	800a244 <_svfiprintf_r+0x34>
 800a224:	690b      	ldr	r3, [r1, #16]
 800a226:	b96b      	cbnz	r3, 800a244 <_svfiprintf_r+0x34>
 800a228:	2140      	movs	r1, #64	; 0x40
 800a22a:	f7ff ff3d 	bl	800a0a8 <_malloc_r>
 800a22e:	6020      	str	r0, [r4, #0]
 800a230:	6120      	str	r0, [r4, #16]
 800a232:	b928      	cbnz	r0, 800a240 <_svfiprintf_r+0x30>
 800a234:	230c      	movs	r3, #12
 800a236:	f8c8 3000 	str.w	r3, [r8]
 800a23a:	f04f 30ff 	mov.w	r0, #4294967295
 800a23e:	e0c8      	b.n	800a3d2 <_svfiprintf_r+0x1c2>
 800a240:	2340      	movs	r3, #64	; 0x40
 800a242:	6163      	str	r3, [r4, #20]
 800a244:	2300      	movs	r3, #0
 800a246:	9309      	str	r3, [sp, #36]	; 0x24
 800a248:	2320      	movs	r3, #32
 800a24a:	f88d 3029 	strb.w	r3, [sp, #41]	; 0x29
 800a24e:	2330      	movs	r3, #48	; 0x30
 800a250:	f88d 302a 	strb.w	r3, [sp, #42]	; 0x2a
 800a254:	9503      	str	r5, [sp, #12]
 800a256:	f04f 0b01 	mov.w	fp, #1
 800a25a:	4637      	mov	r7, r6
 800a25c:	463d      	mov	r5, r7
 800a25e:	f815 3b01 	ldrb.w	r3, [r5], #1
 800a262:	b10b      	cbz	r3, 800a268 <_svfiprintf_r+0x58>
 800a264:	2b25      	cmp	r3, #37	; 0x25
 800a266:	d13e      	bne.n	800a2e6 <_svfiprintf_r+0xd6>
 800a268:	ebb7 0a06 	subs.w	sl, r7, r6
 800a26c:	d00b      	beq.n	800a286 <_svfiprintf_r+0x76>
 800a26e:	4653      	mov	r3, sl
 800a270:	4632      	mov	r2, r6
 800a272:	4621      	mov	r1, r4
 800a274:	4640      	mov	r0, r8
 800a276:	f7ff ff71 	bl	800a15c <__ssputs_r>
 800a27a:	3001      	adds	r0, #1
 800a27c:	f000 80a4 	beq.w	800a3c8 <_svfiprintf_r+0x1b8>
 800a280:	9b09      	ldr	r3, [sp, #36]	; 0x24
 800a282:	4453      	add	r3, sl
 800a284:	9309      	str	r3, [sp, #36]	; 0x24
 800a286:	783b      	ldrb	r3, [r7, #0]
 800a288:	2b00      	cmp	r3, #0
 800a28a:	f000 809d 	beq.w	800a3c8 <_svfiprintf_r+0x1b8>
 800a28e:	2300      	movs	r3, #0
 800a290:	f04f 32ff 	mov.w	r2, #4294967295
 800a294:	e9cd 2305 	strd	r2, r3, [sp, #20]
 800a298:	9304      	str	r3, [sp, #16]
 800a29a:	9307      	str	r3, [sp, #28]
 800a29c:	f88d 3053 	strb.w	r3, [sp, #83]	; 0x53
 800a2a0:	931a      	str	r3, [sp, #104]	; 0x68
 800a2a2:	462f      	mov	r7, r5
 800a2a4:	2205      	movs	r2, #5
 800a2a6:	f817 1b01 	ldrb.w	r1, [r7], #1
 800a2aa:	4850      	ldr	r0, [pc, #320]	; (800a3ec <_svfiprintf_r+0x1dc>)
 800a2ac:	f7f5 ffb8 	bl	8000220 <memchr>
 800a2b0:	9b04      	ldr	r3, [sp, #16]
 800a2b2:	b9d0      	cbnz	r0, 800a2ea <_svfiprintf_r+0xda>
 800a2b4:	06d9      	lsls	r1, r3, #27
 800a2b6:	bf44      	itt	mi
 800a2b8:	2220      	movmi	r2, #32
 800a2ba:	f88d 2053 	strbmi.w	r2, [sp, #83]	; 0x53
 800a2be:	071a      	lsls	r2, r3, #28
 800a2c0:	bf44      	itt	mi
 800a2c2:	222b      	movmi	r2, #43	; 0x2b
 800a2c4:	f88d 2053 	strbmi.w	r2, [sp, #83]	; 0x53
 800a2c8:	782a      	ldrb	r2, [r5, #0]
 800a2ca:	2a2a      	cmp	r2, #42	; 0x2a
 800a2cc:	d015      	beq.n	800a2fa <_svfiprintf_r+0xea>
 800a2ce:	9a07      	ldr	r2, [sp, #28]
 800a2d0:	462f      	mov	r7, r5
 800a2d2:	2000      	movs	r0, #0
 800a2d4:	250a      	movs	r5, #10
 800a2d6:	4639      	mov	r1, r7
 800a2d8:	f811 3b01 	ldrb.w	r3, [r1], #1
 800a2dc:	3b30      	subs	r3, #48	; 0x30
 800a2de:	2b09      	cmp	r3, #9
 800a2e0:	d94d      	bls.n	800a37e <_svfiprintf_r+0x16e>
 800a2e2:	b1b8      	cbz	r0, 800a314 <_svfiprintf_r+0x104>
 800a2e4:	e00f      	b.n	800a306 <_svfiprintf_r+0xf6>
 800a2e6:	462f      	mov	r7, r5
 800a2e8:	e7b8      	b.n	800a25c <_svfiprintf_r+0x4c>
 800a2ea:	4a40      	ldr	r2, [pc, #256]	; (800a3ec <_svfiprintf_r+0x1dc>)
 800a2ec:	1a80      	subs	r0, r0, r2
 800a2ee:	fa0b f000 	lsl.w	r0, fp, r0
 800a2f2:	4318      	orrs	r0, r3
 800a2f4:	9004      	str	r0, [sp, #16]
 800a2f6:	463d      	mov	r5, r7
 800a2f8:	e7d3      	b.n	800a2a2 <_svfiprintf_r+0x92>
 800a2fa:	9a03      	ldr	r2, [sp, #12]
 800a2fc:	1d11      	adds	r1, r2, #4
 800a2fe:	6812      	ldr	r2, [r2, #0]
 800a300:	9103      	str	r1, [sp, #12]
 800a302:	2a00      	cmp	r2, #0
 800a304:	db01      	blt.n	800a30a <_svfiprintf_r+0xfa>
 800a306:	9207      	str	r2, [sp, #28]
 800a308:	e004      	b.n	800a314 <_svfiprintf_r+0x104>
 800a30a:	4252      	negs	r2, r2
 800a30c:	f043 0302 	orr.w	r3, r3, #2
 800a310:	9207      	str	r2, [sp, #28]
 800a312:	9304      	str	r3, [sp, #16]
 800a314:	783b      	ldrb	r3, [r7, #0]
 800a316:	2b2e      	cmp	r3, #46	; 0x2e
 800a318:	d10c      	bne.n	800a334 <_svfiprintf_r+0x124>
 800a31a:	787b      	ldrb	r3, [r7, #1]
 800a31c:	2b2a      	cmp	r3, #42	; 0x2a
 800a31e:	d133      	bne.n	800a388 <_svfiprintf_r+0x178>
 800a320:	9b03      	ldr	r3, [sp, #12]
 800a322:	1d1a      	adds	r2, r3, #4
 800a324:	681b      	ldr	r3, [r3, #0]
 800a326:	9203      	str	r2, [sp, #12]
 800a328:	2b00      	cmp	r3, #0
 800a32a:	bfb8      	it	lt
 800a32c:	f04f 33ff 	movlt.w	r3, #4294967295
 800a330:	3702      	adds	r7, #2
 800a332:	9305      	str	r3, [sp, #20]
 800a334:	4d2e      	ldr	r5, [pc, #184]	; (800a3f0 <_svfiprintf_r+0x1e0>)
 800a336:	7839      	ldrb	r1, [r7, #0]
 800a338:	2203      	movs	r2, #3
 800a33a:	4628      	mov	r0, r5
 800a33c:	f7f5 ff70 	bl	8000220 <memchr>
 800a340:	b138      	cbz	r0, 800a352 <_svfiprintf_r+0x142>
 800a342:	2340      	movs	r3, #64	; 0x40
 800a344:	1b40      	subs	r0, r0, r5
 800a346:	fa03 f000 	lsl.w	r0, r3, r0
 800a34a:	9b04      	ldr	r3, [sp, #16]
 800a34c:	4303      	orrs	r3, r0
 800a34e:	3701      	adds	r7, #1
 800a350:	9304      	str	r3, [sp, #16]
 800a352:	7839      	ldrb	r1, [r7, #0]
 800a354:	4827      	ldr	r0, [pc, #156]	; (800a3f4 <_svfiprintf_r+0x1e4>)
 800a356:	f88d 1028 	strb.w	r1, [sp, #40]	; 0x28
 800a35a:	2206      	movs	r2, #6
 800a35c:	1c7e      	adds	r6, r7, #1
 800a35e:	f7f5 ff5f 	bl	8000220 <memchr>
 800a362:	2800      	cmp	r0, #0
 800a364:	d038      	beq.n	800a3d8 <_svfiprintf_r+0x1c8>
 800a366:	4b24      	ldr	r3, [pc, #144]	; (800a3f8 <_svfiprintf_r+0x1e8>)
 800a368:	bb13      	cbnz	r3, 800a3b0 <_svfiprintf_r+0x1a0>
 800a36a:	9b03      	ldr	r3, [sp, #12]
 800a36c:	3307      	adds	r3, #7
 800a36e:	f023 0307 	bic.w	r3, r3, #7
 800a372:	3308      	adds	r3, #8
 800a374:	9303      	str	r3, [sp, #12]
 800a376:	9b09      	ldr	r3, [sp, #36]	; 0x24
 800a378:	444b      	add	r3, r9
 800a37a:	9309      	str	r3, [sp, #36]	; 0x24
 800a37c:	e76d      	b.n	800a25a <_svfiprintf_r+0x4a>
 800a37e:	fb05 3202 	mla	r2, r5, r2, r3
 800a382:	2001      	movs	r0, #1
 800a384:	460f      	mov	r7, r1
 800a386:	e7a6      	b.n	800a2d6 <_svfiprintf_r+0xc6>
 800a388:	2300      	movs	r3, #0
 800a38a:	3701      	adds	r7, #1
 800a38c:	9305      	str	r3, [sp, #20]
 800a38e:	4619      	mov	r1, r3
 800a390:	250a      	movs	r5, #10
 800a392:	4638      	mov	r0, r7
 800a394:	f810 2b01 	ldrb.w	r2, [r0], #1
 800a398:	3a30      	subs	r2, #48	; 0x30
 800a39a:	2a09      	cmp	r2, #9
 800a39c:	d903      	bls.n	800a3a6 <_svfiprintf_r+0x196>
 800a39e:	2b00      	cmp	r3, #0
 800a3a0:	d0c8      	beq.n	800a334 <_svfiprintf_r+0x124>
 800a3a2:	9105      	str	r1, [sp, #20]
 800a3a4:	e7c6      	b.n	800a334 <_svfiprintf_r+0x124>
 800a3a6:	fb05 2101 	mla	r1, r5, r1, r2
 800a3aa:	2301      	movs	r3, #1
 800a3ac:	4607      	mov	r7, r0
 800a3ae:	e7f0      	b.n	800a392 <_svfiprintf_r+0x182>
 800a3b0:	ab03      	add	r3, sp, #12
 800a3b2:	9300      	str	r3, [sp, #0]
 800a3b4:	4622      	mov	r2, r4
 800a3b6:	4b11      	ldr	r3, [pc, #68]	; (800a3fc <_svfiprintf_r+0x1ec>)
 800a3b8:	a904      	add	r1, sp, #16
 800a3ba:	4640      	mov	r0, r8
 800a3bc:	f7fe f8b4 	bl	8008528 <_printf_float>
 800a3c0:	f1b0 3fff 	cmp.w	r0, #4294967295
 800a3c4:	4681      	mov	r9, r0
 800a3c6:	d1d6      	bne.n	800a376 <_svfiprintf_r+0x166>
 800a3c8:	89a3      	ldrh	r3, [r4, #12]
 800a3ca:	065b      	lsls	r3, r3, #25
 800a3cc:	f53f af35 	bmi.w	800a23a <_svfiprintf_r+0x2a>
 800a3d0:	9809      	ldr	r0, [sp, #36]	; 0x24
 800a3d2:	b01d      	add	sp, #116	; 0x74
 800a3d4:	e8bd 8ff0 	ldmia.w	sp!, {r4, r5, r6, r7, r8, r9, sl, fp, pc}
 800a3d8:	ab03      	add	r3, sp, #12
 800a3da:	9300      	str	r3, [sp, #0]
 800a3dc:	4622      	mov	r2, r4
 800a3de:	4b07      	ldr	r3, [pc, #28]	; (800a3fc <_svfiprintf_r+0x1ec>)
 800a3e0:	a904      	add	r1, sp, #16
 800a3e2:	4640      	mov	r0, r8
 800a3e4:	f7fe fb56 	bl	8008a94 <_printf_i>
 800a3e8:	e7ea      	b.n	800a3c0 <_svfiprintf_r+0x1b0>
 800a3ea:	bf00      	nop
 800a3ec:	0800a87c 	.word	0x0800a87c
 800a3f0:	0800a882 	.word	0x0800a882
 800a3f4:	0800a886 	.word	0x0800a886
 800a3f8:	08008529 	.word	0x08008529
 800a3fc:	0800a15d 	.word	0x0800a15d

0800a400 <_sbrk_r>:
 800a400:	b538      	push	{r3, r4, r5, lr}
 800a402:	4c06      	ldr	r4, [pc, #24]	; (800a41c <_sbrk_r+0x1c>)
 800a404:	2300      	movs	r3, #0
 800a406:	4605      	mov	r5, r0
 800a408:	4608      	mov	r0, r1
 800a40a:	6023      	str	r3, [r4, #0]
 800a40c:	f7f7 fc3e 	bl	8001c8c <_sbrk>
 800a410:	1c43      	adds	r3, r0, #1
 800a412:	d102      	bne.n	800a41a <_sbrk_r+0x1a>
 800a414:	6823      	ldr	r3, [r4, #0]
 800a416:	b103      	cbz	r3, 800a41a <_sbrk_r+0x1a>
 800a418:	602b      	str	r3, [r5, #0]
 800a41a:	bd38      	pop	{r3, r4, r5, pc}
 800a41c:	200011a0 	.word	0x200011a0

0800a420 <__ascii_mbtowc>:
 800a420:	b082      	sub	sp, #8
 800a422:	b901      	cbnz	r1, 800a426 <__ascii_mbtowc+0x6>
 800a424:	a901      	add	r1, sp, #4
 800a426:	b142      	cbz	r2, 800a43a <__ascii_mbtowc+0x1a>
 800a428:	b14b      	cbz	r3, 800a43e <__ascii_mbtowc+0x1e>
 800a42a:	7813      	ldrb	r3, [r2, #0]
 800a42c:	600b      	str	r3, [r1, #0]
 800a42e:	7812      	ldrb	r2, [r2, #0]
 800a430:	1c10      	adds	r0, r2, #0
 800a432:	bf18      	it	ne
 800a434:	2001      	movne	r0, #1
 800a436:	b002      	add	sp, #8
 800a438:	4770      	bx	lr
 800a43a:	4610      	mov	r0, r2
 800a43c:	e7fb      	b.n	800a436 <__ascii_mbtowc+0x16>
 800a43e:	f06f 0001 	mvn.w	r0, #1
 800a442:	e7f8      	b.n	800a436 <__ascii_mbtowc+0x16>

0800a444 <memmove>:
 800a444:	4288      	cmp	r0, r1
 800a446:	b510      	push	{r4, lr}
 800a448:	eb01 0302 	add.w	r3, r1, r2
 800a44c:	d807      	bhi.n	800a45e <memmove+0x1a>
 800a44e:	1e42      	subs	r2, r0, #1
 800a450:	4299      	cmp	r1, r3
 800a452:	d00a      	beq.n	800a46a <memmove+0x26>
 800a454:	f811 4b01 	ldrb.w	r4, [r1], #1
 800a458:	f802 4f01 	strb.w	r4, [r2, #1]!
 800a45c:	e7f8      	b.n	800a450 <memmove+0xc>
 800a45e:	4283      	cmp	r3, r0
 800a460:	d9f5      	bls.n	800a44e <memmove+0xa>
 800a462:	1881      	adds	r1, r0, r2
 800a464:	1ad2      	subs	r2, r2, r3
 800a466:	42d3      	cmn	r3, r2
 800a468:	d100      	bne.n	800a46c <memmove+0x28>
 800a46a:	bd10      	pop	{r4, pc}
 800a46c:	f813 4d01 	ldrb.w	r4, [r3, #-1]!
 800a470:	f801 4d01 	strb.w	r4, [r1, #-1]!
 800a474:	e7f7      	b.n	800a466 <memmove+0x22>

0800a476 <__malloc_lock>:
 800a476:	4770      	bx	lr

0800a478 <__malloc_unlock>:
 800a478:	4770      	bx	lr

0800a47a <_realloc_r>:
 800a47a:	b5f8      	push	{r3, r4, r5, r6, r7, lr}
 800a47c:	4607      	mov	r7, r0
 800a47e:	4614      	mov	r4, r2
 800a480:	460e      	mov	r6, r1
 800a482:	b921      	cbnz	r1, 800a48e <_realloc_r+0x14>
 800a484:	4611      	mov	r1, r2
 800a486:	e8bd 40f8 	ldmia.w	sp!, {r3, r4, r5, r6, r7, lr}
 800a48a:	f7ff be0d 	b.w	800a0a8 <_malloc_r>
 800a48e:	b922      	cbnz	r2, 800a49a <_realloc_r+0x20>
 800a490:	f7ff fdbc 	bl	800a00c <_free_r>
 800a494:	4625      	mov	r5, r4
 800a496:	4628      	mov	r0, r5
 800a498:	bdf8      	pop	{r3, r4, r5, r6, r7, pc}
 800a49a:	f000 f821 	bl	800a4e0 <_malloc_usable_size_r>
 800a49e:	42a0      	cmp	r0, r4
 800a4a0:	d20f      	bcs.n	800a4c2 <_realloc_r+0x48>
 800a4a2:	4621      	mov	r1, r4
 800a4a4:	4638      	mov	r0, r7
 800a4a6:	f7ff fdff 	bl	800a0a8 <_malloc_r>
 800a4aa:	4605      	mov	r5, r0
 800a4ac:	2800      	cmp	r0, #0
 800a4ae:	d0f2      	beq.n	800a496 <_realloc_r+0x1c>
 800a4b0:	4631      	mov	r1, r6
 800a4b2:	4622      	mov	r2, r4
 800a4b4:	f7ff fab6 	bl	8009a24 <memcpy>
 800a4b8:	4631      	mov	r1, r6
 800a4ba:	4638      	mov	r0, r7
 800a4bc:	f7ff fda6 	bl	800a00c <_free_r>
 800a4c0:	e7e9      	b.n	800a496 <_realloc_r+0x1c>
 800a4c2:	4635      	mov	r5, r6
 800a4c4:	e7e7      	b.n	800a496 <_realloc_r+0x1c>

0800a4c6 <__ascii_wctomb>:
 800a4c6:	b149      	cbz	r1, 800a4dc <__ascii_wctomb+0x16>
 800a4c8:	2aff      	cmp	r2, #255	; 0xff
 800a4ca:	bf85      	ittet	hi
 800a4cc:	238a      	movhi	r3, #138	; 0x8a
 800a4ce:	6003      	strhi	r3, [r0, #0]
 800a4d0:	700a      	strbls	r2, [r1, #0]
 800a4d2:	f04f 30ff 	movhi.w	r0, #4294967295
 800a4d6:	bf98      	it	ls
 800a4d8:	2001      	movls	r0, #1
 800a4da:	4770      	bx	lr
 800a4dc:	4608      	mov	r0, r1
 800a4de:	4770      	bx	lr

0800a4e0 <_malloc_usable_size_r>:
 800a4e0:	f851 3c04 	ldr.w	r3, [r1, #-4]
 800a4e4:	1f18      	subs	r0, r3, #4
 800a4e6:	2b00      	cmp	r3, #0
 800a4e8:	bfbc      	itt	lt
 800a4ea:	580b      	ldrlt	r3, [r1, r0]
 800a4ec:	18c0      	addlt	r0, r0, r3
 800a4ee:	4770      	bx	lr

0800a4f0 <_init>:
 800a4f0:	b5f8      	push	{r3, r4, r5, r6, r7, lr}
 800a4f2:	bf00      	nop
 800a4f4:	bcf8      	pop	{r3, r4, r5, r6, r7}
 800a4f6:	bc08      	pop	{r3}
 800a4f8:	469e      	mov	lr, r3
 800a4fa:	4770      	bx	lr

0800a4fc <_fini>:
 800a4fc:	b5f8      	push	{r3, r4, r5, r6, r7, lr}
 800a4fe:	bf00      	nop
 800a500:	bcf8      	pop	{r3, r4, r5, r6, r7}
 800a502:	bc08      	pop	{r3}
 800a504:	469e      	mov	lr, r3
 800a506:	4770      	bx	lr
